
build/nemu/rvh_test.elf:     file format elf64-littleriscv


Disassembly of section .boot:

0000000080000000 <_boot>:

.section .boot, "ax" 
.globl _boot
_boot:
    bnez a0, .
    80000000:	e101                	bnez	a0,80000000 <_boot>
    csrwi    sscratch, 0xf
    80000002:	1407d073          	csrwi	sscratch,15
    /* Initialize stack pointer */
    la sp, __stack_top
    80000006:	002ff117          	auipc	sp,0x2ff
    8000000a:	ffa10113          	addi	sp,sp,-6 # 802ff000 <__stack_top>

    /* Clear bss */ 
    la a0, __bss_start
    8000000e:	0002e517          	auipc	a0,0x2e
    80000012:	ff250513          	addi	a0,a0,-14 # 8002e000 <__bss_start>
    la a1, __bss_end
    80000016:	00045597          	auipc	a1,0x45
    8000001a:	04e58593          	addi	a1,a1,78 # 80045064 <__bss_end>
    bgeu a0, a1, 2f
    8000001e:	00b57763          	bgeu	a0,a1,8000002c <_boot+0x2c>
1:
    sw zero, (a0)
    80000022:	00052023          	sw	zero,0(a0)
    addi a0, a0, 4
    80000026:	0511                	addi	a0,a0,4
    bltu a0, a1, 1b
    80000028:	feb56de3          	bltu	a0,a1,80000022 <_boot+0x22>
2:
    call _init
    8000002c:	691200ef          	jal	80020ebc <_init>
    call main
    80000030:	7f7200ef          	jal	80021026 <main>
    li a0, 0
    80000034:	4501                	li	a0,0
    call exit
    80000036:	34b200ef          	jal	80020b80 <exit>
    j .
    8000003a:	a001                	j	8000003a <_boot+0x3a>

Disassembly of section .text:

000000008000003c <check_csr_field_spec>:
#include <stdbool.h>
#include <stdio.h>
#include <stdlib.h>
#include <rvh_test.h>

bool check_csr_field_spec(){
    8000003c:	7179                	addi	sp,sp,-48

    TEST_START();
    8000003e:	00021597          	auipc	a1,0x21
    80000042:	06a58593          	addi	a1,a1,106 # 800210a8 <__func__.1>
    80000046:	00023517          	auipc	a0,0x23
    8000004a:	b0a50513          	addi	a0,a0,-1270 # 80022b50 <__func__.2+0x2e8>
bool check_csr_field_spec(){
    8000004e:	f406                	sd	ra,40(sp)
    80000050:	f022                	sd	s0,32(sp)
    80000052:	ec26                	sd	s1,24(sp)
    80000054:	e84a                	sd	s2,16(sp)
    80000056:	e44e                	sd	s3,8(sp)
    80000058:	e052                	sd	s4,0(sp)
    TEST_START();
    8000005a:	417200ef          	jal	80020c70 <printf>
    8000005e:	4529                	li	a0,10
    80000060:	2a0200ef          	jal	80020300 <putchar>

    /* this assumes machine mode */
    //check_csr_wrrd("mstatus", mstatus, (uint64_t) -1, 0x800000ca007e79aaULL);
    //check_csr_wrrd("mideleg", mideleg, (uint64_t) -1, 0x1666);
    //check_csr_wrrd("medeleg", medeleg, (uint64_t) -1, 0xb15d);
    check_csr_wrrd("mideleg", mideleg, (uint64_t)0, 0x444);
    80000064:	30302973          	csrr	s2,mideleg
    80000068:	30305073          	csrwi	mideleg,0
    8000006c:	30302473          	csrr	s0,mideleg
    80000070:	00023617          	auipc	a2,0x23
    80000074:	af060613          	addi	a2,a2,-1296 # 80022b60 <__func__.2+0x2f8>
    80000078:	08200593          	li	a1,130
    8000007c:	00023517          	auipc	a0,0x23
    80000080:	aec50513          	addi	a0,a0,-1300 # 80022b68 <__func__.2+0x300>
    80000084:	44400493          	li	s1,1092
    80000088:	3e9200ef          	jal	80020c70 <printf>
    8000008c:	46940163          	beq	s0,s1,800004ee <check_csr_field_spec+0x4b2>
    80000090:	00023597          	auipc	a1,0x23
    80000094:	ab058593          	addi	a1,a1,-1360 # 80022b40 <__func__.2+0x2d8>
    80000098:	00023517          	auipc	a0,0x23
    8000009c:	ae850513          	addi	a0,a0,-1304 # 80022b80 <__func__.2+0x318>
    800000a0:	3d1200ef          	jal	80020c70 <printf>
    800000a4:	00023517          	auipc	a0,0x23
    800000a8:	ae450513          	addi	a0,a0,-1308 # 80022b88 <__func__.2+0x320>
    800000ac:	3c5200ef          	jal	80020c70 <printf>
    800000b0:	8622                	mv	a2,s0
    800000b2:	86a6                	mv	a3,s1
    800000b4:	4581                	li	a1,0
    800000b6:	00023517          	auipc	a0,0x23
    800000ba:	ada50513          	addi	a0,a0,-1318 # 80022b90 <__func__.2+0x328>
    800000be:	3b3200ef          	jal	80020c70 <printf>
    800000c2:	02900513          	li	a0,41
    800000c6:	23a200ef          	jal	80020300 <putchar>
    800000ca:	4529                	li	a0,10
    800000cc:	234200ef          	jal	80020300 <putchar>
    800000d0:	4401                	li	s0,0
    800000d2:	30391073          	csrw	mideleg,s2
    //check_csr_wrrd("mip", mip, (uint64_t) -1, 0x6e6);
    //check_csr_wrrd("mie", mie, (uint64_t) -1, 0x1eee);
    check_csr_wrrd("mtinst", CSR_MTINST, (uint64_t) -1, (uint64_t) -1);
    800000d6:	34a029f3          	csrr	s3,0x34a
    800000da:	54fd                	li	s1,-1
    800000dc:	34a49073          	csrw	0x34a,s1
    800000e0:	34a02973          	csrr	s2,0x34a
    800000e4:	00023617          	auipc	a2,0x23
    800000e8:	ac460613          	addi	a2,a2,-1340 # 80022ba8 <__func__.2+0x340>
    800000ec:	08200593          	li	a1,130
    800000f0:	00023517          	auipc	a0,0x23
    800000f4:	a7850513          	addi	a0,a0,-1416 # 80022b68 <__func__.2+0x300>
    800000f8:	379200ef          	jal	80020c70 <printf>
    800000fc:	30990f63          	beq	s2,s1,8000041a <check_csr_field_spec+0x3de>
    80000100:	00023597          	auipc	a1,0x23
    80000104:	a4058593          	addi	a1,a1,-1472 # 80022b40 <__func__.2+0x2d8>
    80000108:	00023517          	auipc	a0,0x23
    8000010c:	a7850513          	addi	a0,a0,-1416 # 80022b80 <__func__.2+0x318>
    80000110:	361200ef          	jal	80020c70 <printf>
    80000114:	00023517          	auipc	a0,0x23
    80000118:	a7450513          	addi	a0,a0,-1420 # 80022b88 <__func__.2+0x320>
    8000011c:	355200ef          	jal	80020c70 <printf>
    80000120:	86a6                	mv	a3,s1
    80000122:	864a                	mv	a2,s2
    80000124:	85a6                	mv	a1,s1
    80000126:	00023517          	auipc	a0,0x23
    8000012a:	a6a50513          	addi	a0,a0,-1430 # 80022b90 <__func__.2+0x328>
    8000012e:	343200ef          	jal	80020c70 <printf>
    80000132:	02900513          	li	a0,41
    80000136:	1ca200ef          	jal	80020300 <putchar>
    8000013a:	4529                	li	a0,10
    8000013c:	1c4200ef          	jal	80020300 <putchar>
    80000140:	4401                	li	s0,0
    80000142:	34a99073          	csrw	0x34a,s3
    check_csr_wrrd("mtval2", CSR_MTVAL2, (uint64_t) -1, (uint64_t) -1);
    80000146:	34b029f3          	csrr	s3,0x34b
    8000014a:	54fd                	li	s1,-1
    8000014c:	34b49073          	csrw	0x34b,s1
    80000150:	34b02973          	csrr	s2,0x34b
    80000154:	00023617          	auipc	a2,0x23
    80000158:	a5c60613          	addi	a2,a2,-1444 # 80022bb0 <__func__.2+0x348>
    8000015c:	08200593          	li	a1,130
    80000160:	00023517          	auipc	a0,0x23
    80000164:	a0850513          	addi	a0,a0,-1528 # 80022b68 <__func__.2+0x300>
    80000168:	309200ef          	jal	80020c70 <printf>
    8000016c:	36990363          	beq	s2,s1,800004d2 <check_csr_field_spec+0x496>
    80000170:	00023597          	auipc	a1,0x23
    80000174:	9d058593          	addi	a1,a1,-1584 # 80022b40 <__func__.2+0x2d8>
    80000178:	00023517          	auipc	a0,0x23
    8000017c:	a0850513          	addi	a0,a0,-1528 # 80022b80 <__func__.2+0x318>
    80000180:	2f1200ef          	jal	80020c70 <printf>
    80000184:	00023517          	auipc	a0,0x23
    80000188:	a0450513          	addi	a0,a0,-1532 # 80022b88 <__func__.2+0x320>
    8000018c:	2e5200ef          	jal	80020c70 <printf>
    80000190:	86a6                	mv	a3,s1
    80000192:	864a                	mv	a2,s2
    80000194:	85a6                	mv	a1,s1
    80000196:	00023517          	auipc	a0,0x23
    8000019a:	9fa50513          	addi	a0,a0,-1542 # 80022b90 <__func__.2+0x328>
    8000019e:	2d3200ef          	jal	80020c70 <printf>
    800001a2:	02900513          	li	a0,41
    800001a6:	15a200ef          	jal	80020300 <putchar>
    800001aa:	4529                	li	a0,10
    800001ac:	154200ef          	jal	80020300 <putchar>
    800001b0:	4401                	li	s0,0
    800001b2:	34b99073          	csrw	0x34b,s3
    //check_csr_wrrd("hstatus", CSR_HSTATUS, (uint64_t) -1, 0x30053f3e0);
    //check_csr_wrrd("hideleg", CSR_HIDELEG, (uint64_t) -1, 0x444);
    //check_csr_wrrd("hedeleg", CSR_HEDELEG, (uint64_t) -1, 0xb1ff);
    //check_csr_wrrd("hvip", CSR_HVIP, (uint64_t) -1, 0x444);
    //check_csr_wrrd("hip", CSR_HIP, (uint64_t) -1, 0x4);
    check_csr_wrrd("hie", CSR_HIE, (uint64_t) -1, 0x444);
    800001b6:	60402a73          	csrr	s4,hie
    800001ba:	54fd                	li	s1,-1
    800001bc:	60449073          	csrw	hie,s1
    800001c0:	60402973          	csrr	s2,hie
    800001c4:	00023617          	auipc	a2,0x23
    800001c8:	9f460613          	addi	a2,a2,-1548 # 80022bb8 <__func__.2+0x350>
    800001cc:	08200593          	li	a1,130
    800001d0:	00023517          	auipc	a0,0x23
    800001d4:	99850513          	addi	a0,a0,-1640 # 80022b68 <__func__.2+0x300>
    800001d8:	44400993          	li	s3,1092
    800001dc:	295200ef          	jal	80020c70 <printf>
    800001e0:	2d390b63          	beq	s2,s3,800004b6 <check_csr_field_spec+0x47a>
    800001e4:	00023597          	auipc	a1,0x23
    800001e8:	95c58593          	addi	a1,a1,-1700 # 80022b40 <__func__.2+0x2d8>
    800001ec:	00023517          	auipc	a0,0x23
    800001f0:	99450513          	addi	a0,a0,-1644 # 80022b80 <__func__.2+0x318>
    800001f4:	27d200ef          	jal	80020c70 <printf>
    800001f8:	00023517          	auipc	a0,0x23
    800001fc:	99050513          	addi	a0,a0,-1648 # 80022b88 <__func__.2+0x320>
    80000200:	271200ef          	jal	80020c70 <printf>
    80000204:	86ce                	mv	a3,s3
    80000206:	864a                	mv	a2,s2
    80000208:	85a6                	mv	a1,s1
    8000020a:	00023517          	auipc	a0,0x23
    8000020e:	98650513          	addi	a0,a0,-1658 # 80022b90 <__func__.2+0x328>
    80000212:	25f200ef          	jal	80020c70 <printf>
    80000216:	02900513          	li	a0,41
    8000021a:	0e6200ef          	jal	80020300 <putchar>
    8000021e:	4529                	li	a0,10
    80000220:	0e0200ef          	jal	80020300 <putchar>
    80000224:	4401                	li	s0,0
    80000226:	604a1073          	csrw	hie,s4
    check_csr_wrrd("htval", CSR_HTVAL, (uint64_t) -1, (uint64_t) -1);
    8000022a:	643029f3          	csrr	s3,htval
    8000022e:	54fd                	li	s1,-1
    80000230:	64349073          	csrw	htval,s1
    80000234:	64302973          	csrr	s2,htval
    80000238:	00023617          	auipc	a2,0x23
    8000023c:	98860613          	addi	a2,a2,-1656 # 80022bc0 <__func__.2+0x358>
    80000240:	08200593          	li	a1,130
    80000244:	00023517          	auipc	a0,0x23
    80000248:	92450513          	addi	a0,a0,-1756 # 80022b68 <__func__.2+0x300>
    8000024c:	225200ef          	jal	80020c70 <printf>
    80000250:	24990563          	beq	s2,s1,8000049a <check_csr_field_spec+0x45e>
    80000254:	00023597          	auipc	a1,0x23
    80000258:	8ec58593          	addi	a1,a1,-1812 # 80022b40 <__func__.2+0x2d8>
    8000025c:	00023517          	auipc	a0,0x23
    80000260:	92450513          	addi	a0,a0,-1756 # 80022b80 <__func__.2+0x318>
    80000264:	20d200ef          	jal	80020c70 <printf>
    80000268:	00023517          	auipc	a0,0x23
    8000026c:	92050513          	addi	a0,a0,-1760 # 80022b88 <__func__.2+0x320>
    80000270:	201200ef          	jal	80020c70 <printf>
    80000274:	86a6                	mv	a3,s1
    80000276:	864a                	mv	a2,s2
    80000278:	85a6                	mv	a1,s1
    8000027a:	00023517          	auipc	a0,0x23
    8000027e:	91650513          	addi	a0,a0,-1770 # 80022b90 <__func__.2+0x328>
    80000282:	1ef200ef          	jal	80020c70 <printf>
    80000286:	02900513          	li	a0,41
    8000028a:	076200ef          	jal	80020300 <putchar>
    8000028e:	4529                	li	a0,10
    80000290:	070200ef          	jal	80020300 <putchar>
    80000294:	4401                	li	s0,0
    80000296:	64399073          	csrw	htval,s3
    check_csr_wrrd("htinst", CSR_HTINST, (uint64_t) -1, (uint64_t) -1);
    8000029a:	64a029f3          	csrr	s3,htinst
    8000029e:	54fd                	li	s1,-1
    800002a0:	64a49073          	csrw	htinst,s1
    800002a4:	64a02973          	csrr	s2,htinst
    800002a8:	00023617          	auipc	a2,0x23
    800002ac:	92060613          	addi	a2,a2,-1760 # 80022bc8 <__func__.2+0x360>
    800002b0:	08200593          	li	a1,130
    800002b4:	00023517          	auipc	a0,0x23
    800002b8:	8b450513          	addi	a0,a0,-1868 # 80022b68 <__func__.2+0x300>
    800002bc:	1b5200ef          	jal	80020c70 <printf>
    800002c0:	1a990f63          	beq	s2,s1,8000047e <check_csr_field_spec+0x442>
    800002c4:	00023597          	auipc	a1,0x23
    800002c8:	87c58593          	addi	a1,a1,-1924 # 80022b40 <__func__.2+0x2d8>
    800002cc:	00023517          	auipc	a0,0x23
    800002d0:	8b450513          	addi	a0,a0,-1868 # 80022b80 <__func__.2+0x318>
    800002d4:	19d200ef          	jal	80020c70 <printf>
    800002d8:	00023517          	auipc	a0,0x23
    800002dc:	8b050513          	addi	a0,a0,-1872 # 80022b88 <__func__.2+0x320>
    800002e0:	191200ef          	jal	80020c70 <printf>
    800002e4:	86a6                	mv	a3,s1
    800002e6:	864a                	mv	a2,s2
    800002e8:	85a6                	mv	a1,s1
    800002ea:	00023517          	auipc	a0,0x23
    800002ee:	8a650513          	addi	a0,a0,-1882 # 80022b90 <__func__.2+0x328>
    800002f2:	17f200ef          	jal	80020c70 <printf>
    800002f6:	02900513          	li	a0,41
    800002fa:	006200ef          	jal	80020300 <putchar>
    800002fe:	4529                	li	a0,10
    80000300:	000200ef          	jal	80020300 <putchar>
    80000304:	4401                	li	s0,0
    80000306:	64a99073          	csrw	htinst,s3
    //check_csr_wrrd("hgatp", CSR_HGATP, (8ULL << 60) | (1ULL << 60)-1, 0x80000000000fffffULL);
    //check_csr_wrrd("vsstatus", CSR_VSSTATUS, (uint64_t) -1, 0x80000000000c6122ULL);
    //check_csr_wrrd("vsip", CSR_VSIP, (uint64_t) -1, 0x0);
    //check_csr_wrrd("vsie", CSR_VSIE, (uint64_t) -1, 0x0);
    //check_csr_wrrd("vstvec", CSR_VSTVEC, (uint64_t) -1, 0xffffffffffffff01ULL);
    check_csr_wrrd("vsscratch", CSR_VSSCRATCH, (uint64_t) -1, (uint64_t) -1);
    8000030a:	240029f3          	csrr	s3,vsscratch
    8000030e:	54fd                	li	s1,-1
    80000310:	24049073          	csrw	vsscratch,s1
    80000314:	24002973          	csrr	s2,vsscratch
    80000318:	00023617          	auipc	a2,0x23
    8000031c:	8b860613          	addi	a2,a2,-1864 # 80022bd0 <__func__.2+0x368>
    80000320:	08200593          	li	a1,130
    80000324:	00023517          	auipc	a0,0x23
    80000328:	84450513          	addi	a0,a0,-1980 # 80022b68 <__func__.2+0x300>
    8000032c:	145200ef          	jal	80020c70 <printf>
    80000330:	12990963          	beq	s2,s1,80000462 <check_csr_field_spec+0x426>
    80000334:	00023597          	auipc	a1,0x23
    80000338:	80c58593          	addi	a1,a1,-2036 # 80022b40 <__func__.2+0x2d8>
    8000033c:	00023517          	auipc	a0,0x23
    80000340:	84450513          	addi	a0,a0,-1980 # 80022b80 <__func__.2+0x318>
    80000344:	12d200ef          	jal	80020c70 <printf>
    80000348:	00023517          	auipc	a0,0x23
    8000034c:	84050513          	addi	a0,a0,-1984 # 80022b88 <__func__.2+0x320>
    80000350:	121200ef          	jal	80020c70 <printf>
    80000354:	86a6                	mv	a3,s1
    80000356:	864a                	mv	a2,s2
    80000358:	85a6                	mv	a1,s1
    8000035a:	00023517          	auipc	a0,0x23
    8000035e:	83650513          	addi	a0,a0,-1994 # 80022b90 <__func__.2+0x328>
    80000362:	10f200ef          	jal	80020c70 <printf>
    80000366:	02900513          	li	a0,41
    8000036a:	7971f0ef          	jal	80020300 <putchar>
    8000036e:	4529                	li	a0,10
    80000370:	7911f0ef          	jal	80020300 <putchar>
    80000374:	4401                	li	s0,0
    80000376:	24099073          	csrw	vsscratch,s3
    //check_csr_wrrd("vsepc", CSR_VSEPC, (uint64_t) -1, 0xfffffffffffffffeULL);
    //check_csr_wrrd("vscause", CSR_VSCAUSE, (uint64_t) -1, 0x800000000000001fULL);
    check_csr_wrrd("vstval", CSR_VSTVAL, (uint64_t) -1, 0xffffffffffffffffULL);
    8000037a:	243029f3          	csrr	s3,vstval
    8000037e:	54fd                	li	s1,-1
    80000380:	24349073          	csrw	vstval,s1
    80000384:	24302973          	csrr	s2,vstval
    80000388:	00023617          	auipc	a2,0x23
    8000038c:	85860613          	addi	a2,a2,-1960 # 80022be0 <__func__.2+0x378>
    80000390:	08200593          	li	a1,130
    80000394:	00022517          	auipc	a0,0x22
    80000398:	7d450513          	addi	a0,a0,2004 # 80022b68 <__func__.2+0x300>
    8000039c:	0d5200ef          	jal	80020c70 <printf>
    800003a0:	08990b63          	beq	s2,s1,80000436 <check_csr_field_spec+0x3fa>
    800003a4:	00022597          	auipc	a1,0x22
    800003a8:	79c58593          	addi	a1,a1,1948 # 80022b40 <__func__.2+0x2d8>
    800003ac:	00022517          	auipc	a0,0x22
    800003b0:	7d450513          	addi	a0,a0,2004 # 80022b80 <__func__.2+0x318>
    800003b4:	0bd200ef          	jal	80020c70 <printf>
    800003b8:	00022517          	auipc	a0,0x22
    800003bc:	7d050513          	addi	a0,a0,2000 # 80022b88 <__func__.2+0x320>
    800003c0:	0b1200ef          	jal	80020c70 <printf>
    800003c4:	86a6                	mv	a3,s1
    800003c6:	864a                	mv	a2,s2
    800003c8:	85a6                	mv	a1,s1
    800003ca:	00022517          	auipc	a0,0x22
    800003ce:	7c650513          	addi	a0,a0,1990 # 80022b90 <__func__.2+0x328>
    800003d2:	09f200ef          	jal	80020c70 <printf>
    800003d6:	02900513          	li	a0,41
    800003da:	7271f0ef          	jal	80020300 <putchar>
    800003de:	4529                	li	a0,10
    800003e0:	7211f0ef          	jal	80020300 <putchar>
    800003e4:	24399073          	csrw	vstval,s3
    800003e8:	4401                	li	s0,0
    //check_csr_wrrd("vsatp", CSR_VSATP, (uint64_t) -1, 0x0);
    //check_csr_wrrd("vsatp", CSR_VSATP, (8ULL << 60) | (1ULL << 60)-1, 0x80000000000fffffULL);

    TEST_END();
    800003ea:	00022597          	auipc	a1,0x22
    800003ee:	75658593          	addi	a1,a1,1878 # 80022b40 <__func__.2+0x2d8>
    800003f2:	00022517          	auipc	a0,0x22
    800003f6:	7f650513          	addi	a0,a0,2038 # 80022be8 <__func__.2+0x380>
    800003fa:	077200ef          	jal	80020c70 <printf>
    800003fe:	4511                	li	a0,4
    80000400:	6d8000ef          	jal	80000ad8 <goto_priv>
    80000404:	7a5000ef          	jal	800013a8 <reset_state>
}
    80000408:	70a2                	ld	ra,40(sp)
    8000040a:	8522                	mv	a0,s0
    8000040c:	7402                	ld	s0,32(sp)
    8000040e:	64e2                	ld	s1,24(sp)
    80000410:	6942                	ld	s2,16(sp)
    80000412:	69a2                	ld	s3,8(sp)
    80000414:	6a02                	ld	s4,0(sp)
    80000416:	6145                	addi	sp,sp,48
    80000418:	8082                	ret
    check_csr_wrrd("mtinst", CSR_MTINST, (uint64_t) -1, (uint64_t) -1);
    8000041a:	00022597          	auipc	a1,0x22
    8000041e:	71658593          	addi	a1,a1,1814 # 80022b30 <__func__.2+0x2c8>
    80000422:	00022517          	auipc	a0,0x22
    80000426:	75e50513          	addi	a0,a0,1886 # 80022b80 <__func__.2+0x318>
    8000042a:	047200ef          	jal	80020c70 <printf>
    8000042e:	4529                	li	a0,10
    80000430:	6d11f0ef          	jal	80020300 <putchar>
    80000434:	b339                	j	80000142 <check_csr_field_spec+0x106>
    check_csr_wrrd("vstval", CSR_VSTVAL, (uint64_t) -1, 0xffffffffffffffffULL);
    80000436:	00022597          	auipc	a1,0x22
    8000043a:	6fa58593          	addi	a1,a1,1786 # 80022b30 <__func__.2+0x2c8>
    8000043e:	00022517          	auipc	a0,0x22
    80000442:	74250513          	addi	a0,a0,1858 # 80022b80 <__func__.2+0x318>
    80000446:	02b200ef          	jal	80020c70 <printf>
    8000044a:	4529                	li	a0,10
    8000044c:	6b51f0ef          	jal	80020300 <putchar>
    80000450:	d851                	beqz	s0,800003e4 <check_csr_field_spec+0x3a8>
    80000452:	24399073          	csrw	vstval,s3
    80000456:	4405                	li	s0,1
    TEST_END();
    80000458:	00022597          	auipc	a1,0x22
    8000045c:	6d858593          	addi	a1,a1,1752 # 80022b30 <__func__.2+0x2c8>
    80000460:	bf49                	j	800003f2 <check_csr_field_spec+0x3b6>
    check_csr_wrrd("vsscratch", CSR_VSSCRATCH, (uint64_t) -1, (uint64_t) -1);
    80000462:	00022597          	auipc	a1,0x22
    80000466:	6ce58593          	addi	a1,a1,1742 # 80022b30 <__func__.2+0x2c8>
    8000046a:	00022517          	auipc	a0,0x22
    8000046e:	71650513          	addi	a0,a0,1814 # 80022b80 <__func__.2+0x318>
    80000472:	7fe200ef          	jal	80020c70 <printf>
    80000476:	4529                	li	a0,10
    80000478:	6891f0ef          	jal	80020300 <putchar>
    8000047c:	bded                	j	80000376 <check_csr_field_spec+0x33a>
    check_csr_wrrd("htinst", CSR_HTINST, (uint64_t) -1, (uint64_t) -1);
    8000047e:	00022597          	auipc	a1,0x22
    80000482:	6b258593          	addi	a1,a1,1714 # 80022b30 <__func__.2+0x2c8>
    80000486:	00022517          	auipc	a0,0x22
    8000048a:	6fa50513          	addi	a0,a0,1786 # 80022b80 <__func__.2+0x318>
    8000048e:	7e2200ef          	jal	80020c70 <printf>
    80000492:	4529                	li	a0,10
    80000494:	66d1f0ef          	jal	80020300 <putchar>
    80000498:	b5bd                	j	80000306 <check_csr_field_spec+0x2ca>
    check_csr_wrrd("htval", CSR_HTVAL, (uint64_t) -1, (uint64_t) -1);
    8000049a:	00022597          	auipc	a1,0x22
    8000049e:	69658593          	addi	a1,a1,1686 # 80022b30 <__func__.2+0x2c8>
    800004a2:	00022517          	auipc	a0,0x22
    800004a6:	6de50513          	addi	a0,a0,1758 # 80022b80 <__func__.2+0x318>
    800004aa:	7c6200ef          	jal	80020c70 <printf>
    800004ae:	4529                	li	a0,10
    800004b0:	6511f0ef          	jal	80020300 <putchar>
    800004b4:	b3cd                	j	80000296 <check_csr_field_spec+0x25a>
    check_csr_wrrd("hie", CSR_HIE, (uint64_t) -1, 0x444);
    800004b6:	00022597          	auipc	a1,0x22
    800004ba:	67a58593          	addi	a1,a1,1658 # 80022b30 <__func__.2+0x2c8>
    800004be:	00022517          	auipc	a0,0x22
    800004c2:	6c250513          	addi	a0,a0,1730 # 80022b80 <__func__.2+0x318>
    800004c6:	7aa200ef          	jal	80020c70 <printf>
    800004ca:	4529                	li	a0,10
    800004cc:	6351f0ef          	jal	80020300 <putchar>
    800004d0:	bb99                	j	80000226 <check_csr_field_spec+0x1ea>
    check_csr_wrrd("mtval2", CSR_MTVAL2, (uint64_t) -1, (uint64_t) -1);
    800004d2:	00022597          	auipc	a1,0x22
    800004d6:	65e58593          	addi	a1,a1,1630 # 80022b30 <__func__.2+0x2c8>
    800004da:	00022517          	auipc	a0,0x22
    800004de:	6a650513          	addi	a0,a0,1702 # 80022b80 <__func__.2+0x318>
    800004e2:	78e200ef          	jal	80020c70 <printf>
    800004e6:	4529                	li	a0,10
    800004e8:	6191f0ef          	jal	80020300 <putchar>
    800004ec:	b1d9                	j	800001b2 <check_csr_field_spec+0x176>
    check_csr_wrrd("mideleg", mideleg, (uint64_t)0, 0x444);
    800004ee:	00022597          	auipc	a1,0x22
    800004f2:	64258593          	addi	a1,a1,1602 # 80022b30 <__func__.2+0x2c8>
    800004f6:	00022517          	auipc	a0,0x22
    800004fa:	68a50513          	addi	a0,a0,1674 # 80022b80 <__func__.2+0x318>
    800004fe:	772200ef          	jal	80020c70 <printf>
    80000502:	4529                	li	a0,10
    80000504:	5fd1f0ef          	jal	80020300 <putchar>
    80000508:	4405                	li	s0,1
    8000050a:	b6e1                	j	800000d2 <check_csr_field_spec+0x96>

000000008000050c <check_misa_h>:

bool check_misa_h(){
    8000050c:	1141                	addi	sp,sp,-16

    TEST_START();
    8000050e:	00021597          	auipc	a1,0x21
    80000512:	bb258593          	addi	a1,a1,-1102 # 800210c0 <__func__.0>
    80000516:	00022517          	auipc	a0,0x22
    8000051a:	63a50513          	addi	a0,a0,1594 # 80022b50 <__func__.2+0x2e8>
bool check_misa_h(){
    8000051e:	e406                	sd	ra,8(sp)
    80000520:	e022                	sd	s0,0(sp)
    TEST_START();
    80000522:	74e200ef          	jal	80020c70 <printf>
    80000526:	4529                	li	a0,10
    80000528:	5d91f0ef          	jal	80020300 <putchar>

    uint64_t misa = CSRR(misa);
    8000052c:	301027f3          	csrr	a5,misa
    CSRS(misa, (1ULL << 7));
    80000530:	08000793          	li	a5,128
    80000534:	3017a073          	csrs	misa,a5

    bool hyp_ext_present = CSRR(misa) & (1ULL << 7);
    80000538:	30102473          	csrr	s0,misa
    TEST_ASSERT("check h bit after setting it",  hyp_ext_present, "hypervisor extensions not present");
    8000053c:	00022617          	auipc	a2,0x22
    80000540:	6b460613          	addi	a2,a2,1716 # 80022bf0 <__func__.2+0x388>
    80000544:	08200593          	li	a1,130
    80000548:	00022517          	auipc	a0,0x22
    8000054c:	62050513          	addi	a0,a0,1568 # 80022b68 <__func__.2+0x300>
    bool hyp_ext_present = CSRR(misa) & (1ULL << 7);
    80000550:	08047413          	andi	s0,s0,128
    TEST_ASSERT("check h bit after setting it",  hyp_ext_present, "hypervisor extensions not present");
    80000554:	71c200ef          	jal	80020c70 <printf>
    80000558:	c031                	beqz	s0,8000059c <check_misa_h+0x90>
    8000055a:	00022597          	auipc	a1,0x22
    8000055e:	5d658593          	addi	a1,a1,1494 # 80022b30 <__func__.2+0x2c8>
    80000562:	00022517          	auipc	a0,0x22
    80000566:	61e50513          	addi	a0,a0,1566 # 80022b80 <__func__.2+0x318>
    8000056a:	706200ef          	jal	80020c70 <printf>
    8000056e:	4529                	li	a0,10
    80000570:	5911f0ef          	jal	80020300 <putchar>
    //     VERBOSE("misa h bit is hardwired");
    // }

    // CSRW(misa, misa);

    TEST_END();
    80000574:	00022597          	auipc	a1,0x22
    80000578:	5bc58593          	addi	a1,a1,1468 # 80022b30 <__func__.2+0x2c8>
    8000057c:	00022517          	auipc	a0,0x22
    80000580:	66c50513          	addi	a0,a0,1644 # 80022be8 <__func__.2+0x380>
    80000584:	6ec200ef          	jal	80020c70 <printf>
    80000588:	4511                	li	a0,4
    8000058a:	54e000ef          	jal	80000ad8 <goto_priv>
    8000058e:	61b000ef          	jal	800013a8 <reset_state>
}
    80000592:	60a2                	ld	ra,8(sp)
    80000594:	6402                	ld	s0,0(sp)
    TEST_END();
    80000596:	4505                	li	a0,1
}
    80000598:	0141                	addi	sp,sp,16
    8000059a:	8082                	ret
    TEST_ASSERT("check h bit after setting it",  hyp_ext_present, "hypervisor extensions not present");
    8000059c:	00022597          	auipc	a1,0x22
    800005a0:	5a458593          	addi	a1,a1,1444 # 80022b40 <__func__.2+0x2d8>
    800005a4:	00022517          	auipc	a0,0x22
    800005a8:	5dc50513          	addi	a0,a0,1500 # 80022b80 <__func__.2+0x318>
    800005ac:	6c4200ef          	jal	80020c70 <printf>
    800005b0:	00022517          	auipc	a0,0x22
    800005b4:	5d850513          	addi	a0,a0,1496 # 80022b88 <__func__.2+0x320>
    800005b8:	6b8200ef          	jal	80020c70 <printf>
    800005bc:	00022517          	auipc	a0,0x22
    800005c0:	65450513          	addi	a0,a0,1620 # 80022c10 <__func__.2+0x3a8>
    800005c4:	6ac200ef          	jal	80020c70 <printf>
    800005c8:	02900513          	li	a0,41
    800005cc:	5351f0ef          	jal	80020300 <putchar>
    800005d0:	4529                	li	a0,10
    800005d2:	52f1f0ef          	jal	80020300 <putchar>
}
    800005d6:	60a2                	ld	ra,8(sp)
    800005d8:	6402                	ld	s0,0(sp)
        return false;
    800005da:	4501                	li	a0,0
}
    800005dc:	0141                	addi	sp,sp,16
    800005de:	8082                	ret

00000000800005e0 <hspt_init>:
            PTE_V | PTE_AD | PTE_RWX | (addr >> 2);  
        addr +=  SUPERPAGE_SIZE(0);
    }

    hspt[0][4] =
        PTE_V | (((uintptr_t)&hspt[1][0]) >> 2);
    800005e0:	00043e17          	auipc	t3,0x43
    800005e4:	a20e0e13          	addi	t3,t3,-1504 # 80043000 <hspt+0x1000>
    hspt[1][0] = 
        PTE_V | (((uintptr_t)&hspt[2][0]) >> 2);
    800005e8:	00044697          	auipc	a3,0x44
    800005ec:	a1868693          	addi	a3,a3,-1512 # 80044000 <hspt+0x2000>
        hspt[0][i] = 
    800005f0:	0cf00e93          	li	t4,207
        PTE_V | (((uintptr_t)&hspt[2][0]) >> 2);
    800005f4:	0026d313          	srli	t1,a3,0x2
        PTE_V | (((uintptr_t)&hspt[1][0]) >> 2);
    800005f8:	002e5813          	srli	a6,t3,0x2
        hspt[0][i] = 
    800005fc:	100005b7          	lui	a1,0x10000
    80000600:	20000637          	lui	a2,0x20000
    80000604:	300007b7          	lui	a5,0x30000
    80000608:	00042897          	auipc	a7,0x42
    8000060c:	9f888893          	addi	a7,a7,-1544 # 80042000 <hspt>
        PTE_V | (((uintptr_t)&hspt[1][0]) >> 2);
    80000610:	00186813          	ori	a6,a6,1
        hspt[0][i] = 
    80000614:	9676                	add	a2,a2,t4
        PTE_V | (((uintptr_t)&hspt[2][0]) >> 2);
    80000616:	00136313          	ori	t1,t1,1
        hspt[0][i] = 
    8000061a:	95f6                	add	a1,a1,t4
    8000061c:	97f6                	add	a5,a5,t4


    addr = TEST_PPAGE_BASE;
    8000061e:	4745                	li	a4,17
    for(int i = 0; i < TEST_PAGE_MAX; i++){
    80000620:	44100513          	li	a0,1089
    hspt[0][4] =
    80000624:	0308b023          	sd	a6,32(a7)
        hspt[0][i] = 
    80000628:	00c8b823          	sd	a2,16(a7)
    hspt[1][0] = 
    8000062c:	006e3023          	sd	t1,0(t3)
        hspt[0][i] = 
    80000630:	01d8b023          	sd	t4,0(a7)
    80000634:	00b8b423          	sd	a1,8(a7)
    80000638:	00f8bc23          	sd	a5,24(a7)
    addr = TEST_PPAGE_BASE;
    8000063c:	076e                	slli	a4,a4,0x1b
    for(int i = 0; i < TEST_PAGE_MAX; i++){
    8000063e:	0556                	slli	a0,a0,0x15
    80000640:	0002a617          	auipc	a2,0x2a
    80000644:	e8860613          	addi	a2,a2,-376 # 8002a4c8 <test_page_perm_table>
        hspt[2][i] = (addr >> 2) | PTE_AD |
            test_page_perm_table[i].vs;  
        addr += PAGE_SIZE;
    80000648:	6805                	lui	a6,0x1
        hspt[2][i] = (addr >> 2) | PTE_AD |
    8000064a:	620c                	ld	a1,0(a2)
    8000064c:	00275793          	srli	a5,a4,0x2
        addr += PAGE_SIZE;
    80000650:	9742                	add	a4,a4,a6
        hspt[2][i] = (addr >> 2) | PTE_AD |
    80000652:	8fcd                	or	a5,a5,a1
    80000654:	0c07e793          	ori	a5,a5,192
    80000658:	e29c                	sd	a5,0(a3)
    for(int i = 0; i < TEST_PAGE_MAX; i++){
    8000065a:	0641                	addi	a2,a2,16
    8000065c:	06a1                	addi	a3,a3,8
    8000065e:	fea716e3          	bne	a4,a0,8000064a <hspt_init+0x6a>
    //     hspt[2][i] = 
    //         PTE_V | PTE_AD | PTE_RWX | (addr >> 2);  
    //     addr +=  PAGE_SIZE;
    // }

    if(curr_priv == PRIV_HS || curr_priv == PRIV_M){
    80000662:	0002c797          	auipc	a5,0x2c
    80000666:	e6a7a783          	lw	a5,-406(a5) # 8002c4cc <curr_priv>
    8000066a:	4705                	li	a4,1
    8000066c:	37f5                	addiw	a5,a5,-3
    8000066e:	00f76a63          	bltu	a4,a5,80000682 <hspt_init+0xa2>
        uintptr_t satp = (((uintptr_t)hspt) >> 12) | (0x8ULL << 60);
    80000672:	577d                	li	a4,-1
    80000674:	00c8d793          	srli	a5,a7,0xc
    80000678:	177e                	slli	a4,a4,0x3f
    8000067a:	8fd9                	or	a5,a5,a4
        CSRW(satp, satp);
    8000067c:	18079073          	csrw	satp,a5
    } else {
        ERROR("trying to set hs level satp from lower privilege");
    80000680:	8082                	ret
void hspt_init(){
    80000682:	1141                	addi	sp,sp,-16
        ERROR("trying to set hs level satp from lower privilege");
    80000684:	00022517          	auipc	a0,0x22
    80000688:	60c50513          	addi	a0,a0,1548 # 80022c90 <__func__.2+0x428>
void hspt_init(){
    8000068c:	e406                	sd	ra,8(sp)
        ERROR("trying to set hs level satp from lower privilege");
    8000068e:	5e2200ef          	jal	80020c70 <printf>
    80000692:	0c000613          	li	a2,192
    80000696:	00021597          	auipc	a1,0x21
    8000069a:	a3a58593          	addi	a1,a1,-1478 # 800210d0 <__func__.2>
    8000069e:	00022517          	auipc	a0,0x22
    800006a2:	63a50513          	addi	a0,a0,1594 # 80022cd8 <__func__.2+0x470>
    800006a6:	5ca200ef          	jal	80020c70 <printf>
    800006aa:	4501                	li	a0,0
    800006ac:	4d4200ef          	jal	80020b80 <exit>

00000000800006b0 <vspt_init>:
            PTE_V | PTE_AD | PTE_RWX | (addr >> 2);  
        addr +=  SUPERPAGE_SIZE(0);
    }

    vspt[0][MEM_BASE/SUPERPAGE_SIZE(0)] = 
        PTE_V | (((uintptr_t)&vspt[1][0]) >> 2);
    800006b0:	0003d717          	auipc	a4,0x3d
    800006b4:	95070713          	addi	a4,a4,-1712 # 8003d000 <vspt+0x1000>
void vspt_init(){
    800006b8:	1141                	addi	sp,sp,-16
        vspt[0][i] = 
    800006ba:	0cf00893          	li	a7,207
        PTE_V | (((uintptr_t)&vspt[1][0]) >> 2);
    800006be:	00275813          	srli	a6,a4,0x2
        vspt[0][i] = 
    800006c2:	100006b7          	lui	a3,0x10000
    800006c6:	300007b7          	lui	a5,0x30000
void vspt_init(){
    800006ca:	e022                	sd	s0,0(sp)
    800006cc:	e406                	sd	ra,8(sp)
        vspt[0][i] = 
    800006ce:	0003c417          	auipc	s0,0x3c
    800006d2:	93240413          	addi	s0,s0,-1742 # 8003c000 <vspt>
    800006d6:	96c6                	add	a3,a3,a7
    800006d8:	97c6                	add	a5,a5,a7
        PTE_V | (((uintptr_t)&vspt[1][0]) >> 2);
    800006da:	00186813          	ori	a6,a6,1

    addr = MEM_BASE;
    for(int i = 0; i < 512; i++) vspt[1][i] = 0;
    800006de:	6605                	lui	a2,0x1
    800006e0:	853a                	mv	a0,a4
    800006e2:	4581                	li	a1,0
        vspt[0][i] = 
    800006e4:	e414                	sd	a3,8(s0)
    800006e6:	ec1c                	sd	a5,24(s0)
    vspt[0][MEM_BASE/SUPERPAGE_SIZE(0)] = 
    800006e8:	01043823          	sd	a6,16(s0)
        vspt[0][i] = 
    800006ec:	01143023          	sd	a7,0(s0)
    for(int i = 0; i < 512; i++) vspt[1][i] = 0;
    800006f0:	6d8200ef          	jal	80020dc8 <memset>
    addr = MEM_BASE;
    800006f4:	4785                	li	a5,1
    for(int i = 0; i <  MEM_SIZE/SUPERPAGE_SIZE(1)/2; i++){
    800006f6:	46c5                	li	a3,17
    addr = MEM_BASE;
    800006f8:	07fe                	slli	a5,a5,0x1f
    for(int i = 0; i <  MEM_SIZE/SUPERPAGE_SIZE(1)/2; i++){
    800006fa:	06ee                	slli	a3,a3,0x1b
        vspt[1][i] = 
           PTE_V | PTE_AD | PTE_RWX | (addr >> 2);  
        addr +=  SUPERPAGE_SIZE(1);
    800006fc:	00200637          	lui	a2,0x200
           PTE_V | PTE_AD | PTE_RWX | (addr >> 2);  
    80000700:	0027d713          	srli	a4,a5,0x2
    80000704:	0cf76713          	ori	a4,a4,207
        vspt[1][i] = 
    80000708:	e118                	sd	a4,0(a0)
        addr +=  SUPERPAGE_SIZE(1);
    8000070a:	97b2                	add	a5,a5,a2
    for(int i = 0; i <  MEM_SIZE/SUPERPAGE_SIZE(1)/2; i++){
    8000070c:	0521                	addi	a0,a0,8
    8000070e:	fed799e3          	bne	a5,a3,80000700 <vspt_init+0x50>
    }

    vspt[0][4] =
        PTE_V | (((uintptr_t)&vspt[2][0]) >> 2);
    80000712:	0003e897          	auipc	a7,0x3e
    80000716:	8ee88893          	addi	a7,a7,-1810 # 8003e000 <vspt+0x2000>

    // vspt[0][5] =
    //     PTE_V | PTE_U | PTE_AD | (((uintptr_t)&vspt[2][0]) >> 2);

    vspt[2][0] = 
        PTE_V | (((uintptr_t)&vspt[3][0]) >> 2);
    8000071a:	0003f697          	auipc	a3,0x3f
    8000071e:	8e668693          	addi	a3,a3,-1818 # 8003f000 <vspt+0x3000>
    80000722:	0026d613          	srli	a2,a3,0x2
        PTE_V | (((uintptr_t)&vspt[2][0]) >> 2);
    80000726:	0028d713          	srli	a4,a7,0x2
        PTE_V | (((uintptr_t)&vspt[3][0]) >> 2);
    8000072a:	00166613          	ori	a2,a2,1
        PTE_V | (((uintptr_t)&vspt[2][0]) >> 2);
    8000072e:	00176713          	ori	a4,a4,1

    addr = TEST_VPAGE_BASE;
    80000732:	4785                	li	a5,1
    for(int i = 0; i < TEST_PAGE_MAX; i++){
    80000734:	00801537          	lui	a0,0x801
    vspt[2][0] = 
    80000738:	00c8b023          	sd	a2,0(a7)
    vspt[0][4] =
    8000073c:	f018                	sd	a4,32(s0)
    addr = TEST_VPAGE_BASE;
    8000073e:	1782                	slli	a5,a5,0x20
    for(int i = 0; i < TEST_PAGE_MAX; i++){
    80000740:	0526                	slli	a0,a0,0x9
    80000742:	0002a617          	auipc	a2,0x2a
    80000746:	d8660613          	addi	a2,a2,-634 # 8002a4c8 <test_page_perm_table>
        vspt[3][i] = (addr >> 2) | PTE_AD |
            test_page_perm_table[i].vs;  
        addr +=  PAGE_SIZE;
    8000074a:	6805                	lui	a6,0x1
        vspt[3][i] = (addr >> 2) | PTE_AD |
    8000074c:	620c                	ld	a1,0(a2)
    8000074e:	0027d713          	srli	a4,a5,0x2
        addr +=  PAGE_SIZE;
    80000752:	97c2                	add	a5,a5,a6
        vspt[3][i] = (addr >> 2) | PTE_AD |
    80000754:	8f4d                	or	a4,a4,a1
    80000756:	0c076713          	ori	a4,a4,192
    8000075a:	e298                	sd	a4,0(a3)
    for(int i = 0; i < TEST_PAGE_MAX; i++){
    8000075c:	0641                	addi	a2,a2,16
    8000075e:	06a1                	addi	a3,a3,8
    80000760:	fea796e3          	bne	a5,a0,8000074c <vspt_init+0x9c>
    }

    vspt[2][1] = 
        PTE_V | (((uintptr_t)&vspt[4][0]) >> 2);
    80000764:	00040697          	auipc	a3,0x40
    80000768:	89c68693          	addi	a3,a3,-1892 # 80040000 <vspt+0x4000>
    8000076c:	0026d713          	srli	a4,a3,0x2
    80000770:	00176713          	ori	a4,a4,1

    addr = 4 * SUPERPAGE_SIZE(0) + SUPERPAGE_SIZE(1);
    for(int i = 0; i < 512; i++){
    80000774:	40100613          	li	a2,1025
    vspt[2][1] = 
    80000778:	00e8b423          	sd	a4,8(a7)
    for(int i = 0; i < 512; i++){
    8000077c:	065a                	slli	a2,a2,0x16
        vspt[4][i] = (addr >> 2) | 
            PTE_V | PTE_AD | PTE_RWX; 
        addr +=  PAGE_SIZE;
    8000077e:	6585                	lui	a1,0x1
        vspt[4][i] = (addr >> 2) | 
    80000780:	0027d713          	srli	a4,a5,0x2
            PTE_V | PTE_AD | PTE_RWX; 
    80000784:	0cf76713          	ori	a4,a4,207
        vspt[4][i] = (addr >> 2) | 
    80000788:	e298                	sd	a4,0(a3)
        addr +=  PAGE_SIZE;
    8000078a:	97ae                	add	a5,a5,a1
    for(int i = 0; i < 512; i++){
    8000078c:	06a1                	addi	a3,a3,8
    8000078e:	fec799e3          	bne	a5,a2,80000780 <vspt_init+0xd0>
    }  

    vspt[0][5] = 
        PTE_V | (((uintptr_t)&vspt[5][0]) >> 2);
    80000792:	00041697          	auipc	a3,0x41
    80000796:	86e68693          	addi	a3,a3,-1938 # 80041000 <vspt+0x5000>
    8000079a:	0026d713          	srli	a4,a3,0x2
    8000079e:	00176713          	ori	a4,a4,1
    
    addr = 5 * SUPERPAGE_SIZE(0);
    800007a2:	4795                	li	a5,5
    for(int i = 0; i < 512; i++){
    800007a4:	460d                	li	a2,3
    vspt[0][5] = 
    800007a6:	f418                	sd	a4,40(s0)
    addr = 5 * SUPERPAGE_SIZE(0);
    800007a8:	07fa                	slli	a5,a5,0x1e
    for(int i = 0; i < 512; i++){
    800007aa:	067e                	slli	a2,a2,0x1f
        vspt[5][i] = (addr >> 2) |
             PTE_V | PTE_AD | PTE_RWX;  
        addr +=  SUPERPAGE_SIZE(1);
    800007ac:	002005b7          	lui	a1,0x200
        vspt[5][i] = (addr >> 2) |
    800007b0:	0027d713          	srli	a4,a5,0x2
             PTE_V | PTE_AD | PTE_RWX;  
    800007b4:	0cf76713          	ori	a4,a4,207
        vspt[5][i] = (addr >> 2) |
    800007b8:	e298                	sd	a4,0(a3)
        addr +=  SUPERPAGE_SIZE(1);
    800007ba:	97ae                	add	a5,a5,a1
    for(int i = 0; i < 512; i++){
    800007bc:	06a1                	addi	a3,a3,8
    800007be:	fec799e3          	bne	a5,a2,800007b0 <vspt_init+0x100>
    }  

    uintptr_t satp = (((uintptr_t)vspt) >> 12) | (0x8ULL << 60);
    if(curr_priv == PRIV_VS){
    800007c2:	0002c717          	auipc	a4,0x2c
    800007c6:	d0a72703          	lw	a4,-758(a4) # 8002c4cc <curr_priv>
    uintptr_t satp = (((uintptr_t)vspt) >> 12) | (0x8ULL << 60);
    800007ca:	57fd                	li	a5,-1
    800007cc:	8031                	srli	s0,s0,0xc
    800007ce:	17fe                	slli	a5,a5,0x3f
    if(curr_priv == PRIV_VS){
    800007d0:	4689                	li	a3,2
    uintptr_t satp = (((uintptr_t)vspt) >> 12) | (0x8ULL << 60);
    800007d2:	8c5d                	or	s0,s0,a5
    if(curr_priv == PRIV_VS){
    800007d4:	04d70163          	beq	a4,a3,80000816 <vspt_init+0x166>
        CSRW(satp, satp);
    } else if(curr_priv == PRIV_HS || curr_priv == PRIV_M){
    800007d8:	3775                	addiw	a4,a4,-3
    800007da:	4785                	li	a5,1
    800007dc:	00e7e863          	bltu	a5,a4,800007ec <vspt_init+0x13c>
        CSRW(CSR_VSATP, satp);
    800007e0:	28041073          	csrw	vsatp,s0
    } else {
        ERROR("");
    }
}
    800007e4:	60a2                	ld	ra,8(sp)
    800007e6:	6402                	ld	s0,0(sp)
    800007e8:	0141                	addi	sp,sp,16
    800007ea:	8082                	ret
        ERROR("");
    800007ec:	00022517          	auipc	a0,0x22
    800007f0:	4fc50513          	addi	a0,a0,1276 # 80022ce8 <__func__.2+0x480>
    800007f4:	47c200ef          	jal	80020c70 <printf>
    800007f8:	10600613          	li	a2,262
    800007fc:	00021597          	auipc	a1,0x21
    80000800:	8e458593          	addi	a1,a1,-1820 # 800210e0 <__func__.1>
    80000804:	00022517          	auipc	a0,0x22
    80000808:	4d450513          	addi	a0,a0,1236 # 80022cd8 <__func__.2+0x470>
    8000080c:	464200ef          	jal	80020c70 <printf>
    80000810:	4501                	li	a0,0
    80000812:	36e200ef          	jal	80020b80 <exit>
        CSRW(satp, satp);
    80000816:	18041073          	csrw	satp,s0
}
    8000081a:	60a2                	ld	ra,8(sp)
    8000081c:	6402                	ld	s0,0(sp)
    8000081e:	0141                	addi	sp,sp,16
    80000820:	8082                	ret

0000000080000822 <hpt_init>:

pte_t hpt_root[PAGE_SIZE*4/sizeof(pte_t)] __attribute__((aligned(PAGE_SIZE*4)));
pte_t hpt[5][PAGE_SIZE/sizeof(pte_t)] __attribute__((aligned(PAGE_SIZE)));

void hpt_init(){
    80000822:	1141                	addi	sp,sp,-16
    80000824:	e022                	sd	s0,0(sp)

    for(int i = 0; i < 2048; i++){
        hpt_root[i] = 0;
    80000826:	00037417          	auipc	s0,0x37
    8000082a:	7da40413          	addi	s0,s0,2010 # 80038000 <hpt_root>
    8000082e:	6611                	lui	a2,0x4
    80000830:	4581                	li	a1,0
    80000832:	8522                	mv	a0,s0
void hpt_init(){
    80000834:	e406                	sd	ra,8(sp)
        hpt_root[i] = 0;
    80000836:	592200ef          	jal	80020dc8 <memset>
            PTE_V | PTE_U | PTE_AD | PTE_RWX | (addr >> 2);  
        addr +=  SUPERPAGE_SIZE(0);
    }

    hpt_root[MEM_BASE/SUPERPAGE_SIZE(0)] =
        PTE_V | (((uintptr_t)&hpt[0][0]) >> 2);
    8000083a:	0002f717          	auipc	a4,0x2f
    8000083e:	7c670713          	addi	a4,a4,1990 # 80030000 <hpt>
        hpt_root[i] = 
    80000842:	0df00893          	li	a7,223
        PTE_V | (((uintptr_t)&hpt[0][0]) >> 2);
    80000846:	00275793          	srli	a5,a4,0x2
        hpt_root[i] = 
    8000084a:	10000837          	lui	a6,0x10000
    8000084e:	300006b7          	lui	a3,0x30000
    80000852:	96c6                	add	a3,a3,a7
        PTE_V | (((uintptr_t)&hpt[0][0]) >> 2);
    80000854:	0017e793          	ori	a5,a5,1
        hpt_root[i] = 
    80000858:	9846                	add	a6,a6,a7

    addr = MEM_BASE;
    for(int i = 0; i < 512; i++) hpt[0][i] = 0;
    8000085a:	6605                	lui	a2,0x1
    8000085c:	853a                	mv	a0,a4
    8000085e:	4581                	li	a1,0
        hpt_root[i] = 
    80000860:	ec14                	sd	a3,24(s0)
    hpt_root[MEM_BASE/SUPERPAGE_SIZE(0)] =
    80000862:	e81c                	sd	a5,16(s0)
        hpt_root[i] = 
    80000864:	01143023          	sd	a7,0(s0)
    80000868:	01043423          	sd	a6,8(s0)
    for(int i = 0; i < 512; i++) hpt[0][i] = 0;
    8000086c:	55c200ef          	jal	80020dc8 <memset>
    addr = MEM_BASE;
    80000870:	4785                	li	a5,1
    for(int i = 0; i < MEM_SIZE/SUPERPAGE_SIZE(1)/2; i++){
    80000872:	46c5                	li	a3,17
    addr = MEM_BASE;
    80000874:	07fe                	slli	a5,a5,0x1f
    for(int i = 0; i < MEM_SIZE/SUPERPAGE_SIZE(1)/2; i++){
    80000876:	06ee                	slli	a3,a3,0x1b
        hpt[0][i] = 
            PTE_V | PTE_U | PTE_AD | PTE_RWX | (addr >> 2);  
        addr +=  SUPERPAGE_SIZE(1);
    80000878:	00200637          	lui	a2,0x200
            PTE_V | PTE_U | PTE_AD | PTE_RWX | (addr >> 2);  
    8000087c:	0027d713          	srli	a4,a5,0x2
    80000880:	0df76713          	ori	a4,a4,223
        hpt[0][i] = 
    80000884:	e118                	sd	a4,0(a0)
        addr +=  SUPERPAGE_SIZE(1);
    80000886:	97b2                	add	a5,a5,a2
    for(int i = 0; i < MEM_SIZE/SUPERPAGE_SIZE(1)/2; i++){
    80000888:	0521                	addi	a0,a0,8
    8000088a:	fed799e3          	bne	a5,a3,8000087c <hpt_init+0x5a>
    }    

    hpt_root[4] =
        PTE_V | (((uintptr_t)&hpt[1][0]) >> 2);
    8000088e:	00030317          	auipc	t1,0x30
    80000892:	77230313          	addi	t1,t1,1906 # 80031000 <hpt+0x1000>

    hpt_root[2047] =
        PTE_V | (((uintptr_t)&hpt[1][0]) >> 2);

    hpt[1][0] = 
        PTE_V | (((uintptr_t)&hpt[2][0]) >> 2);
    80000896:	00031617          	auipc	a2,0x31
    8000089a:	76a60613          	addi	a2,a2,1898 # 80032000 <hpt+0x2000>
        PTE_V | (((uintptr_t)&hpt[1][0]) >> 2);
    8000089e:	00235693          	srli	a3,t1,0x2
    800008a2:	0016e693          	ori	a3,a3,1
        PTE_V | (((uintptr_t)&hpt[2][0]) >> 2);
    800008a6:	00265713          	srli	a4,a2,0x2
    800008aa:	00176713          	ori	a4,a4,1
    hpt_root[2047] =
    800008ae:	0003b597          	auipc	a1,0x3b
    800008b2:	74d5b523          	sd	a3,1866(a1) # 8003bff8 <hpt_root+0x3ff8>

    hpt[1][511] = 
        PTE_V | (((uintptr_t)&hpt[2][0]) >> 2);

    addr = TEST_PPAGE_BASE;
    for(int i = 0; i < TEST_PAGE_MAX; i++){
    800008b6:	44100813          	li	a6,1089
    hpt_root[4] =
    800008ba:	f014                	sd	a3,32(s0)
    hpt[1][0] = 
    800008bc:	00e33023          	sd	a4,0(t1)
    hpt[1][511] = 
    800008c0:	fee63c23          	sd	a4,-8(a2)
    for(int i = 0; i < TEST_PAGE_MAX; i++){
    800008c4:	0856                	slli	a6,a6,0x15
    800008c6:	0002a597          	auipc	a1,0x2a
    800008ca:	c0a58593          	addi	a1,a1,-1014 # 8002a4d0 <test_page_perm_table+0x8>
    addr = TEST_PPAGE_BASE;
    800008ce:	86be                	mv	a3,a5
        hpt[2][i] = (addr >> 2) | PTE_AD |
            test_page_perm_table[i].h;  
        addr +=  PAGE_SIZE;
    800008d0:	6885                	lui	a7,0x1
        hpt[2][i] = (addr >> 2) | PTE_AD |
    800008d2:	6188                	ld	a0,0(a1)
    800008d4:	0026d713          	srli	a4,a3,0x2
        addr +=  PAGE_SIZE;
    800008d8:	96c6                	add	a3,a3,a7
        hpt[2][i] = (addr >> 2) | PTE_AD |
    800008da:	8f49                	or	a4,a4,a0
    800008dc:	0c076713          	ori	a4,a4,192
    800008e0:	e218                	sd	a4,0(a2)
    for(int i = 0; i < TEST_PAGE_MAX; i++){
    800008e2:	05c1                	addi	a1,a1,16
    800008e4:	0621                	addi	a2,a2,8
    800008e6:	ff0696e3          	bne	a3,a6,800008d2 <hpt_init+0xb0>
    }

    hpt[1][1] = 
        PTE_V | (((uintptr_t)&hpt[3][0]) >> 2);
    800008ea:	00032617          	auipc	a2,0x32
    800008ee:	71660613          	addi	a2,a2,1814 # 80033000 <hpt+0x3000>
    800008f2:	00265713          	srli	a4,a2,0x2
    800008f6:	00176713          	ori	a4,a4,1
    addr = TEST_PPAGE_BASE;
    for(int i = 0; i < 512; i++){
    800008fa:	44100593          	li	a1,1089
    hpt[1][1] = 
    800008fe:	00e33423          	sd	a4,8(t1)
    for(int i = 0; i < 512; i++){
    80000902:	05d6                	slli	a1,a1,0x15
    addr = TEST_PPAGE_BASE;
    80000904:	873e                	mv	a4,a5
        hpt[3][i] = (addr >> 2) | 
            PTE_V | PTE_U | PTE_AD | PTE_RWX; 
        addr +=  PAGE_SIZE;
    80000906:	6505                	lui	a0,0x1
        hpt[3][i] = (addr >> 2) | 
    80000908:	00275693          	srli	a3,a4,0x2
            PTE_V | PTE_U | PTE_AD | PTE_RWX; 
    8000090c:	0df6e693          	ori	a3,a3,223
        hpt[3][i] = (addr >> 2) | 
    80000910:	e214                	sd	a3,0(a2)
        addr +=  PAGE_SIZE;
    80000912:	972a                	add	a4,a4,a0
    for(int i = 0; i < 512; i++){
    80000914:	0621                	addi	a2,a2,8
    80000916:	feb719e3          	bne	a4,a1,80000908 <hpt_init+0xe6>
    }  

    hpt_root[5] =
        PTE_V | (((uintptr_t)&hpt[4][0]) >> 2);
    8000091a:	00033697          	auipc	a3,0x33
    8000091e:	6e668693          	addi	a3,a3,1766 # 80034000 <hpt+0x4000>
    80000922:	0026d713          	srli	a4,a3,0x2
    80000926:	00176713          	ori	a4,a4,1
    addr = TEST_PPAGE_BASE;
    for(int i = 0; i < 512; i++){
    8000092a:	4665                	li	a2,25
    hpt_root[5] =
    8000092c:	f418                	sd	a4,40(s0)
    for(int i = 0; i < 512; i++){
    8000092e:	066e                	slli	a2,a2,0x1b
        hpt[4][i] = (addr >> 2) |
             PTE_V | PTE_U | PTE_AD | PTE_RWX;  
        addr +=  SUPERPAGE_SIZE(1);
    80000930:	002005b7          	lui	a1,0x200
        hpt[4][i] = (addr >> 2) |
    80000934:	0027d713          	srli	a4,a5,0x2
             PTE_V | PTE_U | PTE_AD | PTE_RWX;  
    80000938:	0df76713          	ori	a4,a4,223
        hpt[4][i] = (addr >> 2) |
    8000093c:	e298                	sd	a4,0(a3)
        addr +=  SUPERPAGE_SIZE(1);
    8000093e:	97ae                	add	a5,a5,a1
    for(int i = 0; i < 512; i++){
    80000940:	06a1                	addi	a3,a3,8
    80000942:	fec799e3          	bne	a5,a2,80000934 <hpt_init+0x112>
    }  

    if(curr_priv == PRIV_HS || curr_priv == PRIV_M){
    80000946:	0002c797          	auipc	a5,0x2c
    8000094a:	b867a783          	lw	a5,-1146(a5) # 8002c4cc <curr_priv>
    8000094e:	4705                	li	a4,1
    80000950:	37f5                	addiw	a5,a5,-3
    80000952:	00f76d63          	bltu	a4,a5,8000096c <hpt_init+0x14a>
        uintptr_t hsatp = (((uintptr_t)hpt_root) >> 12) | (0x8ULL << 60);
    80000956:	577d                	li	a4,-1
    80000958:	00c45793          	srli	a5,s0,0xc
    8000095c:	177e                	slli	a4,a4,0x3f
    8000095e:	8fd9                	or	a5,a5,a4
        CSRW(CSR_HGATP, hsatp);
    80000960:	68079073          	csrw	hgatp,a5
    } else {
        ERROR("trying to set hs hgatp from lower privilege");
    }
}
    80000964:	60a2                	ld	ra,8(sp)
    80000966:	6402                	ld	s0,0(sp)
    80000968:	0141                	addi	sp,sp,16
    8000096a:	8082                	ret
        ERROR("trying to set hs hgatp from lower privilege");
    8000096c:	00022517          	auipc	a0,0x22
    80000970:	39450513          	addi	a0,a0,916 # 80022d00 <__func__.2+0x498>
    80000974:	2fc200ef          	jal	80020c70 <printf>
    80000978:	14e00613          	li	a2,334
    8000097c:	00020597          	auipc	a1,0x20
    80000980:	77458593          	addi	a1,a1,1908 # 800210f0 <__func__.0>
    80000984:	00022517          	auipc	a0,0x22
    80000988:	35450513          	addi	a0,a0,852 # 80022cd8 <__func__.2+0x470>
    8000098c:	2e4200ef          	jal	80020c70 <printf>
    80000990:	4501                	li	a0,0
    80000992:	1ee200ef          	jal	80020b80 <exit>

0000000080000996 <hspt_switch>:

void hspt_switch(){
    pte_t temp = hspt[2][SWITCH1];
    hspt[2][SWITCH1] = hspt[2][SWITCH2];
    80000996:	00043797          	auipc	a5,0x43
    8000099a:	66a78793          	addi	a5,a5,1642 # 80044000 <hspt+0x2000>
    8000099e:	3607b683          	ld	a3,864(a5)
    800009a2:	3687b703          	ld	a4,872(a5)
    800009a6:	36d7b423          	sd	a3,872(a5)
    800009aa:	36e7b023          	sd	a4,864(a5)
    hspt[2][SWITCH2] = temp;
}
    800009ae:	8082                	ret

00000000800009b0 <vspt_switch>:

void vspt_switch(){
    pte_t temp = vspt[3][SWITCH1];
    vspt[3][SWITCH1] = vspt[3][SWITCH2];
    800009b0:	0003e797          	auipc	a5,0x3e
    800009b4:	65078793          	addi	a5,a5,1616 # 8003f000 <vspt+0x3000>
    800009b8:	3607b683          	ld	a3,864(a5)
    800009bc:	3687b703          	ld	a4,872(a5)
    800009c0:	36d7b423          	sd	a3,872(a5)
    800009c4:	36e7b023          	sd	a4,864(a5)
    vspt[3][SWITCH2] = temp;
}
    800009c8:	8082                	ret

00000000800009ca <hpt_switch>:

void hpt_switch(){
    pte_t temp = hpt[2][SWITCH1];
    hpt[2][SWITCH1] = hpt[2][SWITCH2];
    800009ca:	00031797          	auipc	a5,0x31
    800009ce:	63678793          	addi	a5,a5,1590 # 80032000 <hpt+0x2000>
    800009d2:	3607b683          	ld	a3,864(a5)
    800009d6:	3687b703          	ld	a4,872(a5)
    800009da:	36d7b423          	sd	a3,872(a5)
    800009de:	36e7b023          	sd	a4,864(a5)
    hpt[2][SWITCH2] = temp;
}
    800009e2:	8082                	ret

00000000800009e4 <ecall>:

uint64_t ecall_args[2];

uint64_t ecall(uint64_t a0, uint64_t a1)
{
    ecall_args[0] = a0;
    800009e4:	00044797          	auipc	a5,0x44
    800009e8:	61c78793          	addi	a5,a5,1564 # 80045000 <ecall_args>
    800009ec:	e388                	sd	a0,0(a5)
    ecall_args[1] = a1;
    800009ee:	e78c                	sd	a1,8(a5)

    asm volatile("ecall" ::: "memory");
    800009f0:	00000073          	ecall
    return ecall_args[0];

}
    800009f4:	6388                	ld	a0,0(a5)
    800009f6:	8082                	ret

00000000800009f8 <set_prev_priv>:
    return priv == PRIV_VU || priv == PRIV_HU;
}

void set_prev_priv(int priv){

    switch(curr_priv){
    800009f8:	0002c797          	auipc	a5,0x2c
    800009fc:	ad47a783          	lw	a5,-1324(a5) # 8002c4cc <curr_priv>
    80000a00:	470d                	li	a4,3
    80000a02:	06e78963          	beq	a5,a4,80000a74 <set_prev_priv+0x7c>
    80000a06:	4711                	li	a4,4
    80000a08:	04e78163          	beq	a5,a4,80000a4a <set_prev_priv+0x52>
    80000a0c:	4709                	li	a4,2
    80000a0e:	08e78863          	beq	a5,a4,80000a9e <set_prev_priv+0xa6>
void set_prev_priv(int priv){
    80000a12:	1141                	addi	sp,sp,-16
        case PRIV_VS: {
            uint64_t temp = CSRR(sstatus);
            CSRC(sstatus, 0x1ULL << 8);
        }
        break;
        default: ERROR("unknown current priv %d (%s)\n", priv, __func__);
    80000a14:	85aa                	mv	a1,a0
    80000a16:	00020617          	auipc	a2,0x20
    80000a1a:	6ea60613          	addi	a2,a2,1770 # 80021100 <__func__.6>
    80000a1e:	00022517          	auipc	a0,0x22
    80000a22:	32250513          	addi	a0,a0,802 # 80022d40 <__func__.2+0x4d8>
void set_prev_priv(int priv){
    80000a26:	e406                	sd	ra,8(sp)
        default: ERROR("unknown current priv %d (%s)\n", priv, __func__);
    80000a28:	248200ef          	jal	80020c70 <printf>
    80000a2c:	03c00613          	li	a2,60
    80000a30:	00020597          	auipc	a1,0x20
    80000a34:	6d058593          	addi	a1,a1,1744 # 80021100 <__func__.6>
    80000a38:	00022517          	auipc	a0,0x22
    80000a3c:	2a050513          	addi	a0,a0,672 # 80022cd8 <__func__.2+0x470>
    80000a40:	230200ef          	jal	80020c70 <printf>
    80000a44:	4501                	li	a0,0
    80000a46:	13a200ef          	jal	80020b80 <exit>
            uint64_t temp = CSRR(mstatus);
    80000a4a:	30002773          	csrr	a4,mstatus
            temp &= ~((3ULL << 11) | (1ULL << 39));
    80000a4e:	fc0007b7          	lui	a5,0xfc000
    80000a52:	17fd                	addi	a5,a5,-1 # fffffffffbffffff <__stack_top+0xffffffff7bd00fff>
    80000a54:	07b6                	slli	a5,a5,0xd
    80000a56:	7ff78793          	addi	a5,a5,2047
            if(priv == PRIV_VS || priv == PRIV_HS) temp |= (1ULL << 11);    //mpp   
    80000a5a:	ffe5069b          	addiw	a3,a0,-2
    80000a5e:	4605                	li	a2,1
            temp &= ~((3ULL << 11) | (1ULL << 39));
    80000a60:	8ff9                	and	a5,a5,a4
            if(priv == PRIV_VS || priv == PRIV_HS) temp |= (1ULL << 11);    //mpp   
    80000a62:	06d67363          	bgeu	a2,a3,80000ac8 <set_prev_priv+0xd0>
            if(priv == PRIV_VU || priv == PRIV_VS) temp |= (1ULL << 39);     //mpv
    80000a66:	e501                	bnez	a0,80000a6e <set_prev_priv+0x76>
    80000a68:	4705                	li	a4,1
    80000a6a:	171e                	slli	a4,a4,0x27
    80000a6c:	8fd9                	or	a5,a5,a4
            CSRW(mstatus, temp);
    80000a6e:	30079073          	csrw	mstatus,a5
        break;
    80000a72:	8082                	ret
            uint64_t temp = CSRR(sstatus);
    80000a74:	100027f3          	csrr	a5,sstatus
            if(priv == PRIV_HS || priv == PRIV_VS) temp |= (0x1ULL << 8);   //spp
    80000a78:	4705                	li	a4,1
    80000a7a:	ffe5069b          	addiw	a3,a0,-2
    80000a7e:	02d77763          	bgeu	a4,a3,80000aac <set_prev_priv+0xb4>
            temp &= ~(0x1ULL << 8);
    80000a82:	eff7f793          	andi	a5,a5,-257
            CSRW(sstatus, temp);
    80000a86:	10079073          	csrw	sstatus,a5
            temp = CSRR(CSR_HSTATUS);   //p101
    80000a8a:	600027f3          	csrr	a5,hstatus
            temp &= ~(0x3ULL << 7);
    80000a8e:	e7f7f793          	andi	a5,a5,-385
            if(priv == PRIV_VU || priv == PRIV_VS) temp |= (0x1ULL << 7);       //spv
    80000a92:	e119                	bnez	a0,80000a98 <set_prev_priv+0xa0>
    80000a94:	0807e793          	ori	a5,a5,128
            CSRW(CSR_HSTATUS, temp);
    80000a98:	60079073          	csrw	hstatus,a5
        break;
    80000a9c:	8082                	ret
            uint64_t temp = CSRR(sstatus);
    80000a9e:	100027f3          	csrr	a5,sstatus
            CSRC(sstatus, 0x1ULL << 8);
    80000aa2:	10000793          	li	a5,256
    80000aa6:	1007b073          	csrc	sstatus,a5
        break;
    80000aaa:	8082                	ret
            if(priv == PRIV_HS || priv == PRIV_VS) temp |= (0x1ULL << 8);   //spp
    80000aac:	1007e793          	ori	a5,a5,256
            CSRW(sstatus, temp);
    80000ab0:	10079073          	csrw	sstatus,a5
            temp = CSRR(CSR_HSTATUS);   //p101
    80000ab4:	600027f3          	csrr	a5,hstatus
            if(priv == PRIV_VS) temp |= (1ULL << 8);        //spvp
    80000ab8:	4709                	li	a4,2
            temp &= ~(0x3ULL << 7);
    80000aba:	e7f7f793          	andi	a5,a5,-385
            if(priv == PRIV_VS) temp |= (1ULL << 8);        //spvp
    80000abe:	fce51de3          	bne	a0,a4,80000a98 <set_prev_priv+0xa0>
    80000ac2:	1007e793          	ori	a5,a5,256
            if(priv == PRIV_VU || priv == PRIV_VS) temp |= (0x1ULL << 7);       //spv
    80000ac6:	b7f9                	j	80000a94 <set_prev_priv+0x9c>
            if(priv == PRIV_VS || priv == PRIV_HS) temp |= (1ULL << 11);    //mpp   
    80000ac8:	6705                	lui	a4,0x1
    80000aca:	80070713          	addi	a4,a4,-2048 # 800 <_test_table_size+0x7ff>
            if(priv == PRIV_VU || priv == PRIV_VS) temp |= (1ULL << 39);     //mpv
    80000ace:	4689                	li	a3,2
            if(priv == PRIV_VS || priv == PRIV_HS) temp |= (1ULL << 11);    //mpp   
    80000ad0:	8fd9                	or	a5,a5,a4
            if(priv == PRIV_VU || priv == PRIV_VS) temp |= (1ULL << 39);     //mpv
    80000ad2:	f8d50be3          	beq	a0,a3,80000a68 <set_prev_priv+0x70>
    80000ad6:	bf61                	j	80000a6e <set_prev_priv+0x76>

0000000080000ad8 <goto_priv>:
    curr_priv = priv;

}


void goto_priv(int target_priv){
    80000ad8:	1101                	addi	sp,sp,-32
    80000ada:	e822                	sd	s0,16(sp)
    80000adc:	ec06                	sd	ra,24(sp)
    80000ade:	e426                	sd	s1,8(sp)

    static bool on_going = false;

    DEBUG("goto_priv: real = %s, target = %s, curr = %s",  priv_strs[real_priv], priv_strs[target_priv], priv_strs[curr_priv]);

    if(is_user(target_priv) && is_user(curr_priv)) {
    80000ae0:	4785                	li	a5,1
void goto_priv(int target_priv){
    80000ae2:	842a                	mv	s0,a0
    if(is_user(target_priv) && is_user(curr_priv)) {
    80000ae4:	02a7f963          	bgeu	a5,a0,80000b16 <goto_priv+0x3e>
        goto_priv(PRIV_M);
    }

    if(real_priv == target_priv || target_priv >= PRIV_MAX){
    80000ae8:	0002c797          	auipc	a5,0x2c
    80000aec:	9e07a783          	lw	a5,-1568(a5) # 8002c4c8 <real_priv>
    80000af0:	0002c497          	auipc	s1,0x2c
    80000af4:	9dc48493          	addi	s1,s1,-1572 # 8002c4cc <curr_priv>
    80000af8:	00a78963          	beq	a5,a0,80000b0a <goto_priv+0x32>
    80000afc:	4791                	li	a5,4
    80000afe:	0002c497          	auipc	s1,0x2c
    80000b02:	9ce48493          	addi	s1,s1,-1586 # 8002c4cc <curr_priv>
    80000b06:	06a7d363          	bge	a5,a0,80000b6c <goto_priv+0x94>
        if(on_going)
            VERBOSE("...entered %s mode", priv_strs[target_priv]);
        on_going = false;
        curr_priv = target_priv;
    80000b0a:	c080                	sw	s0,0(s1)
        VERBOSE("...entered %s mode", priv_strs[target_priv]);
        on_going = false;
        lower_priv(target_priv);
    }

}
    80000b0c:	60e2                	ld	ra,24(sp)
    80000b0e:	6442                	ld	s0,16(sp)
    80000b10:	64a2                	ld	s1,8(sp)
    80000b12:	6105                	addi	sp,sp,32
    80000b14:	8082                	ret
    if(is_user(target_priv) && is_user(curr_priv)) {
    80000b16:	0002c717          	auipc	a4,0x2c
    80000b1a:	9b672703          	lw	a4,-1610(a4) # 8002c4cc <curr_priv>
    80000b1e:	0002c497          	auipc	s1,0x2c
    80000b22:	9ae48493          	addi	s1,s1,-1618 # 8002c4cc <curr_priv>
    80000b26:	0ae7f863          	bgeu	a5,a4,80000bd6 <goto_priv+0xfe>
    if(real_priv == target_priv || target_priv >= PRIV_MAX){
    80000b2a:	0002c797          	auipc	a5,0x2c
    80000b2e:	99e7a783          	lw	a5,-1634(a5) # 8002c4c8 <real_priv>
    80000b32:	fca78ce3          	beq	a5,a0,80000b0a <goto_priv+0x32>
    if(curr_priv == PRIV_VS && priv == PRIV_HU){
    80000b36:	4789                	li	a5,2
    80000b38:	06f71063          	bne	a4,a5,80000b98 <goto_priv+0xc0>
    80000b3c:	4785                	li	a5,1
    80000b3e:	04f41d63          	bne	s0,a5,80000b98 <goto_priv+0xc0>
        ERROR("trying to go from vs to hu");
    80000b42:	00022517          	auipc	a0,0x22
    80000b46:	22e50513          	addi	a0,a0,558 # 80022d70 <__func__.2+0x508>
    80000b4a:	126200ef          	jal	80020c70 <printf>
    80000b4e:	04b00613          	li	a2,75
        ERROR("cant lower priv from u");
    80000b52:	00020597          	auipc	a1,0x20
    80000b56:	5be58593          	addi	a1,a1,1470 # 80021110 <__func__.4>
    80000b5a:	00022517          	auipc	a0,0x22
    80000b5e:	17e50513          	addi	a0,a0,382 # 80022cd8 <__func__.2+0x470>
    80000b62:	10e200ef          	jal	80020c70 <printf>
    80000b66:	4501                	li	a0,0
    80000b68:	018200ef          	jal	80020b80 <exit>
    if(target_priv > curr_priv){
    80000b6c:	0002c797          	auipc	a5,0x2c
    80000b70:	9607a783          	lw	a5,-1696(a5) # 8002c4cc <curr_priv>
    80000b74:	02a7f063          	bgeu	a5,a0,80000b94 <goto_priv+0xbc>
    ecall_args[0] = a0;
    80000b78:	00044797          	auipc	a5,0x44
    80000b7c:	48878793          	addi	a5,a5,1160 # 80045000 <ecall_args>
    80000b80:	4705                	li	a4,1
        ecall(ECALL_GOTO_PRIV, target_priv);
    80000b82:	e780                	sd	s0,8(a5)
    ecall_args[0] = a0;
    80000b84:	e398                	sd	a4,0(a5)
    asm volatile("ecall" ::: "memory");
    80000b86:	00000073          	ecall
}
    80000b8a:	60e2                	ld	ra,24(sp)
    80000b8c:	6442                	ld	s0,16(sp)
    80000b8e:	64a2                	ld	s1,8(sp)
    80000b90:	6105                	addi	sp,sp,32
    80000b92:	8082                	ret
    if(priv == curr_priv) 
    80000b94:	f6f50ce3          	beq	a0,a5,80000b0c <goto_priv+0x34>
    set_prev_priv(priv);
    80000b98:	8522                	mv	a0,s0
    80000b9a:	e5fff0ef          	jal	800009f8 <set_prev_priv>
    if(curr_priv == PRIV_M) {
    80000b9e:	0002c797          	auipc	a5,0x2c
    80000ba2:	92e7a783          	lw	a5,-1746(a5) # 8002c4cc <curr_priv>
    real_priv = priv;
    80000ba6:	0002c717          	auipc	a4,0x2c
    80000baa:	92872123          	sw	s0,-1758(a4) # 8002c4c8 <real_priv>
    if(curr_priv == PRIV_M) {
    80000bae:	4711                	li	a4,4
    80000bb0:	04e78e63          	beq	a5,a4,80000c0c <goto_priv+0x134>
    } else if(curr_priv == PRIV_VS || curr_priv == PRIV_HS){
    80000bb4:	37f9                	addiw	a5,a5,-2
    80000bb6:	4705                	li	a4,1
    80000bb8:	04f76163          	bltu	a4,a5,80000bfa <goto_priv+0x122>
        asm volatile(
    80000bbc:	00000297          	auipc	t0,0x0
    80000bc0:	01028293          	addi	t0,t0,16 # 80000bcc <goto_priv+0xf4>
    80000bc4:	14129073          	csrw	sepc,t0
    80000bc8:	10200073          	sret
    curr_priv = priv;
    80000bcc:	0002c797          	auipc	a5,0x2c
    80000bd0:	9087a023          	sw	s0,-1792(a5) # 8002c4cc <curr_priv>
    80000bd4:	bf25                	j	80000b0c <goto_priv+0x34>
        goto_priv(PRIV_M);
    80000bd6:	4511                	li	a0,4
    80000bd8:	f01ff0ef          	jal	80000ad8 <goto_priv>
    if(real_priv == target_priv || target_priv >= PRIV_MAX){
    80000bdc:	0002c797          	auipc	a5,0x2c
    80000be0:	8ec7a783          	lw	a5,-1812(a5) # 8002c4c8 <real_priv>
    80000be4:	f28783e3          	beq	a5,s0,80000b0a <goto_priv+0x32>
    if(target_priv > curr_priv){
    80000be8:	0002c717          	auipc	a4,0x2c
    80000bec:	8e472703          	lw	a4,-1820(a4) # 8002c4cc <curr_priv>
    80000bf0:	f88764e3          	bltu	a4,s0,80000b78 <goto_priv+0xa0>
    if(priv == curr_priv) 
    80000bf4:	f0870ce3          	beq	a4,s0,80000b0c <goto_priv+0x34>
    80000bf8:	bf3d                	j	80000b36 <goto_priv+0x5e>
        ERROR("cant lower priv from u");
    80000bfa:	00022517          	auipc	a0,0x22
    80000bfe:	1a650513          	addi	a0,a0,422 # 80022da0 <__func__.2+0x538>
    80000c02:	06e200ef          	jal	80020c70 <printf>
    80000c06:	06300613          	li	a2,99
    80000c0a:	b7a1                	j	80000b52 <goto_priv+0x7a>
        asm volatile(
    80000c0c:	00000297          	auipc	t0,0x0
    80000c10:	01028293          	addi	t0,t0,16 # 80000c1c <goto_priv+0x144>
    80000c14:	34129073          	csrw	mepc,t0
    80000c18:	30200073          	mret
    80000c1c:	bf45                	j	80000bcc <goto_priv+0xf4>

0000000080000c1e <mhandler>:
        break;\
    }\
    return from_priv;\
}

uint64_t mhandler(){
    80000c1e:	715d                	addi	sp,sp,-80
    80000c20:	f44e                	sd	s3,40(sp)
    80000c22:	e486                	sd	ra,72(sp)
    80000c24:	e0a2                	sd	s0,64(sp)
    80000c26:	fc26                	sd	s1,56(sp)
    80000c28:	f84a                	sd	s2,48(sp)
    80000c2a:	f052                	sd	s4,32(sp)
    80000c2c:	ec56                	sd	s5,24(sp)
    80000c2e:	e85a                	sd	s6,16(sp)
    80000c30:	e45e                	sd	s7,8(sp)

    real_priv = PRIV_M;
    80000c32:	0002c997          	auipc	s3,0x2c
    80000c36:	89698993          	addi	s3,s3,-1898 # 8002c4c8 <real_priv>
    80000c3a:	4791                	li	a5,4
    80000c3c:	00f9a023          	sw	a5,0(s3)

    uint64_t cause = CSRR(mcause);
    80000c40:	342024f3          	csrr	s1,mcause
    uint64_t epc = CSRR(mepc);
    80000c44:	34102973          	csrr	s2,mepc
    80000c48:	8a4a                	mv	s4,s2
    uint64_t tval = CSRR(mtval);
    80000c4a:	34302bf3          	csrr	s7,mtval
    uint64_t tval2 = CSRR(CSR_MTVAL2);
    80000c4e:	34b02af3          	csrr	s5,0x34b
    uint64_t tinst= CSRR(CSR_MTINST);
    80000c52:	34a02b73          	csrr	s6,0x34a
    if(!(cause == CAUSE_ECU || cause == CAUSE_ECS || 
    80000c56:	478d                	li	a5,3
    80000c58:	ff848713          	addi	a4,s1,-8
    80000c5c:	12e7ef63          	bltu	a5,a4,80000d9a <mhandler+0x17c>
    DEBUG("mtinst = 0x%lx", tinst);
    DEBUG("mpp = 0x%lx", (CSRR(mstatus) >> 11) & 0x3);
    DEBUG("mpv = 0x%lx", (CSRR(mstatus) >> 39) & 0x1);
    DEBUG("gva = 0x%lx", (CSRR(mstatus) >> MSTATUS_GVA_OFF) & 0x1);
    
    if(is_ecall(cause) && ecall_args[0] == ECALL_GOTO_PRIV){
    80000c60:	00044417          	auipc	s0,0x44
    80000c64:	3a040413          	addi	s0,s0,928 # 80045000 <ecall_args>
    80000c68:	6018                	ld	a4,0(s0)
    80000c6a:	4785                	li	a5,1
    80000c6c:	1cf70763          	beq	a4,a5,80000e3a <mhandler+0x21c>
        goto_priv(ecall_args[1]); 
    } else if(!excpt.testing){
    80000c70:	00044797          	auipc	a5,0x44
    80000c74:	3a07c783          	lbu	a5,928(a5) # 80045010 <excpt>
    80000c78:	c3cd                	beqz	a5,80000d1a <mhandler+0xfc>

    if(cause & (1ULL << 63)){
        CSRC(mip, 1ULL << (cause &  ~(1ULL << 63)));
    }

    excpt.triggered = true;
    80000c7a:	4705                	li	a4,1
    excpt.priv = PRIV_M;
    80000c7c:	4791                	li	a5,4
    excpt.cause = cause;
    80000c7e:	ec04                	sd	s1,24(s0)
    excpt.epc = epc;
    80000c80:	03243023          	sd	s2,32(s0)
    excpt.tval = tval;
    80000c84:	03743423          	sd	s7,40(s0)
    excpt.tinst = tinst;
    80000c88:	03643823          	sd	s6,48(s0)
    excpt.tval2 = tval2;
    80000c8c:	03543c23          	sd	s5,56(s0)
    excpt.triggered = true;
    80000c90:	00e408a3          	sb	a4,17(s0)
    excpt.priv = PRIV_M;
    80000c94:	c85c                	sw	a5,20(s0)
    excpt.gva = !!((CSRR(mstatus) >> MSTATUS_GVA_OFF) & 0x1);
    80000c96:	300027f3          	csrr	a5,mstatus
    80000c9a:	9399                	srli	a5,a5,0x26
    80000c9c:	8ff9                	and	a5,a5,a4
    80000c9e:	04f40023          	sb	a5,64(s0)
    excpt.xpv = !!((CSRR(mstatus) >> 39) & 0x1);
    80000ca2:	300027f3          	csrr	a5,mstatus
    80000ca6:	939d                	srli	a5,a5,0x27
    80000ca8:	8ff9                	and	a5,a5,a4
    80000caa:	04f400a3          	sb	a5,65(s0)
    excpt.testing = false;
    80000cae:	00044797          	auipc	a5,0x44
    80000cb2:	36078123          	sb	zero,866(a5) # 80045010 <excpt>
    if(is_inst_fault(cause)){
    80000cb6:	47d1                	li	a5,20
    80000cb8:	0097ed63          	bltu	a5,s1,80000cd2 <mhandler+0xb4>
    80000cbc:	001017b7          	lui	a5,0x101
    80000cc0:	078d                	addi	a5,a5,3 # 101003 <STACK_SIZE+0x1003>
    80000cc2:	0097d7b3          	srl	a5,a5,s1
    80000cc6:	8ff9                	and	a5,a5,a4
    80000cc8:	c789                	beqz	a5,80000cd2 <mhandler+0xb4>
        if(excpt.fault_inst != 0){ 
    80000cca:	04843a03          	ld	s4,72(s0)
    80000cce:	0e0a0763          	beqz	s4,80000dbc <mhandler+0x19e>
            ERROR("instruction fault without return address");
    }
    excpt.fault_inst = 0;

    unsigned temp_priv = real_priv;
    real_priv = curr_priv;
    80000cd2:	0002b797          	auipc	a5,0x2b
    80000cd6:	7fa7a783          	lw	a5,2042(a5) # 8002c4cc <curr_priv>
    unsigned temp_priv = real_priv;
    80000cda:	0002b517          	auipc	a0,0x2b
    80000cde:	7ee52503          	lw	a0,2030(a0) # 8002c4c8 <real_priv>
    excpt.fault_inst = 0;
    80000ce2:	00044717          	auipc	a4,0x44
    80000ce6:	36073323          	sd	zero,870(a4) # 80045048 <excpt+0x38>
    real_priv = curr_priv;
    80000cea:	00f9a023          	sw	a5,0(s3)
    return_from_exception(temp_priv, curr_priv, cause, epc);
    80000cee:	478d                	li	a5,3
    80000cf0:	04f50a63          	beq	a0,a5,80000d44 <mhandler+0x126>
    80000cf4:	4791                	li	a5,4
    80000cf6:	0ef50363          	beq	a0,a5,80000ddc <mhandler+0x1be>
    80000cfa:	4789                	li	a5,2
    80000cfc:	06f50263          	beq	a0,a5,80000d60 <mhandler+0x142>
}
    80000d00:	60a6                	ld	ra,72(sp)
    80000d02:	6406                	ld	s0,64(sp)
    80000d04:	1502                	slli	a0,a0,0x20
    80000d06:	74e2                	ld	s1,56(sp)
    80000d08:	7942                	ld	s2,48(sp)
    80000d0a:	79a2                	ld	s3,40(sp)
    80000d0c:	7a02                	ld	s4,32(sp)
    80000d0e:	6ae2                	ld	s5,24(sp)
    80000d10:	6b42                	ld	s6,16(sp)
    80000d12:	6ba2                	ld	s7,8(sp)
    80000d14:	9101                	srli	a0,a0,0x20
    80000d16:	6161                	addi	sp,sp,80
    80000d18:	8082                	ret
        ERROR("untested exception!");
    80000d1a:	00022517          	auipc	a0,0x22
    80000d1e:	0ae50513          	addi	a0,a0,174 # 80022dc8 <__func__.2+0x560>
    80000d22:	74f1f0ef          	jal	80020c70 <printf>
    80000d26:	0d600613          	li	a2,214
            ERROR("instruction fault without return address");
    80000d2a:	00020597          	auipc	a1,0x20
    80000d2e:	3f658593          	addi	a1,a1,1014 # 80021120 <__func__.3>
    80000d32:	00022517          	auipc	a0,0x22
    80000d36:	fa650513          	addi	a0,a0,-90 # 80022cd8 <__func__.2+0x470>
    80000d3a:	7371f0ef          	jal	80020c70 <printf>
    80000d3e:	4501                	li	a0,0
    80000d40:	6411f0ef          	jal	80020b80 <exit>
    return_from_exception(temp_priv, curr_priv, cause, epc);
    80000d44:	600026f3          	csrr	a3,hstatus
    80000d48:	0002b797          	auipc	a5,0x2b
    80000d4c:	7847a783          	lw	a5,1924(a5) # 8002c4cc <curr_priv>
    80000d50:	0806e713          	ori	a4,a3,128
    80000d54:	9bf5                	andi	a5,a5,-3
    80000d56:	c399                	beqz	a5,80000d5c <mhandler+0x13e>
    80000d58:	f7f6f713          	andi	a4,a3,-129
    80000d5c:	60071073          	csrw	hstatus,a4
    80000d60:	100027f3          	csrr	a5,sstatus
    80000d64:	0002b717          	auipc	a4,0x2b
    80000d68:	76872703          	lw	a4,1896(a4) # 8002c4cc <curr_priv>
    80000d6c:	4685                	li	a3,1
    80000d6e:	edf7f793          	andi	a5,a5,-289
    80000d72:	3779                	addiw	a4,a4,-2
    80000d74:	04e6fd63          	bgeu	a3,a4,80000dce <mhandler+0x1b0>
    80000d78:	10079073          	csrw	sstatus,a5
    80000d7c:	f804c2e3          	bltz	s1,80000d00 <mhandler+0xe2>
    if(((*(uint16_t*)epc) & 0b11) == 0b11) return epc + 4;
    80000d80:	000a5783          	lhu	a5,0(s4)
    80000d84:	468d                	li	a3,3
    else return epc + 2;
    80000d86:	002a0713          	addi	a4,s4,2
    if(((*(uint16_t*)epc) & 0b11) == 0b11) return epc + 4;
    80000d8a:	8ff5                	and	a5,a5,a3
    80000d8c:	00d79463          	bne	a5,a3,80000d94 <mhandler+0x176>
    80000d90:	004a0713          	addi	a4,s4,4
    return_from_exception(temp_priv, curr_priv, cause, epc);
    80000d94:	14171073          	csrw	sepc,a4
    80000d98:	b7a5                	j	80000d00 <mhandler+0xe2>
    } else if(!excpt.testing){
    80000d9a:	00044797          	auipc	a5,0x44
    80000d9e:	2767c783          	lbu	a5,630(a5) # 80045010 <excpt>
    80000da2:	dfa5                	beqz	a5,80000d1a <mhandler+0xfc>
    if(cause & (1ULL << 63)){
    80000da4:	0004d763          	bgez	s1,80000db2 <mhandler+0x194>
        CSRC(mip, 1ULL << (cause &  ~(1ULL << 63)));
    80000da8:	4785                	li	a5,1
    80000daa:	009797b3          	sll	a5,a5,s1
    80000dae:	3447b073          	csrc	mip,a5
    80000db2:	00044417          	auipc	s0,0x44
    80000db6:	24e40413          	addi	s0,s0,590 # 80045000 <ecall_args>
    80000dba:	b5c1                	j	80000c7a <mhandler+0x5c>
            ERROR("instruction fault without return address");
    80000dbc:	00022517          	auipc	a0,0x22
    80000dc0:	03450513          	addi	a0,a0,52 # 80022df0 <__func__.2+0x588>
    80000dc4:	6ad1f0ef          	jal	80020c70 <printf>
    80000dc8:	0ec00613          	li	a2,236
    80000dcc:	bfb9                	j	80000d2a <mhandler+0x10c>
    return_from_exception(temp_priv, curr_priv, cause, epc);
    80000dce:	1007e793          	ori	a5,a5,256
    80000dd2:	10079073          	csrw	sstatus,a5
    80000dd6:	fa04d5e3          	bgez	s1,80000d80 <mhandler+0x162>
    80000dda:	b71d                	j	80000d00 <mhandler+0xe2>
    80000ddc:	30002773          	csrr	a4,mstatus
    80000de0:	fc0007b7          	lui	a5,0xfc000
    80000de4:	17fd                	addi	a5,a5,-1 # fffffffffbffffff <__stack_top+0xffffffff7bd00fff>
    80000de6:	0002b697          	auipc	a3,0x2b
    80000dea:	6e66a683          	lw	a3,1766(a3) # 8002c4cc <curr_priv>
    80000dee:	07b6                	slli	a5,a5,0xd
    80000df0:	77f78793          	addi	a5,a5,1919
    80000df4:	8ff9                	and	a5,a5,a4
    80000df6:	04a68663          	beq	a3,a0,80000e42 <mhandler+0x224>
    80000dfa:	ffe6871b          	addiw	a4,a3,-2
    80000dfe:	4605                	li	a2,1
    80000e00:	04e66663          	bltu	a2,a4,80000e4c <mhandler+0x22e>
    80000e04:	6705                	lui	a4,0x1
    80000e06:	80070713          	addi	a4,a4,-2048 # 800 <_test_table_size+0x7ff>
    80000e0a:	4609                	li	a2,2
    80000e0c:	8fd9                	or	a5,a5,a4
    80000e0e:	00c69563          	bne	a3,a2,80000e18 <mhandler+0x1fa>
    80000e12:	4705                	li	a4,1
    80000e14:	171e                	slli	a4,a4,0x27
    80000e16:	8fd9                	or	a5,a5,a4
    80000e18:	30079073          	csrw	mstatus,a5
    80000e1c:	ee04c2e3          	bltz	s1,80000d00 <mhandler+0xe2>
    if(((*(uint16_t*)epc) & 0b11) == 0b11) return epc + 4;
    80000e20:	000a5783          	lhu	a5,0(s4)
    80000e24:	468d                	li	a3,3
    else return epc + 2;
    80000e26:	002a0713          	addi	a4,s4,2
    if(((*(uint16_t*)epc) & 0b11) == 0b11) return epc + 4;
    80000e2a:	8ff5                	and	a5,a5,a3
    80000e2c:	00d79463          	bne	a5,a3,80000e34 <mhandler+0x216>
    80000e30:	004a0713          	addi	a4,s4,4
    return_from_exception(temp_priv, curr_priv, cause, epc);
    80000e34:	34171073          	csrw	mepc,a4
    80000e38:	b5e1                	j	80000d00 <mhandler+0xe2>
        goto_priv(ecall_args[1]); 
    80000e3a:	4408                	lw	a0,8(s0)
    80000e3c:	c9dff0ef          	jal	80000ad8 <goto_priv>
    if(cause & (1ULL << 63)){
    80000e40:	bd2d                	j	80000c7a <mhandler+0x5c>
    return_from_exception(temp_priv, curr_priv, cause, epc);
    80000e42:	6709                	lui	a4,0x2
    80000e44:	80070713          	addi	a4,a4,-2048 # 1800 <_test_table_size+0x17ff>
    80000e48:	8fd9                	or	a5,a5,a4
    80000e4a:	b7f9                	j	80000e18 <mhandler+0x1fa>
    80000e4c:	d2f9                	beqz	a3,80000e12 <mhandler+0x1f4>
    80000e4e:	b7e9                	j	80000e18 <mhandler+0x1fa>

0000000080000e50 <hshandler>:
uint64_t hshandler(){
    80000e50:	715d                	addi	sp,sp,-80
    80000e52:	f44e                	sd	s3,40(sp)
    80000e54:	e486                	sd	ra,72(sp)
    80000e56:	e0a2                	sd	s0,64(sp)
    80000e58:	fc26                	sd	s1,56(sp)
    80000e5a:	f84a                	sd	s2,48(sp)
    80000e5c:	f052                	sd	s4,32(sp)
    80000e5e:	ec56                	sd	s5,24(sp)
    80000e60:	e85a                	sd	s6,16(sp)
    80000e62:	e45e                	sd	s7,8(sp)

    real_priv = PRIV_HS;
    80000e64:	0002b997          	auipc	s3,0x2b
    80000e68:	66498993          	addi	s3,s3,1636 # 8002c4c8 <real_priv>
    80000e6c:	478d                	li	a5,3
    80000e6e:	00f9a023          	sw	a5,0(s3)

    uint64_t cause = CSRR(scause);
    80000e72:	142024f3          	csrr	s1,scause
    uint64_t epc = CSRR(sepc);
    80000e76:	14102973          	csrr	s2,sepc
    80000e7a:	8a4a                	mv	s4,s2
    uint64_t tval = CSRR(stval);
    80000e7c:	14302bf3          	csrr	s7,stval
    uint64_t htval = CSRR(CSR_HTVAL);
    80000e80:	64302af3          	csrr	s5,htval
    uint64_t htinst = CSRR(CSR_HTINST);
    80000e84:	64a02b73          	csrr	s6,htinst
    if(!(cause == CAUSE_ECU || cause == CAUSE_ECS || 
    80000e88:	ff848713          	addi	a4,s1,-8
    80000e8c:	04e7ec63          	bltu	a5,a4,80000ee4 <hshandler+0x94>
    DEBUG("spv = 0x%lx", (CSRR(CSR_HSTATUS) >> 7) & 0x1);
    DEBUG("spvp = 0x%lx", (CSRR(CSR_HSTATUS) >> 8) & 0x1);
    DEBUG("gva = 0x%lx", (CSRR(CSR_HSTATUS) >> HSTATUS_GVA_OFF) & 0x1);


    if(is_ecall(cause) && ecall_args[0] == ECALL_GOTO_PRIV){ 
    80000e90:	00044417          	auipc	s0,0x44
    80000e94:	17040413          	addi	s0,s0,368 # 80045000 <ecall_args>
    80000e98:	601c                	ld	a5,0(s0)
    80000e9a:	4585                	li	a1,1
    80000e9c:	14b78d63          	beq	a5,a1,80000ff6 <hshandler+0x1a6>
        goto_priv(ecall_args[1]); 
    } else if(is_ecall(cause)) {
        printf("%d\n",ECALL_GOTO_PRIV);
    80000ea0:	00022517          	auipc	a0,0x22
    80000ea4:	f9050513          	addi	a0,a0,-112 # 80022e30 <__func__.2+0x5c8>
    80000ea8:	5c91f0ef          	jal	80020c70 <printf>
        printf("%d\n",ecall_args[0]);
    80000eac:	600c                	ld	a1,0(s0)
    80000eae:	00022517          	auipc	a0,0x22
    80000eb2:	f8250513          	addi	a0,a0,-126 # 80022e30 <__func__.2+0x5c8>
    80000eb6:	5bb1f0ef          	jal	80020c70 <printf>
        ERROR("unknown ecall"); 
    80000eba:	00022517          	auipc	a0,0x22
    80000ebe:	f7e50513          	addi	a0,a0,-130 # 80022e38 <__func__.2+0x5d0>
    80000ec2:	5af1f0ef          	jal	80020c70 <printf>
    80000ec6:	10e00613          	li	a2,270
    } else if(!excpt.testing){
        ERROR("untested exception!");
    80000eca:	00020597          	auipc	a1,0x20
    80000ece:	26658593          	addi	a1,a1,614 # 80021130 <__func__.2>
    80000ed2:	00022517          	auipc	a0,0x22
    80000ed6:	e0650513          	addi	a0,a0,-506 # 80022cd8 <__func__.2+0x470>
    80000eda:	5971f0ef          	jal	80020c70 <printf>
    80000ede:	4501                	li	a0,0
    80000ee0:	4a11f0ef          	jal	80020b80 <exit>
    } else if(!excpt.testing){
    80000ee4:	00044797          	auipc	a5,0x44
    80000ee8:	12c7c783          	lbu	a5,300(a5) # 80045010 <excpt>
    80000eec:	cfe5                	beqz	a5,80000fe4 <hshandler+0x194>
    }
    
    if(cause & (1ULL << 63)){
    80000eee:	0004d963          	bgez	s1,80000f00 <hshandler+0xb0>
        CSRC(sip, 1ULL << (cause &  ~(1ULL << 63)));
    80000ef2:	4785                	li	a5,1
    80000ef4:	009797b3          	sll	a5,a5,s1
    80000ef8:	1447b073          	csrc	sip,a5
        //CSRC(CSR_HVIP, 1ULL << (cause &  ~(1ULL << 63)));
        CSRC(CSR_HIP, 1ULL << (cause &  ~(1ULL << 63)));
    80000efc:	6447b073          	csrc	hip,a5
    80000f00:	00044417          	auipc	s0,0x44
    80000f04:	10040413          	addi	s0,s0,256 # 80045000 <ecall_args>
    }

    excpt.triggered = true;
    80000f08:	4705                	li	a4,1
    excpt.priv = PRIV_HS;
    80000f0a:	478d                	li	a5,3
    excpt.cause = cause;
    80000f0c:	ec04                	sd	s1,24(s0)
    excpt.epc = epc;
    80000f0e:	03243023          	sd	s2,32(s0)
    excpt.tval = tval;
    80000f12:	03743423          	sd	s7,40(s0)
    excpt.tinst = htinst;
    80000f16:	03643823          	sd	s6,48(s0)
    excpt.tval2 = htval;
    80000f1a:	03543c23          	sd	s5,56(s0)
    excpt.triggered = true;
    80000f1e:	00e408a3          	sb	a4,17(s0)
    excpt.priv = PRIV_HS;
    80000f22:	c85c                	sw	a5,20(s0)
    excpt.gva = !!((CSRR(CSR_HSTATUS) >> HSTATUS_GVA_OFF) & 0x1);
    80000f24:	600027f3          	csrr	a5,hstatus
    80000f28:	8399                	srli	a5,a5,0x6
    80000f2a:	8ff9                	and	a5,a5,a4
    80000f2c:	04f40023          	sb	a5,64(s0)
    excpt.xpv = !!((CSRR(CSR_HSTATUS) >> 7) & 0x1);
    80000f30:	600027f3          	csrr	a5,hstatus
    80000f34:	839d                	srli	a5,a5,0x7
    80000f36:	8ff9                	and	a5,a5,a4
    80000f38:	04f400a3          	sb	a5,65(s0)
    excpt.testing = false;
    80000f3c:	00044797          	auipc	a5,0x44
    80000f40:	0c078a23          	sb	zero,212(a5) # 80045010 <excpt>
    if(is_inst_fault(cause)){
    80000f44:	47d1                	li	a5,20
    80000f46:	0097ed63          	bltu	a5,s1,80000f60 <hshandler+0x110>
    80000f4a:	001017b7          	lui	a5,0x101
    80000f4e:	078d                	addi	a5,a5,3 # 101003 <STACK_SIZE+0x1003>
    80000f50:	0097d7b3          	srl	a5,a5,s1
    80000f54:	8ff9                	and	a5,a5,a4
    80000f56:	c789                	beqz	a5,80000f60 <hshandler+0x110>
        if(excpt.fault_inst != 0){ 
    80000f58:	04843a03          	ld	s4,72(s0)
    80000f5c:	0a0a0163          	beqz	s4,80000ffe <hshandler+0x1ae>
            ERROR("instruction fault without return address");
    }
    excpt.fault_inst = 0;

    unsigned temp_priv = real_priv;
    real_priv = curr_priv;
    80000f60:	0002b797          	auipc	a5,0x2b
    80000f64:	56c7a783          	lw	a5,1388(a5) # 8002c4cc <curr_priv>
    unsigned temp_priv = real_priv;
    80000f68:	0002b517          	auipc	a0,0x2b
    80000f6c:	56052503          	lw	a0,1376(a0) # 8002c4c8 <real_priv>
    excpt.fault_inst = 0;
    80000f70:	00044717          	auipc	a4,0x44
    80000f74:	0c073c23          	sd	zero,216(a4) # 80045048 <excpt+0x38>
    real_priv = curr_priv;
    80000f78:	00f9a023          	sw	a5,0(s3)
    return_from_exception(temp_priv, curr_priv, cause, epc);
    80000f7c:	478d                	li	a5,3
    80000f7e:	0ef50863          	beq	a0,a5,8000106e <hshandler+0x21e>
    80000f82:	4791                	li	a5,4
    80000f84:	08f50663          	beq	a0,a5,80001010 <hshandler+0x1c0>
    80000f88:	4789                	li	a5,2
    80000f8a:	04f51063          	bne	a0,a5,80000fca <hshandler+0x17a>
    80000f8e:	100027f3          	csrr	a5,sstatus
    80000f92:	0002b717          	auipc	a4,0x2b
    80000f96:	53a72703          	lw	a4,1338(a4) # 8002c4cc <curr_priv>
    80000f9a:	4685                	li	a3,1
    80000f9c:	edf7f793          	andi	a5,a5,-289
    80000fa0:	3779                	addiw	a4,a4,-2
    80000fa2:	00e6e463          	bltu	a3,a4,80000faa <hshandler+0x15a>
    80000fa6:	1007e793          	ori	a5,a5,256
    80000faa:	10079073          	csrw	sstatus,a5
    80000fae:	0004ce63          	bltz	s1,80000fca <hshandler+0x17a>
    if(((*(uint16_t*)epc) & 0b11) == 0b11) return epc + 4;
    80000fb2:	000a5783          	lhu	a5,0(s4)
    80000fb6:	468d                	li	a3,3
    else return epc + 2;
    80000fb8:	002a0713          	addi	a4,s4,2
    if(((*(uint16_t*)epc) & 0b11) == 0b11) return epc + 4;
    80000fbc:	8ff5                	and	a5,a5,a3
    80000fbe:	00d79463          	bne	a5,a3,80000fc6 <hshandler+0x176>
    80000fc2:	004a0713          	addi	a4,s4,4
    return_from_exception(temp_priv, curr_priv, cause, epc);
    80000fc6:	14171073          	csrw	sepc,a4
}
    80000fca:	60a6                	ld	ra,72(sp)
    80000fcc:	6406                	ld	s0,64(sp)
    80000fce:	1502                	slli	a0,a0,0x20
    80000fd0:	74e2                	ld	s1,56(sp)
    80000fd2:	7942                	ld	s2,48(sp)
    80000fd4:	79a2                	ld	s3,40(sp)
    80000fd6:	7a02                	ld	s4,32(sp)
    80000fd8:	6ae2                	ld	s5,24(sp)
    80000fda:	6b42                	ld	s6,16(sp)
    80000fdc:	6ba2                	ld	s7,8(sp)
    80000fde:	9101                	srli	a0,a0,0x20
    80000fe0:	6161                	addi	sp,sp,80
    80000fe2:	8082                	ret
        ERROR("untested exception!");
    80000fe4:	00022517          	auipc	a0,0x22
    80000fe8:	de450513          	addi	a0,a0,-540 # 80022dc8 <__func__.2+0x560>
    80000fec:	4851f0ef          	jal	80020c70 <printf>
    80000ff0:	11000613          	li	a2,272
    80000ff4:	bdd9                	j	80000eca <hshandler+0x7a>
        goto_priv(ecall_args[1]); 
    80000ff6:	4408                	lw	a0,8(s0)
    80000ff8:	ae1ff0ef          	jal	80000ad8 <goto_priv>
    if(cause & (1ULL << 63)){
    80000ffc:	b731                	j	80000f08 <hshandler+0xb8>
            ERROR("instruction fault without return address");
    80000ffe:	00022517          	auipc	a0,0x22
    80001002:	df250513          	addi	a0,a0,-526 # 80022df0 <__func__.2+0x588>
    80001006:	46b1f0ef          	jal	80020c70 <printf>
    8000100a:	12800613          	li	a2,296
    8000100e:	bd75                	j	80000eca <hshandler+0x7a>
    return_from_exception(temp_priv, curr_priv, cause, epc);
    80001010:	30002773          	csrr	a4,mstatus
    80001014:	fc0007b7          	lui	a5,0xfc000
    80001018:	17fd                	addi	a5,a5,-1 # fffffffffbffffff <__stack_top+0xffffffff7bd00fff>
    8000101a:	0002b697          	auipc	a3,0x2b
    8000101e:	4b26a683          	lw	a3,1202(a3) # 8002c4cc <curr_priv>
    80001022:	07b6                	slli	a5,a5,0xd
    80001024:	77f78793          	addi	a5,a5,1919
    80001028:	8ff9                	and	a5,a5,a4
    8000102a:	06a68263          	beq	a3,a0,8000108e <hshandler+0x23e>
    8000102e:	ffe6871b          	addiw	a4,a3,-2
    80001032:	4605                	li	a2,1
    80001034:	06e66263          	bltu	a2,a4,80001098 <hshandler+0x248>
    80001038:	6705                	lui	a4,0x1
    8000103a:	80070713          	addi	a4,a4,-2048 # 800 <_test_table_size+0x7ff>
    8000103e:	4609                	li	a2,2
    80001040:	8fd9                	or	a5,a5,a4
    80001042:	00c69563          	bne	a3,a2,8000104c <hshandler+0x1fc>
    80001046:	4705                	li	a4,1
    80001048:	171e                	slli	a4,a4,0x27
    8000104a:	8fd9                	or	a5,a5,a4
    8000104c:	30079073          	csrw	mstatus,a5
    80001050:	f604cde3          	bltz	s1,80000fca <hshandler+0x17a>
    if(((*(uint16_t*)epc) & 0b11) == 0b11) return epc + 4;
    80001054:	000a5783          	lhu	a5,0(s4)
    80001058:	468d                	li	a3,3
    else return epc + 2;
    8000105a:	002a0713          	addi	a4,s4,2
    if(((*(uint16_t*)epc) & 0b11) == 0b11) return epc + 4;
    8000105e:	8ff5                	and	a5,a5,a3
    80001060:	00d79463          	bne	a5,a3,80001068 <hshandler+0x218>
    80001064:	004a0713          	addi	a4,s4,4
    return_from_exception(temp_priv, curr_priv, cause, epc);
    80001068:	34171073          	csrw	mepc,a4
    8000106c:	bfb9                	j	80000fca <hshandler+0x17a>
    8000106e:	600026f3          	csrr	a3,hstatus
    80001072:	0002b797          	auipc	a5,0x2b
    80001076:	45a7a783          	lw	a5,1114(a5) # 8002c4cc <curr_priv>
    8000107a:	0806e713          	ori	a4,a3,128
    8000107e:	9bf5                	andi	a5,a5,-3
    80001080:	e781                	bnez	a5,80001088 <hshandler+0x238>
    80001082:	60071073          	csrw	hstatus,a4
    80001086:	b721                	j	80000f8e <hshandler+0x13e>
    80001088:	f7f6f713          	andi	a4,a3,-129
    8000108c:	bfdd                	j	80001082 <hshandler+0x232>
    8000108e:	6709                	lui	a4,0x2
    80001090:	80070713          	addi	a4,a4,-2048 # 1800 <_test_table_size+0x17ff>
    80001094:	8fd9                	or	a5,a5,a4
    80001096:	bf5d                	j	8000104c <hshandler+0x1fc>
    80001098:	d6dd                	beqz	a3,80001046 <hshandler+0x1f6>
    8000109a:	bf4d                	j	8000104c <hshandler+0x1fc>

000000008000109c <vshandler>:

uint64_t vshandler(){
    8000109c:	7139                	addi	sp,sp,-64
    8000109e:	f04a                	sd	s2,32(sp)
    800010a0:	fc06                	sd	ra,56(sp)
    800010a2:	f822                	sd	s0,48(sp)
    800010a4:	f426                	sd	s1,40(sp)
    800010a6:	ec4e                	sd	s3,24(sp)
    800010a8:	e852                	sd	s4,16(sp)
    800010aa:	e456                	sd	s5,8(sp)

    real_priv = PRIV_VS;
    800010ac:	0002b917          	auipc	s2,0x2b
    800010b0:	41c90913          	addi	s2,s2,1052 # 8002c4c8 <real_priv>
    800010b4:	4709                	li	a4,2
    800010b6:	00e92023          	sw	a4,0(s2)

    uint64_t cause = CSRR(scause);
    800010ba:	14202473          	csrr	s0,scause
    uint64_t epc = CSRR(sepc);
    800010be:	141029f3          	csrr	s3,sepc
    800010c2:	84ce                	mv	s1,s3
    uint64_t tval = CSRR(stval);
    800010c4:	14302a73          	csrr	s4,stval
    if(!(cause == CAUSE_ECU || cause == CAUSE_ECS || 
    800010c8:	478d                	li	a5,3
    800010ca:	ff840693          	addi	a3,s0,-8
    800010ce:	04d7e663          	bltu	a5,a3,8000111a <vshandler+0x7e>
    VERBOSE("virtual supervisor handler (scause = 0x%llx)", cause);
    DEBUG("scause = 0x%llx", cause);
    DEBUG("sepc = 0x%lx", epc);
    DEBUG("stval = 0x%lx", tval);
    
    if(is_ecall(cause) && ecall_args[0] ==ECALL_GOTO_PRIV ){
    800010d2:	00044a97          	auipc	s5,0x44
    800010d6:	f2ea8a93          	addi	s5,s5,-210 # 80045000 <ecall_args>
    800010da:	000ab703          	ld	a4,0(s5)
    800010de:	4785                	li	a5,1
    800010e0:	1af70963          	beq	a4,a5,80001292 <vshandler+0x1f6>
        goto_priv(ecall_args[1]); 
    } else if(!excpt.testing){
    800010e4:	00044797          	auipc	a5,0x44
    800010e8:	f2c7c783          	lbu	a5,-212(a5) # 80045010 <excpt>
    800010ec:	1a079763          	bnez	a5,8000129a <vshandler+0x1fe>
        ERROR("untested exception!");
    800010f0:	00022517          	auipc	a0,0x22
    800010f4:	cd850513          	addi	a0,a0,-808 # 80022dc8 <__func__.2+0x560>
    800010f8:	3791f0ef          	jal	80020c70 <printf>
    800010fc:	14100613          	li	a2,321
    excpt.epc = epc;
    excpt.tval = tval;
    excpt.testing = false;
    if(is_inst_fault(cause)){
        if(excpt.fault_inst != 0) epc = excpt.fault_inst;
        else ERROR("instruction fault without return address");
    80001100:	00020597          	auipc	a1,0x20
    80001104:	04058593          	addi	a1,a1,64 # 80021140 <__func__.1>
    80001108:	00022517          	auipc	a0,0x22
    8000110c:	bd050513          	addi	a0,a0,-1072 # 80022cd8 <__func__.2+0x470>
    80001110:	3611f0ef          	jal	80020c70 <printf>
    80001114:	4501                	li	a0,0
    80001116:	26b1f0ef          	jal	80020b80 <exit>
    } else if(!excpt.testing){
    8000111a:	00044697          	auipc	a3,0x44
    8000111e:	ef66c683          	lbu	a3,-266(a3) # 80045010 <excpt>
    80001122:	00044797          	auipc	a5,0x44
    80001126:	ede78793          	addi	a5,a5,-290 # 80045000 <ecall_args>
    8000112a:	d2f9                	beqz	a3,800010f0 <vshandler+0x54>
    if(cause & (1ULL << 63)){
    8000112c:	0a045e63          	bgez	s0,800011e8 <vshandler+0x14c>
        CSRC(sip, 1ULL << (cause &  ~(1ULL << 63)));
    80001130:	4685                	li	a3,1
    80001132:	008696b3          	sll	a3,a3,s0
    80001136:	1446b073          	csrc	sip,a3
    excpt.testing = false;
    8000113a:	10000693          	li	a3,256
    excpt.priv = PRIV_VS;
    8000113e:	cbd8                	sw	a4,20(a5)
    excpt.cause = cause;
    80001140:	ef80                	sd	s0,24(a5)
    excpt.epc = epc;
    80001142:	0337b023          	sd	s3,32(a5)
    excpt.tval = tval;
    80001146:	0347b423          	sd	s4,40(a5)
    excpt.testing = false;
    8000114a:	00d79823          	sh	a3,16(a5)
    }
    excpt.fault_inst = 0;

    unsigned temp_priv = real_priv;
    real_priv = curr_priv;
    8000114e:	0002b797          	auipc	a5,0x2b
    80001152:	37e7a783          	lw	a5,894(a5) # 8002c4cc <curr_priv>
    unsigned temp_priv = real_priv;
    80001156:	0002b517          	auipc	a0,0x2b
    8000115a:	37252503          	lw	a0,882(a0) # 8002c4c8 <real_priv>
    excpt.fault_inst = 0;
    8000115e:	00044717          	auipc	a4,0x44
    80001162:	ee073523          	sd	zero,-278(a4) # 80045048 <excpt+0x38>
    real_priv = curr_priv;
    80001166:	00f92023          	sw	a5,0(s2)
    return_from_exception(temp_priv, curr_priv, cause, epc);
    8000116a:	478d                	li	a5,3
    8000116c:	02f50363          	beq	a0,a5,80001192 <vshandler+0xf6>
    80001170:	4791                	li	a5,4
    80001172:	0cf50163          	beq	a0,a5,80001234 <vshandler+0x198>
    80001176:	4789                	li	a5,2
    80001178:	02f50b63          	beq	a0,a5,800011ae <vshandler+0x112>
}
    8000117c:	70e2                	ld	ra,56(sp)
    8000117e:	7442                	ld	s0,48(sp)
    return_from_exception(temp_priv, curr_priv, cause, epc);
    80001180:	1502                	slli	a0,a0,0x20
}
    80001182:	74a2                	ld	s1,40(sp)
    80001184:	7902                	ld	s2,32(sp)
    80001186:	69e2                	ld	s3,24(sp)
    80001188:	6a42                	ld	s4,16(sp)
    8000118a:	6aa2                	ld	s5,8(sp)
    return_from_exception(temp_priv, curr_priv, cause, epc);
    8000118c:	9101                	srli	a0,a0,0x20
}
    8000118e:	6121                	addi	sp,sp,64
    80001190:	8082                	ret
    return_from_exception(temp_priv, curr_priv, cause, epc);
    80001192:	600026f3          	csrr	a3,hstatus
    80001196:	0002b797          	auipc	a5,0x2b
    8000119a:	3367a783          	lw	a5,822(a5) # 8002c4cc <curr_priv>
    8000119e:	0806e713          	ori	a4,a3,128
    800011a2:	9bf5                	andi	a5,a5,-3
    800011a4:	c399                	beqz	a5,800011aa <vshandler+0x10e>
    800011a6:	f7f6f713          	andi	a4,a3,-129
    800011aa:	60071073          	csrw	hstatus,a4
    800011ae:	100027f3          	csrr	a5,sstatus
    800011b2:	0002b717          	auipc	a4,0x2b
    800011b6:	31a72703          	lw	a4,794(a4) # 8002c4cc <curr_priv>
    800011ba:	4685                	li	a3,1
    800011bc:	edf7f793          	andi	a5,a5,-289
    800011c0:	3779                	addiw	a4,a4,-2
    800011c2:	06e6f263          	bgeu	a3,a4,80001226 <vshandler+0x18a>
    800011c6:	10079073          	csrw	sstatus,a5
    800011ca:	fa0449e3          	bltz	s0,8000117c <vshandler+0xe0>
    if(((*(uint16_t*)epc) & 0b11) == 0b11) return epc + 4;
    800011ce:	0004d783          	lhu	a5,0(s1)
    800011d2:	468d                	li	a3,3
    else return epc + 2;
    800011d4:	00248713          	addi	a4,s1,2
    if(((*(uint16_t*)epc) & 0b11) == 0b11) return epc + 4;
    800011d8:	8ff5                	and	a5,a5,a3
    800011da:	00d79463          	bne	a5,a3,800011e2 <vshandler+0x146>
    800011de:	00448713          	addi	a4,s1,4
    return_from_exception(temp_priv, curr_priv, cause, epc);
    800011e2:	14171073          	csrw	sepc,a4
    800011e6:	bf59                	j	8000117c <vshandler+0xe0>
    excpt.testing = false;
    800011e8:	10000693          	li	a3,256
    excpt.priv = PRIV_VS;
    800011ec:	cbd8                	sw	a4,20(a5)
    excpt.cause = cause;
    800011ee:	ef80                	sd	s0,24(a5)
    excpt.epc = epc;
    800011f0:	0337b023          	sd	s3,32(a5)
    excpt.tval = tval;
    800011f4:	0347b423          	sd	s4,40(a5)
    excpt.testing = false;
    800011f8:	00d79823          	sh	a3,16(a5)
    if(is_inst_fault(cause)){
    800011fc:	4751                	li	a4,20
    800011fe:	f48768e3          	bltu	a4,s0,8000114e <vshandler+0xb2>
    80001202:	00101737          	lui	a4,0x101
    80001206:	070d                	addi	a4,a4,3 # 101003 <STACK_SIZE+0x1003>
    80001208:	00875733          	srl	a4,a4,s0
    8000120c:	8b05                	andi	a4,a4,1
    8000120e:	d321                	beqz	a4,8000114e <vshandler+0xb2>
        if(excpt.fault_inst != 0) epc = excpt.fault_inst;
    80001210:	67a4                	ld	s1,72(a5)
    80001212:	fc95                	bnez	s1,8000114e <vshandler+0xb2>
        else ERROR("instruction fault without return address");
    80001214:	00022517          	auipc	a0,0x22
    80001218:	bdc50513          	addi	a0,a0,-1060 # 80022df0 <__func__.2+0x588>
    8000121c:	2551f0ef          	jal	80020c70 <printf>
    80001220:	15000613          	li	a2,336
    80001224:	bdf1                	j	80001100 <vshandler+0x64>
    return_from_exception(temp_priv, curr_priv, cause, epc);
    80001226:	1007e793          	ori	a5,a5,256
    8000122a:	10079073          	csrw	sstatus,a5
    8000122e:	fa0450e3          	bgez	s0,800011ce <vshandler+0x132>
    80001232:	b7a9                	j	8000117c <vshandler+0xe0>
    80001234:	30002773          	csrr	a4,mstatus
    80001238:	fc0007b7          	lui	a5,0xfc000
    8000123c:	17fd                	addi	a5,a5,-1 # fffffffffbffffff <__stack_top+0xffffffff7bd00fff>
    8000123e:	0002b697          	auipc	a3,0x2b
    80001242:	28e6a683          	lw	a3,654(a3) # 8002c4cc <curr_priv>
    80001246:	07b6                	slli	a5,a5,0xd
    80001248:	77f78793          	addi	a5,a5,1919
    8000124c:	8ff9                	and	a5,a5,a4
    8000124e:	06a68463          	beq	a3,a0,800012b6 <vshandler+0x21a>
    80001252:	ffe6871b          	addiw	a4,a3,-2
    80001256:	4605                	li	a2,1
    80001258:	06e66463          	bltu	a2,a4,800012c0 <vshandler+0x224>
    8000125c:	6705                	lui	a4,0x1
    8000125e:	80070713          	addi	a4,a4,-2048 # 800 <_test_table_size+0x7ff>
    80001262:	4609                	li	a2,2
    80001264:	8fd9                	or	a5,a5,a4
    80001266:	00c69563          	bne	a3,a2,80001270 <vshandler+0x1d4>
    8000126a:	4705                	li	a4,1
    8000126c:	171e                	slli	a4,a4,0x27
    8000126e:	8fd9                	or	a5,a5,a4
    80001270:	30079073          	csrw	mstatus,a5
    80001274:	f00444e3          	bltz	s0,8000117c <vshandler+0xe0>
    if(((*(uint16_t*)epc) & 0b11) == 0b11) return epc + 4;
    80001278:	0004d783          	lhu	a5,0(s1)
    8000127c:	468d                	li	a3,3
    else return epc + 2;
    8000127e:	00248713          	addi	a4,s1,2
    if(((*(uint16_t*)epc) & 0b11) == 0b11) return epc + 4;
    80001282:	8ff5                	and	a5,a5,a3
    80001284:	00d79463          	bne	a5,a3,8000128c <vshandler+0x1f0>
    80001288:	00448713          	addi	a4,s1,4
    return_from_exception(temp_priv, curr_priv, cause, epc);
    8000128c:	34171073          	csrw	mepc,a4
    80001290:	b5f5                	j	8000117c <vshandler+0xe0>
        goto_priv(ecall_args[1]); 
    80001292:	008aa503          	lw	a0,8(s5)
    80001296:	843ff0ef          	jal	80000ad8 <goto_priv>
    excpt.priv = PRIV_VS;
    8000129a:	4709                	li	a4,2
    excpt.testing = false;
    8000129c:	10000793          	li	a5,256
    excpt.cause = cause;
    800012a0:	008abc23          	sd	s0,24(s5)
    excpt.epc = epc;
    800012a4:	033ab023          	sd	s3,32(s5)
    excpt.tval = tval;
    800012a8:	034ab423          	sd	s4,40(s5)
    excpt.priv = PRIV_VS;
    800012ac:	00eaaa23          	sw	a4,20(s5)
    excpt.testing = false;
    800012b0:	00fa9823          	sh	a5,16(s5)
    if(is_inst_fault(cause)){
    800012b4:	bd69                	j	8000114e <vshandler+0xb2>
    return_from_exception(temp_priv, curr_priv, cause, epc);
    800012b6:	6709                	lui	a4,0x2
    800012b8:	80070713          	addi	a4,a4,-2048 # 1800 <_test_table_size+0x17ff>
    800012bc:	8fd9                	or	a5,a5,a4
    800012be:	bf4d                	j	80001270 <vshandler+0x1d4>
    800012c0:	d6cd                	beqz	a3,8000126a <vshandler+0x1ce>
    800012c2:	b77d                	j	80001270 <vshandler+0x1d4>

00000000800012c4 <expand_compressed_instruction>:

uint32_t expand_compressed_instruction(uint16_t ins) {
    800012c4:	1141                	addi	sp,sp,-16
    800012c6:	e406                	sd	ra,8(sp)

    if(!INS_COMPRESSED(ins)) {
    800012c8:	00357713          	andi	a4,a0,3
    800012cc:	478d                	li	a5,3
    800012ce:	04f70763          	beq	a4,a5,8000131c <expand_compressed_instruction+0x58>
        ERROR("trying to expand non-compressed instruction");
    }

    if(INS_MATCH_C_LW(ins) || INS_MATCH_C_LD(ins) || INS_MATCH_C_SW(ins) || INS_MATCH_C_SD(ins)){
    800012d2:	77f9                	lui	a5,0xffffe
    800012d4:	078d                	addi	a5,a5,3 # ffffffffffffe003 <__stack_top+0xffffffff7fcff003>
    800012d6:	8fe9                	and	a5,a5,a0
    800012d8:	6711                	lui	a4,0x4
    800012da:	85aa                	mv	a1,a0
    800012dc:	08e78963          	beq	a5,a4,8000136e <expand_compressed_instruction+0xaa>
    800012e0:	6719                	lui	a4,0x6
    800012e2:	04e78663          	beq	a5,a4,8000132e <expand_compressed_instruction+0x6a>
    800012e6:	6731                	lui	a4,0xc
    800012e8:	0ae78b63          	beq	a5,a4,8000139e <expand_compressed_instruction+0xda>
    800012ec:	6739                	lui	a4,0xe
    800012ee:	0ae78363          	beq	a5,a4,80001394 <expand_compressed_instruction+0xd0>
            ((ins & INS_C_IMM0_MASK)  >> INS_C_IMM0_OFF) & 0x1 << 6 |
            ((ins & INS_C_IMM0_MASK)  >> INS_C_IMM0_OFF) >> 1 & 0x1 << 2;
        return opcode_funct3 | rd_rs2 << (is_load ? 7 : 20) | 
            rs1 << 15 | (imm & 0x1f) << 7 | (imm >> 5) << 25;
    } else {
        ERROR("expansion not implemented for target compressed instruction: 0x%x", ins);
    800012f2:	00022517          	auipc	a0,0x22
    800012f6:	ba650513          	addi	a0,a0,-1114 # 80022e98 <__func__.2+0x630>
    800012fa:	1771f0ef          	jal	80020c70 <printf>
    800012fe:	16f00613          	li	a2,367
    80001302:	00020597          	auipc	a1,0x20
    80001306:	e4e58593          	addi	a1,a1,-434 # 80021150 <__func__.0>
    8000130a:	00022517          	auipc	a0,0x22
    8000130e:	9ce50513          	addi	a0,a0,-1586 # 80022cd8 <__func__.2+0x470>
    80001312:	15f1f0ef          	jal	80020c70 <printf>
    80001316:	4501                	li	a0,0
    80001318:	0691f0ef          	jal	80020b80 <exit>
        ERROR("trying to expand non-compressed instruction");
    8000131c:	00022517          	auipc	a0,0x22
    80001320:	b3c50513          	addi	a0,a0,-1220 # 80022e58 <__func__.2+0x5f0>
    80001324:	14d1f0ef          	jal	80020c70 <printf>
    80001328:	15c00613          	li	a2,348
    8000132c:	bfd9                	j	80001302 <expand_compressed_instruction+0x3e>
            (is_load ? MATCH_LD : MATCH_SD):
    8000132e:	668d                	lui	a3,0x3
    80001330:	068d                	addi	a3,a3,3 # 3003 <_test_table_size+0x3002>
        bool is_load = INS_MATCH_C_LW(ins) || INS_MATCH_C_LD(ins); 
    80001332:	4505                	li	a0,1
        uint32_t rd_rs2 =  ((ins & INS_C_RDRS2_MASK) >> INS_C_RDRS2_OFF) + 8;
    80001334:	0025d793          	srli	a5,a1,0x2
        uint32_t rs1 = ((ins & INS_C_RS1_MASK) >> INS_C_RS1_OFF) + 8;
    80001338:	0075d713          	srli	a4,a1,0x7
        uint32_t rd_rs2 =  ((ins & INS_C_RDRS2_MASK) >> INS_C_RDRS2_OFF) + 8;
    8000133c:	8b9d                	andi	a5,a5,7
        uint32_t rs1 = ((ins & INS_C_RS1_MASK) >> INS_C_RS1_OFF) + 8;
    8000133e:	8b1d                	andi	a4,a4,7
        uint32_t rd_rs2 =  ((ins & INS_C_RDRS2_MASK) >> INS_C_RDRS2_OFF) + 8;
    80001340:	27a1                	addiw	a5,a5,8
        uint32_t rs1 = ((ins & INS_C_RS1_MASK) >> INS_C_RS1_OFF) + 8;
    80001342:	2721                	addiw	a4,a4,8 # e008 <_test_table_size+0xe007>
            ((ins & INS_C_IMM0_MASK)  >> INS_C_IMM0_OFF) << 6 :
    80001344:	0055d613          	srli	a2,a1,0x5
            rs1 << 15 | (imm & 0x1f) << 7 | (imm >> 5) << 25;
    80001348:	0606                	slli	a2,a2,0x1
    8000134a:	0196161b          	slliw	a2,a2,0x19
    8000134e:	0e0005b7          	lui	a1,0xe000
    80001352:	8e6d                	and	a2,a2,a1
        return opcode_funct3 | rd_rs2 << (is_load ? 7 : 20) | 
    80001354:	45d1                	li	a1,20
    80001356:	c111                	beqz	a0,8000135a <expand_compressed_instruction+0x96>
    80001358:	459d                	li	a1,7
    }

}
    8000135a:	60a2                	ld	ra,8(sp)
            rs1 << 15 | (imm & 0x1f) << 7 | (imm >> 5) << 25;
    8000135c:	8ed1                	or	a3,a3,a2
    8000135e:	00f7171b          	slliw	a4,a4,0xf
    80001362:	8f55                	or	a4,a4,a3
        return opcode_funct3 | rd_rs2 << (is_load ? 7 : 20) | 
    80001364:	00b7953b          	sllw	a0,a5,a1
            rs1 << 15 | (imm & 0x1f) << 7 | (imm >> 5) << 25;
    80001368:	8d59                	or	a0,a0,a4
}
    8000136a:	0141                	addi	sp,sp,16
    8000136c:	8082                	ret
            (is_load ? MATCH_LD : MATCH_SD):
    8000136e:	6689                	lui	a3,0x2
    80001370:	068d                	addi	a3,a3,3 # 2003 <_test_table_size+0x2002>
    80001372:	4505                	li	a0,1
        uint32_t rd_rs2 =  ((ins & INS_C_RDRS2_MASK) >> INS_C_RDRS2_OFF) + 8;
    80001374:	0025d793          	srli	a5,a1,0x2
        uint32_t rs1 = ((ins & INS_C_RS1_MASK) >> INS_C_RS1_OFF) + 8;
    80001378:	0075d713          	srli	a4,a1,0x7
        uint32_t imm = ((ins & INS_C_IMM1_MASK)  >> INS_C_IMM1_OFF) << 3 |
    8000137c:	00a5d813          	srli	a6,a1,0xa
        uint32_t rd_rs2 =  ((ins & INS_C_RDRS2_MASK) >> INS_C_RDRS2_OFF) + 8;
    80001380:	8b9d                	andi	a5,a5,7
        uint32_t rs1 = ((ins & INS_C_RS1_MASK) >> INS_C_RS1_OFF) + 8;
    80001382:	8b1d                	andi	a4,a4,7
        uint32_t imm = ((ins & INS_C_IMM1_MASK)  >> INS_C_IMM1_OFF) << 3 |
    80001384:	00787813          	andi	a6,a6,7
        uint32_t rd_rs2 =  ((ins & INS_C_RDRS2_MASK) >> INS_C_RDRS2_OFF) + 8;
    80001388:	27a1                	addiw	a5,a5,8
        uint32_t rs1 = ((ins & INS_C_RS1_MASK) >> INS_C_RS1_OFF) + 8;
    8000138a:	2721                	addiw	a4,a4,8
        uint32_t imm = ((ins & INS_C_IMM1_MASK)  >> INS_C_IMM1_OFF) << 3 |
    8000138c:	4601                	li	a2,0
    8000138e:	fc0803e3          	beqz	a6,80001354 <expand_compressed_instruction+0x90>
    80001392:	bf4d                	j	80001344 <expand_compressed_instruction+0x80>
            (is_load ? MATCH_LD : MATCH_SD):
    80001394:	668d                	lui	a3,0x3
    80001396:	02368693          	addi	a3,a3,35 # 3023 <_test_table_size+0x3022>
    8000139a:	4501                	li	a0,0
    8000139c:	bf61                	j	80001334 <expand_compressed_instruction+0x70>
    8000139e:	6689                	lui	a3,0x2
    800013a0:	02368693          	addi	a3,a3,35 # 2023 <_test_table_size+0x2022>
    800013a4:	4501                	li	a0,0
    800013a6:	b7f9                	j	80001374 <expand_compressed_instruction+0xb0>

00000000800013a8 <reset_state>:

extern void hshandler_entry();
extern void mhandler_entry();
extern void vshandler_entry();
    
void reset_state(){
    800013a8:	1141                	addi	sp,sp,-16

    goto_priv(PRIV_M);
    800013aa:	4511                	li	a0,4
void reset_state(){
    800013ac:	e406                	sd	ra,8(sp)
    goto_priv(PRIV_M);
    800013ae:	f2aff0ef          	jal	80000ad8 <goto_priv>
    CSRW(mstatus, 0ULL);
    800013b2:	30005073          	csrwi	mstatus,0
    //CSRW(mtvec, 0ULL);
    CSRW(medeleg, 0ULL);
    800013b6:	30205073          	csrwi	medeleg,0
    CSRW(mideleg, 0ULL);
    800013ba:	30305073          	csrwi	mideleg,0
    CSRW(mip, 0ULL);
    800013be:	34405073          	csrwi	mip,0
    CSRW(mie, 0ULL);
    800013c2:	30405073          	csrwi	mie,0
    //CSRW(mtime, 0ULL); 
    //CSRW(mtimecmp, 0ULL); 
    CSRW(mscratch, 0ULL);
    800013c6:	34005073          	csrwi	mscratch,0
    CSRW(mepc, 0ULL);
    800013ca:	34105073          	csrwi	mepc,0
    CSRW(mtval, 0ULL);
    800013ce:	34305073          	csrwi	mtval,0
    CSRW(CSR_MTINST, 0ULL);
    800013d2:	34a05073          	csrwi	0x34a,0
    CSRW(CSR_MTVAL2, 0ULL);
    800013d6:	34b05073          	csrwi	0x34b,0
    //what about pmp register?
    CSRW(sstatus, 0ULL);
    800013da:	10005073          	csrwi	sstatus,0
    //CSRW(stvec, 0ULL);
    CSRW(sip, 0ULL);
    800013de:	14405073          	csrwi	sip,0
    CSRW(sie, 0ULL);
    800013e2:	10405073          	csrwi	sie,0
    CSRW(sscratch, 0ULL);
    800013e6:	14005073          	csrwi	sscratch,0
    CSRW(sepc, 0ULL);
    800013ea:	14105073          	csrwi	sepc,0
    CSRW(scause, 0ULL);
    800013ee:	14205073          	csrwi	scause,0
    CSRW(stval, 0ULL);
    800013f2:	14305073          	csrwi	stval,0
    CSRW(satp, 0ULL);
    800013f6:	18005073          	csrwi	satp,0
    CSRW(CSR_HSTATUS, 0ULL);
    800013fa:	60005073          	csrwi	hstatus,0
    CSRW(CSR_HIDELEG, 0ULL);
    800013fe:	60305073          	csrwi	hideleg,0
    CSRW(CSR_HEDELEG, 0ULL);
    80001402:	60205073          	csrwi	hedeleg,0
    CSRW(CSR_HVIP, 0ULL);
    80001406:	64505073          	csrwi	hvip,0
    CSRW(CSR_HIP, 0ULL);
    8000140a:	64405073          	csrwi	hip,0
    CSRW(CSR_HIE, 0ULL);  
    8000140e:	60405073          	csrwi	hie,0
    CSRW(CSR_HTVAL, 0ULL);
    80001412:	64305073          	csrwi	htval,0
    CSRW(CSR_HTINST, 0ULL);
    80001416:	64a05073          	csrwi	htinst,0
    CSRW(CSR_HGATP, 0ULL);
    8000141a:	68005073          	csrwi	hgatp,0
    CSRW(CSR_VSSTATUS, 0ULL);
    8000141e:	20005073          	csrwi	vsstatus,0
    CSRW(CSR_VSIP, 0ULL);
    80001422:	24405073          	csrwi	vsip,0
    CSRW(CSR_VSIE, 0ULL);
    80001426:	20405073          	csrwi	vsie,0
    //CSRW(CSR_VSTVEC, 0ULL);
    CSRW(CSR_VSSCRATCH, 0ULL);
    8000142a:	24005073          	csrwi	vsscratch,0
    CSRW(CSR_VSEPC, 0ULL);
    8000142e:	24105073          	csrwi	vsepc,0
    CSRW(CSR_VSCAUSE, 0ULL);
    80001432:	24205073          	csrwi	vscause,0
    CSRW(CSR_VSTVAL, 0ULL);
    80001436:	24305073          	csrwi	vstval,0
    CSRW(CSR_VSATP, 0ULL);  
    8000143a:	28005073          	csrwi	vsatp,0

    CSRW(mtvec, mhandler_entry);
    8000143e:	00020797          	auipc	a5,0x20
    80001442:	a8278793          	addi	a5,a5,-1406 # 80020ec0 <mhandler_entry>
    80001446:	30579073          	csrw	mtvec,a5
    CSRS(medeleg, (1ULL << 8) | (1ULL << 10));
    8000144a:	50000793          	li	a5,1280
    8000144e:	3027a073          	csrs	medeleg,a5
    // full access to physical memory to other modes
    CSRW(pmpcfg0, 0xf);
    80001452:	3a07d073          	csrwi	pmpcfg0,15
    CSRW(pmpaddr0, (uint64_t) -1);
    80001456:	57fd                	li	a5,-1
    80001458:	3b079073          	csrw	pmpaddr0,a5

    CSRW(stvec, hshandler_entry);
    8000145c:	00020797          	auipc	a5,0x20
    80001460:	aac78793          	addi	a5,a5,-1364 # 80020f08 <hshandler_entry>
    80001464:	10579073          	csrw	stvec,a5
    CSRS(CSR_HEDELEG, (1ULL << 8));
    80001468:	10000793          	li	a5,256
    8000146c:	6027a073          	csrs	hedeleg,a5

    CSRW(CSR_VSTVEC, vshandler_entry);
    80001470:	00020797          	auipc	a5,0x20
    80001474:	ae078793          	addi	a5,a5,-1312 # 80020f50 <vshandler_entry>
    80001478:	20579073          	csrw	vstvec,a5
// }



static inline void sfence(){
    asm volatile ("sfence.vma \n\t");
    8000147c:	12000073          	sfence.vma
        ".insn r 0x73, 0x0, 0x31, x0, x0, x0\n\t"
        ::: "memory");
}

static inline void hfence_vvma() {
    asm volatile(
    80001480:	22000073          	.insn	4, 0x22000073
    asm volatile(
    80001484:	62000073          	.insn	4, 0x62000073

    sfence();
    hfence();
}
    80001488:	60a2                	ld	ra,8(sp)
    8000148a:	0141                	addi	sp,sp,16
    8000148c:	8082                	ret

000000008000148e <check_xip_regs_1>:
#include <rvh_test.h>

bool check_xip_regs_1(){
    8000148e:	7179                	addi	sp,sp,-48

    TEST_START();
    80001490:	00020597          	auipc	a1,0x20
    80001494:	ce058593          	addi	a1,a1,-800 # 80021170 <__func__.3>
    80001498:	00021517          	auipc	a0,0x21
    8000149c:	6b850513          	addi	a0,a0,1720 # 80022b50 <__func__.2+0x2e8>
bool check_xip_regs_1(){
    800014a0:	f406                	sd	ra,40(sp)
    800014a2:	f022                	sd	s0,32(sp)
    800014a4:	ec26                	sd	s1,24(sp)
    800014a6:	e84a                	sd	s2,16(sp)
    800014a8:	e44e                	sd	s3,8(sp)
    800014aa:	e052                	sd	s4,0(sp)
    TEST_START();
    800014ac:	7c41f0ef          	jal	80020c70 <printf>
    800014b0:	4529                	li	a0,10
    800014b2:	64f1e0ef          	jal	80020300 <putchar>

    CSRW(mideleg, 0);
    800014b6:	30305073          	csrwi	mideleg,0

    int64_t mtime_mask = ~((int64_t)0x80);

    CSRW(mideleg, (uint64_t)-1);
    800014ba:	547d                	li	s0,-1
    800014bc:	30341073          	csrw	mideleg,s0
    VERBOSE("setting mideleg and hideleg\n");
    CSRW(CSR_HIDELEG, (uint64_t)-1);
    800014c0:	60341073          	csrw	hideleg,s0
    check_csr_wrrd("vsip", CSR_VSIP, (uint64_t) -1, 0x2);
    800014c4:	244029f3          	csrr	s3,vsip
    800014c8:	24441073          	csrw	vsip,s0
    800014cc:	244024f3          	csrr	s1,vsip
    800014d0:	00022617          	auipc	a2,0x22
    800014d4:	a2060613          	addi	a2,a2,-1504 # 80022ef0 <__func__.2+0x688>
    800014d8:	08200593          	li	a1,130
    800014dc:	00021517          	auipc	a0,0x21
    800014e0:	68c50513          	addi	a0,a0,1676 # 80022b68 <__func__.2+0x300>
    800014e4:	4909                	li	s2,2
    800014e6:	78a1f0ef          	jal	80020c70 <printf>
    800014ea:	11248f63          	beq	s1,s2,80001608 <check_xip_regs_1+0x17a>
    800014ee:	00021597          	auipc	a1,0x21
    800014f2:	65258593          	addi	a1,a1,1618 # 80022b40 <__func__.2+0x2d8>
    800014f6:	00021517          	auipc	a0,0x21
    800014fa:	68a50513          	addi	a0,a0,1674 # 80022b80 <__func__.2+0x318>
    800014fe:	7721f0ef          	jal	80020c70 <printf>
    80001502:	00021517          	auipc	a0,0x21
    80001506:	68650513          	addi	a0,a0,1670 # 80022b88 <__func__.2+0x320>
    8000150a:	7661f0ef          	jal	80020c70 <printf>
    8000150e:	86ca                	mv	a3,s2
    80001510:	8626                	mv	a2,s1
    80001512:	85a2                	mv	a1,s0
    80001514:	00021517          	auipc	a0,0x21
    80001518:	67c50513          	addi	a0,a0,1660 # 80022b90 <__func__.2+0x328>
    8000151c:	7541f0ef          	jal	80020c70 <printf>
    80001520:	02900513          	li	a0,41
    80001524:	5dd1e0ef          	jal	80020300 <putchar>
    80001528:	4529                	li	a0,10
    8000152a:	5d71e0ef          	jal	80020300 <putchar>
    8000152e:	4a01                	li	s4,0
    80001530:	24499073          	csrw	vsip,s3
    check_csr_wrrd("vsie", CSR_VSIE, (uint64_t) -1, 0x2222);        //Shlcofideleg 2222222
    80001534:	204029f3          	csrr	s3,vsie
    80001538:	54fd                	li	s1,-1
    8000153a:	20449073          	csrw	vsie,s1
    8000153e:	20402973          	csrr	s2,vsie
    80001542:	6409                	lui	s0,0x2
    80001544:	00022617          	auipc	a2,0x22
    80001548:	9b460613          	addi	a2,a2,-1612 # 80022ef8 <__func__.2+0x690>
    8000154c:	08200593          	li	a1,130
    80001550:	00021517          	auipc	a0,0x21
    80001554:	61850513          	addi	a0,a0,1560 # 80022b68 <__func__.2+0x300>
    80001558:	22240413          	addi	s0,s0,546 # 2222 <_test_table_size+0x2221>
    8000155c:	7141f0ef          	jal	80020c70 <printf>
    80001560:	06890d63          	beq	s2,s0,800015da <check_xip_regs_1+0x14c>
    80001564:	00021597          	auipc	a1,0x21
    80001568:	5dc58593          	addi	a1,a1,1500 # 80022b40 <__func__.2+0x2d8>
    8000156c:	00021517          	auipc	a0,0x21
    80001570:	61450513          	addi	a0,a0,1556 # 80022b80 <__func__.2+0x318>
    80001574:	6fc1f0ef          	jal	80020c70 <printf>
    80001578:	00021517          	auipc	a0,0x21
    8000157c:	61050513          	addi	a0,a0,1552 # 80022b88 <__func__.2+0x320>
    80001580:	6f01f0ef          	jal	80020c70 <printf>
    80001584:	86a2                	mv	a3,s0
    80001586:	864a                	mv	a2,s2
    80001588:	85a6                	mv	a1,s1
    8000158a:	00021517          	auipc	a0,0x21
    8000158e:	60650513          	addi	a0,a0,1542 # 80022b90 <__func__.2+0x328>
    80001592:	6de1f0ef          	jal	80020c70 <printf>
    80001596:	02900513          	li	a0,41
    8000159a:	5671e0ef          	jal	80020300 <putchar>
    8000159e:	4529                	li	a0,10
    800015a0:	5611e0ef          	jal	80020300 <putchar>
    800015a4:	20499073          	csrw	vsie,s3
    800015a8:	4401                	li	s0,0
    
    TEST_END();
    800015aa:	00021597          	auipc	a1,0x21
    800015ae:	59658593          	addi	a1,a1,1430 # 80022b40 <__func__.2+0x2d8>
    800015b2:	00021517          	auipc	a0,0x21
    800015b6:	63650513          	addi	a0,a0,1590 # 80022be8 <__func__.2+0x380>
    800015ba:	6b61f0ef          	jal	80020c70 <printf>
    800015be:	4511                	li	a0,4
    800015c0:	d18ff0ef          	jal	80000ad8 <goto_priv>
    800015c4:	de5ff0ef          	jal	800013a8 <reset_state>
}
    800015c8:	70a2                	ld	ra,40(sp)
    800015ca:	8522                	mv	a0,s0
    800015cc:	7402                	ld	s0,32(sp)
    800015ce:	64e2                	ld	s1,24(sp)
    800015d0:	6942                	ld	s2,16(sp)
    800015d2:	69a2                	ld	s3,8(sp)
    800015d4:	6a02                	ld	s4,0(sp)
    800015d6:	6145                	addi	sp,sp,48
    800015d8:	8082                	ret
    check_csr_wrrd("vsie", CSR_VSIE, (uint64_t) -1, 0x2222);        //Shlcofideleg 2222222
    800015da:	00021597          	auipc	a1,0x21
    800015de:	55658593          	addi	a1,a1,1366 # 80022b30 <__func__.2+0x2c8>
    800015e2:	00021517          	auipc	a0,0x21
    800015e6:	59e50513          	addi	a0,a0,1438 # 80022b80 <__func__.2+0x318>
    800015ea:	6861f0ef          	jal	80020c70 <printf>
    800015ee:	4529                	li	a0,10
    800015f0:	5111e0ef          	jal	80020300 <putchar>
    800015f4:	fa0a08e3          	beqz	s4,800015a4 <check_xip_regs_1+0x116>
    800015f8:	20499073          	csrw	vsie,s3
    800015fc:	4405                	li	s0,1
    TEST_END();
    800015fe:	00021597          	auipc	a1,0x21
    80001602:	53258593          	addi	a1,a1,1330 # 80022b30 <__func__.2+0x2c8>
    80001606:	b775                	j	800015b2 <check_xip_regs_1+0x124>
    check_csr_wrrd("vsip", CSR_VSIP, (uint64_t) -1, 0x2);
    80001608:	00021597          	auipc	a1,0x21
    8000160c:	52858593          	addi	a1,a1,1320 # 80022b30 <__func__.2+0x2c8>
    80001610:	00021517          	auipc	a0,0x21
    80001614:	57050513          	addi	a0,a0,1392 # 80022b80 <__func__.2+0x318>
    80001618:	6581f0ef          	jal	80020c70 <printf>
    8000161c:	4529                	li	a0,10
    8000161e:	4e31e0ef          	jal	80020300 <putchar>
    80001622:	4a05                	li	s4,1
    80001624:	b731                	j	80001530 <check_xip_regs_1+0xa2>

0000000080001626 <check_xip_regs_2>:

bool check_xip_regs_2(){
    80001626:	1101                	addi	sp,sp,-32

    TEST_START();
    80001628:	00020597          	auipc	a1,0x20
    8000162c:	b6058593          	addi	a1,a1,-1184 # 80021188 <__func__.2>
    80001630:	00021517          	auipc	a0,0x21
    80001634:	52050513          	addi	a0,a0,1312 # 80022b50 <__func__.2+0x2e8>
bool check_xip_regs_2(){
    80001638:	ec06                	sd	ra,24(sp)
    8000163a:	e822                	sd	s0,16(sp)
    8000163c:	e426                	sd	s1,8(sp)
    8000163e:	e04a                	sd	s2,0(sp)
    TEST_START();
    80001640:	6301f0ef          	jal	80020c70 <printf>
    80001644:	4529                	li	a0,10
    80001646:	4bb1e0ef          	jal	80020300 <putchar>

    CSRC(CSR_MENVCFG,1ULL<<63);                   //menvcfg.stce=0,mipstip1
    8000164a:	57fd                	li	a5,-1
    8000164c:	03f79713          	slli	a4,a5,0x3f
    80001650:	30a73073          	csrc	0x30a,a4

    CSRW(mideleg, (uint64_t)-1);
    80001654:	30379073          	csrw	mideleg,a5
    VERBOSE("setting mideleg and hideleg\n");
    
    CSRW(CSR_HIDELEG, (uint64_t)-1);
    80001658:	60379073          	csrw	hideleg,a5

    VERBOSE("setting all in mip\n");
    CSRW(mip, (uint64_t)-1);
    8000165c:	34479073          	csrw	mip,a5
    check_csr_rd("hip", CSR_HIP, 0x4);
    80001660:	64402473          	csrr	s0,hip
    80001664:	00022617          	auipc	a2,0x22
    80001668:	89c60613          	addi	a2,a2,-1892 # 80022f00 <__func__.2+0x698>
    8000166c:	08200593          	li	a1,130
    80001670:	00021517          	auipc	a0,0x21
    80001674:	4f850513          	addi	a0,a0,1272 # 80022b68 <__func__.2+0x300>
    80001678:	4491                	li	s1,4
    8000167a:	5f61f0ef          	jal	80020c70 <printf>
    8000167e:	46940463          	beq	s0,s1,80001ae6 <check_xip_regs_2+0x4c0>
    80001682:	00021597          	auipc	a1,0x21
    80001686:	4be58593          	addi	a1,a1,1214 # 80022b40 <__func__.2+0x2d8>
    8000168a:	00021517          	auipc	a0,0x21
    8000168e:	4f650513          	addi	a0,a0,1270 # 80022b80 <__func__.2+0x318>
    80001692:	5de1f0ef          	jal	80020c70 <printf>
    80001696:	00021517          	auipc	a0,0x21
    8000169a:	4f250513          	addi	a0,a0,1266 # 80022b88 <__func__.2+0x320>
    8000169e:	5d21f0ef          	jal	80020c70 <printf>
    800016a2:	8622                	mv	a2,s0
    800016a4:	86a6                	mv	a3,s1
    800016a6:	02d00593          	li	a1,45
    800016aa:	00022517          	auipc	a0,0x22
    800016ae:	85e50513          	addi	a0,a0,-1954 # 80022f08 <__func__.2+0x6a0>
    800016b2:	5be1f0ef          	jal	80020c70 <printf>
    800016b6:	02900513          	li	a0,41
    800016ba:	4471e0ef          	jal	80020300 <putchar>
    800016be:	4529                	li	a0,10
    800016c0:	4411e0ef          	jal	80020300 <putchar>
    800016c4:	4401                	li	s0,0
    check_csr_rd("sip", sip, 0x222);    
    800016c6:	144024f3          	csrr	s1,sip
    800016ca:	00022617          	auipc	a2,0x22
    800016ce:	85660613          	addi	a2,a2,-1962 # 80022f20 <__func__.2+0x6b8>
    800016d2:	08200593          	li	a1,130
    800016d6:	00021517          	auipc	a0,0x21
    800016da:	49250513          	addi	a0,a0,1170 # 80022b68 <__func__.2+0x300>
    800016de:	22200913          	li	s2,546
    800016e2:	58e1f0ef          	jal	80020c70 <printf>
    800016e6:	3b248663          	beq	s1,s2,80001a92 <check_xip_regs_2+0x46c>
    800016ea:	00021597          	auipc	a1,0x21
    800016ee:	45658593          	addi	a1,a1,1110 # 80022b40 <__func__.2+0x2d8>
    800016f2:	00021517          	auipc	a0,0x21
    800016f6:	48e50513          	addi	a0,a0,1166 # 80022b80 <__func__.2+0x318>
    800016fa:	5761f0ef          	jal	80020c70 <printf>
    800016fe:	00021517          	auipc	a0,0x21
    80001702:	48a50513          	addi	a0,a0,1162 # 80022b88 <__func__.2+0x320>
    80001706:	56a1f0ef          	jal	80020c70 <printf>
    8000170a:	86ca                	mv	a3,s2
    8000170c:	8626                	mv	a2,s1
    8000170e:	02d00593          	li	a1,45
    80001712:	00021517          	auipc	a0,0x21
    80001716:	7f650513          	addi	a0,a0,2038 # 80022f08 <__func__.2+0x6a0>
    8000171a:	5561f0ef          	jal	80020c70 <printf>
    8000171e:	02900513          	li	a0,41
    80001722:	3df1e0ef          	jal	80020300 <putchar>
    80001726:	4529                	li	a0,10
    80001728:	3d91e0ef          	jal	80020300 <putchar>
    8000172c:	4401                	li	s0,0

    // check_csr_rd_mask("mip", mip, 0x226, mtime_mask); // only test when nemu don't use difftest because spike, as ref, shut up time interrupt
    check_csr_rd("vsip", CSR_VSIP, 0x2);
    8000172e:	244024f3          	csrr	s1,vsip
    80001732:	00021617          	auipc	a2,0x21
    80001736:	7be60613          	addi	a2,a2,1982 # 80022ef0 <__func__.2+0x688>
    8000173a:	08200593          	li	a1,130
    8000173e:	00021517          	auipc	a0,0x21
    80001742:	42a50513          	addi	a0,a0,1066 # 80022b68 <__func__.2+0x300>
    80001746:	4909                	li	s2,2
    80001748:	5281f0ef          	jal	80020c70 <printf>
    8000174c:	37248f63          	beq	s1,s2,80001aca <check_xip_regs_2+0x4a4>
    80001750:	00021597          	auipc	a1,0x21
    80001754:	3f058593          	addi	a1,a1,1008 # 80022b40 <__func__.2+0x2d8>
    80001758:	00021517          	auipc	a0,0x21
    8000175c:	42850513          	addi	a0,a0,1064 # 80022b80 <__func__.2+0x318>
    80001760:	5101f0ef          	jal	80020c70 <printf>
    80001764:	00021517          	auipc	a0,0x21
    80001768:	42450513          	addi	a0,a0,1060 # 80022b88 <__func__.2+0x320>
    8000176c:	5041f0ef          	jal	80020c70 <printf>
    80001770:	86ca                	mv	a3,s2
    80001772:	8626                	mv	a2,s1
    80001774:	02d00593          	li	a1,45
    80001778:	00021517          	auipc	a0,0x21
    8000177c:	79050513          	addi	a0,a0,1936 # 80022f08 <__func__.2+0x6a0>
    80001780:	4f01f0ef          	jal	80020c70 <printf>
    80001784:	02900513          	li	a0,41
    80001788:	3791e0ef          	jal	80020300 <putchar>
    8000178c:	4529                	li	a0,10
    8000178e:	3731e0ef          	jal	80020300 <putchar>
    80001792:	4401                	li	s0,0
    goto_priv(PRIV_VS);
    80001794:	4509                	li	a0,2
    80001796:	b42ff0ef          	jal	80000ad8 <goto_priv>
    check_csr_rd("sip (vs perspective)", sip, 0x2);
    8000179a:	144024f3          	csrr	s1,sip
    8000179e:	00021617          	auipc	a2,0x21
    800017a2:	78a60613          	addi	a2,a2,1930 # 80022f28 <__func__.2+0x6c0>
    800017a6:	08200593          	li	a1,130
    800017aa:	00021517          	auipc	a0,0x21
    800017ae:	3be50513          	addi	a0,a0,958 # 80022b68 <__func__.2+0x300>
    800017b2:	4909                	li	s2,2
    800017b4:	4bc1f0ef          	jal	80020c70 <printf>
    800017b8:	2f248b63          	beq	s1,s2,80001aae <check_xip_regs_2+0x488>
    800017bc:	00021597          	auipc	a1,0x21
    800017c0:	38458593          	addi	a1,a1,900 # 80022b40 <__func__.2+0x2d8>
    800017c4:	00021517          	auipc	a0,0x21
    800017c8:	3bc50513          	addi	a0,a0,956 # 80022b80 <__func__.2+0x318>
    800017cc:	4a41f0ef          	jal	80020c70 <printf>
    800017d0:	00021517          	auipc	a0,0x21
    800017d4:	3b850513          	addi	a0,a0,952 # 80022b88 <__func__.2+0x320>
    800017d8:	4981f0ef          	jal	80020c70 <printf>
    800017dc:	86ca                	mv	a3,s2
    800017de:	8626                	mv	a2,s1
    800017e0:	02d00593          	li	a1,45
    800017e4:	00021517          	auipc	a0,0x21
    800017e8:	72450513          	addi	a0,a0,1828 # 80022f08 <__func__.2+0x6a0>
    800017ec:	4841f0ef          	jal	80020c70 <printf>
    800017f0:	02900513          	li	a0,41
    800017f4:	30d1e0ef          	jal	80020300 <putchar>
    800017f8:	4529                	li	a0,10
    800017fa:	3071e0ef          	jal	80020300 <putchar>
    800017fe:	4401                	li	s0,0
    goto_priv(PRIV_M);
    80001800:	4511                	li	a0,4
    80001802:	ad6ff0ef          	jal	80000ad8 <goto_priv>

    VERBOSE("clearing all in mip\n");
    CSRW(mip, (uint64_t)0);
    80001806:	34405073          	csrwi	mip,0
    check_csr_rd("hip", CSR_HIP, 0x0);
    8000180a:	644024f3          	csrr	s1,hip
    8000180e:	00021617          	auipc	a2,0x21
    80001812:	6f260613          	addi	a2,a2,1778 # 80022f00 <__func__.2+0x698>
    80001816:	08200593          	li	a1,130
    8000181a:	00021517          	auipc	a0,0x21
    8000181e:	34e50513          	addi	a0,a0,846 # 80022b68 <__func__.2+0x300>
    80001822:	44e1f0ef          	jal	80020c70 <printf>
    80001826:	1a048663          	beqz	s1,800019d2 <check_xip_regs_2+0x3ac>
    8000182a:	00021597          	auipc	a1,0x21
    8000182e:	31658593          	addi	a1,a1,790 # 80022b40 <__func__.2+0x2d8>
    80001832:	00021517          	auipc	a0,0x21
    80001836:	34e50513          	addi	a0,a0,846 # 80022b80 <__func__.2+0x318>
    8000183a:	4361f0ef          	jal	80020c70 <printf>
    8000183e:	00021517          	auipc	a0,0x21
    80001842:	34a50513          	addi	a0,a0,842 # 80022b88 <__func__.2+0x320>
    80001846:	42a1f0ef          	jal	80020c70 <printf>
    8000184a:	8626                	mv	a2,s1
    8000184c:	4681                	li	a3,0
    8000184e:	02d00593          	li	a1,45
    80001852:	00021517          	auipc	a0,0x21
    80001856:	6b650513          	addi	a0,a0,1718 # 80022f08 <__func__.2+0x6a0>
    8000185a:	4161f0ef          	jal	80020c70 <printf>
    8000185e:	02900513          	li	a0,41
    80001862:	29f1e0ef          	jal	80020300 <putchar>
    80001866:	4529                	li	a0,10
    80001868:	2991e0ef          	jal	80020300 <putchar>
    8000186c:	4401                	li	s0,0
    check_csr_rd("sip", sip, 0x0);
    8000186e:	144024f3          	csrr	s1,sip
    80001872:	00021617          	auipc	a2,0x21
    80001876:	6ae60613          	addi	a2,a2,1710 # 80022f20 <__func__.2+0x6b8>
    8000187a:	08200593          	li	a1,130
    8000187e:	00021517          	auipc	a0,0x21
    80001882:	2ea50513          	addi	a0,a0,746 # 80022b68 <__func__.2+0x300>
    80001886:	3ea1f0ef          	jal	80020c70 <printf>
    8000188a:	18048163          	beqz	s1,80001a0c <check_xip_regs_2+0x3e6>
    8000188e:	00021597          	auipc	a1,0x21
    80001892:	2b258593          	addi	a1,a1,690 # 80022b40 <__func__.2+0x2d8>
    80001896:	00021517          	auipc	a0,0x21
    8000189a:	2ea50513          	addi	a0,a0,746 # 80022b80 <__func__.2+0x318>
    8000189e:	3d21f0ef          	jal	80020c70 <printf>
    800018a2:	00021517          	auipc	a0,0x21
    800018a6:	2e650513          	addi	a0,a0,742 # 80022b88 <__func__.2+0x320>
    800018aa:	3c61f0ef          	jal	80020c70 <printf>
    800018ae:	8626                	mv	a2,s1
    800018b0:	4681                	li	a3,0
    800018b2:	02d00593          	li	a1,45
    800018b6:	00021517          	auipc	a0,0x21
    800018ba:	65250513          	addi	a0,a0,1618 # 80022f08 <__func__.2+0x6a0>
    800018be:	3b21f0ef          	jal	80020c70 <printf>
    800018c2:	02900513          	li	a0,41
    800018c6:	23b1e0ef          	jal	80020300 <putchar>
    800018ca:	4529                	li	a0,10
    800018cc:	2351e0ef          	jal	80020300 <putchar>
    800018d0:	4401                	li	s0,0
    // check_csr_rd_mask("mip", mip, 0x000, mtime_mask);
    check_csr_rd("vsip", CSR_VSIP, 0x0);
    800018d2:	244024f3          	csrr	s1,vsip
    800018d6:	00021617          	auipc	a2,0x21
    800018da:	61a60613          	addi	a2,a2,1562 # 80022ef0 <__func__.2+0x688>
    800018de:	08200593          	li	a1,130
    800018e2:	00021517          	auipc	a0,0x21
    800018e6:	28650513          	addi	a0,a0,646 # 80022b68 <__func__.2+0x300>
    800018ea:	3861f0ef          	jal	80020c70 <printf>
    800018ee:	14048c63          	beqz	s1,80001a46 <check_xip_regs_2+0x420>
    800018f2:	00021597          	auipc	a1,0x21
    800018f6:	24e58593          	addi	a1,a1,590 # 80022b40 <__func__.2+0x2d8>
    800018fa:	00021517          	auipc	a0,0x21
    800018fe:	28650513          	addi	a0,a0,646 # 80022b80 <__func__.2+0x318>
    80001902:	36e1f0ef          	jal	80020c70 <printf>
    80001906:	00021517          	auipc	a0,0x21
    8000190a:	28250513          	addi	a0,a0,642 # 80022b88 <__func__.2+0x320>
    8000190e:	3621f0ef          	jal	80020c70 <printf>
    80001912:	8626                	mv	a2,s1
    80001914:	4681                	li	a3,0
    80001916:	02d00593          	li	a1,45
    8000191a:	00021517          	auipc	a0,0x21
    8000191e:	5ee50513          	addi	a0,a0,1518 # 80022f08 <__func__.2+0x6a0>
    80001922:	34e1f0ef          	jal	80020c70 <printf>
    80001926:	02900513          	li	a0,41
    8000192a:	1d71e0ef          	jal	80020300 <putchar>
    8000192e:	4529                	li	a0,10
    80001930:	1d11e0ef          	jal	80020300 <putchar>
    80001934:	4401                	li	s0,0
    goto_priv(PRIV_VS);
    80001936:	4509                	li	a0,2
    80001938:	9a0ff0ef          	jal	80000ad8 <goto_priv>
    check_csr_rd("sip (vs perspective)", sip, 0x0);
    8000193c:	144024f3          	csrr	s1,sip
    80001940:	00021617          	auipc	a2,0x21
    80001944:	5e860613          	addi	a2,a2,1512 # 80022f28 <__func__.2+0x6c0>
    80001948:	08200593          	li	a1,130
    8000194c:	00021517          	auipc	a0,0x21
    80001950:	21c50513          	addi	a0,a0,540 # 80022b68 <__func__.2+0x300>
    80001954:	31c1f0ef          	jal	80020c70 <printf>
    80001958:	10048563          	beqz	s1,80001a62 <check_xip_regs_2+0x43c>
    8000195c:	00021597          	auipc	a1,0x21
    80001960:	1e458593          	addi	a1,a1,484 # 80022b40 <__func__.2+0x2d8>
    80001964:	00021517          	auipc	a0,0x21
    80001968:	21c50513          	addi	a0,a0,540 # 80022b80 <__func__.2+0x318>
    8000196c:	3041f0ef          	jal	80020c70 <printf>
    80001970:	00021517          	auipc	a0,0x21
    80001974:	21850513          	addi	a0,a0,536 # 80022b88 <__func__.2+0x320>
    80001978:	2f81f0ef          	jal	80020c70 <printf>
    8000197c:	8626                	mv	a2,s1
    8000197e:	4681                	li	a3,0
    80001980:	02d00593          	li	a1,45
    80001984:	00021517          	auipc	a0,0x21
    80001988:	58450513          	addi	a0,a0,1412 # 80022f08 <__func__.2+0x6a0>
    8000198c:	2e41f0ef          	jal	80020c70 <printf>
    80001990:	02900513          	li	a0,41
    80001994:	16d1e0ef          	jal	80020300 <putchar>
    80001998:	4529                	li	a0,10
    8000199a:	1671e0ef          	jal	80020300 <putchar>
    goto_priv(PRIV_M);   
    8000199e:	4511                	li	a0,4
    800019a0:	938ff0ef          	jal	80000ad8 <goto_priv>
    check_csr_rd("sip (vs perspective)", sip, 0x0);
    800019a4:	4401                	li	s0,0

    TEST_END();
    800019a6:	00021597          	auipc	a1,0x21
    800019aa:	19a58593          	addi	a1,a1,410 # 80022b40 <__func__.2+0x2d8>
    800019ae:	00021517          	auipc	a0,0x21
    800019b2:	23a50513          	addi	a0,a0,570 # 80022be8 <__func__.2+0x380>
    800019b6:	2ba1f0ef          	jal	80020c70 <printf>
    800019ba:	4511                	li	a0,4
    800019bc:	91cff0ef          	jal	80000ad8 <goto_priv>
    800019c0:	9e9ff0ef          	jal	800013a8 <reset_state>
}
    800019c4:	60e2                	ld	ra,24(sp)
    800019c6:	8522                	mv	a0,s0
    800019c8:	6442                	ld	s0,16(sp)
    800019ca:	64a2                	ld	s1,8(sp)
    800019cc:	6902                	ld	s2,0(sp)
    800019ce:	6105                	addi	sp,sp,32
    800019d0:	8082                	ret
    check_csr_rd("hip", CSR_HIP, 0x0);
    800019d2:	00021597          	auipc	a1,0x21
    800019d6:	15e58593          	addi	a1,a1,350 # 80022b30 <__func__.2+0x2c8>
    800019da:	00021517          	auipc	a0,0x21
    800019de:	1a650513          	addi	a0,a0,422 # 80022b80 <__func__.2+0x318>
    800019e2:	28e1f0ef          	jal	80020c70 <printf>
    800019e6:	4529                	li	a0,10
    800019e8:	1191e0ef          	jal	80020300 <putchar>
    check_csr_rd("sip", sip, 0x0);
    800019ec:	144024f3          	csrr	s1,sip
    800019f0:	00021617          	auipc	a2,0x21
    800019f4:	53060613          	addi	a2,a2,1328 # 80022f20 <__func__.2+0x6b8>
    800019f8:	08200593          	li	a1,130
    800019fc:	00021517          	auipc	a0,0x21
    80001a00:	16c50513          	addi	a0,a0,364 # 80022b68 <__func__.2+0x300>
    80001a04:	26c1f0ef          	jal	80020c70 <printf>
    80001a08:	e80493e3          	bnez	s1,8000188e <check_xip_regs_2+0x268>
    80001a0c:	00021597          	auipc	a1,0x21
    80001a10:	12458593          	addi	a1,a1,292 # 80022b30 <__func__.2+0x2c8>
    80001a14:	00021517          	auipc	a0,0x21
    80001a18:	16c50513          	addi	a0,a0,364 # 80022b80 <__func__.2+0x318>
    80001a1c:	2541f0ef          	jal	80020c70 <printf>
    80001a20:	4529                	li	a0,10
    80001a22:	0df1e0ef          	jal	80020300 <putchar>
    check_csr_rd("vsip", CSR_VSIP, 0x0);
    80001a26:	244024f3          	csrr	s1,vsip
    80001a2a:	00021617          	auipc	a2,0x21
    80001a2e:	4c660613          	addi	a2,a2,1222 # 80022ef0 <__func__.2+0x688>
    80001a32:	08200593          	li	a1,130
    80001a36:	00021517          	auipc	a0,0x21
    80001a3a:	13250513          	addi	a0,a0,306 # 80022b68 <__func__.2+0x300>
    80001a3e:	2321f0ef          	jal	80020c70 <printf>
    80001a42:	ea0498e3          	bnez	s1,800018f2 <check_xip_regs_2+0x2cc>
    80001a46:	00021597          	auipc	a1,0x21
    80001a4a:	0ea58593          	addi	a1,a1,234 # 80022b30 <__func__.2+0x2c8>
    80001a4e:	00021517          	auipc	a0,0x21
    80001a52:	13250513          	addi	a0,a0,306 # 80022b80 <__func__.2+0x318>
    80001a56:	21a1f0ef          	jal	80020c70 <printf>
    80001a5a:	4529                	li	a0,10
    80001a5c:	0a51e0ef          	jal	80020300 <putchar>
    80001a60:	bdd9                	j	80001936 <check_xip_regs_2+0x310>
    check_csr_rd("sip (vs perspective)", sip, 0x0);
    80001a62:	00021597          	auipc	a1,0x21
    80001a66:	0ce58593          	addi	a1,a1,206 # 80022b30 <__func__.2+0x2c8>
    80001a6a:	00021517          	auipc	a0,0x21
    80001a6e:	11650513          	addi	a0,a0,278 # 80022b80 <__func__.2+0x318>
    80001a72:	1fe1f0ef          	jal	80020c70 <printf>
    80001a76:	4529                	li	a0,10
    80001a78:	0891e0ef          	jal	80020300 <putchar>
    80001a7c:	f20401e3          	beqz	s0,8000199e <check_xip_regs_2+0x378>
    goto_priv(PRIV_M);   
    80001a80:	4511                	li	a0,4
    80001a82:	856ff0ef          	jal	80000ad8 <goto_priv>
    check_csr_rd("sip (vs perspective)", sip, 0x0);
    80001a86:	4405                	li	s0,1
    TEST_END();
    80001a88:	00021597          	auipc	a1,0x21
    80001a8c:	0a858593          	addi	a1,a1,168 # 80022b30 <__func__.2+0x2c8>
    80001a90:	bf39                	j	800019ae <check_xip_regs_2+0x388>
    check_csr_rd("sip", sip, 0x222);    
    80001a92:	00021597          	auipc	a1,0x21
    80001a96:	09e58593          	addi	a1,a1,158 # 80022b30 <__func__.2+0x2c8>
    80001a9a:	00021517          	auipc	a0,0x21
    80001a9e:	0e650513          	addi	a0,a0,230 # 80022b80 <__func__.2+0x318>
    80001aa2:	1ce1f0ef          	jal	80020c70 <printf>
    80001aa6:	4529                	li	a0,10
    80001aa8:	0591e0ef          	jal	80020300 <putchar>
    80001aac:	b149                	j	8000172e <check_xip_regs_2+0x108>
    check_csr_rd("sip (vs perspective)", sip, 0x2);
    80001aae:	00021597          	auipc	a1,0x21
    80001ab2:	08258593          	addi	a1,a1,130 # 80022b30 <__func__.2+0x2c8>
    80001ab6:	00021517          	auipc	a0,0x21
    80001aba:	0ca50513          	addi	a0,a0,202 # 80022b80 <__func__.2+0x318>
    80001abe:	1b21f0ef          	jal	80020c70 <printf>
    80001ac2:	4529                	li	a0,10
    80001ac4:	03d1e0ef          	jal	80020300 <putchar>
    80001ac8:	bb25                	j	80001800 <check_xip_regs_2+0x1da>
    check_csr_rd("vsip", CSR_VSIP, 0x2);
    80001aca:	00021597          	auipc	a1,0x21
    80001ace:	06658593          	addi	a1,a1,102 # 80022b30 <__func__.2+0x2c8>
    80001ad2:	00021517          	auipc	a0,0x21
    80001ad6:	0ae50513          	addi	a0,a0,174 # 80022b80 <__func__.2+0x318>
    80001ada:	1961f0ef          	jal	80020c70 <printf>
    80001ade:	4529                	li	a0,10
    80001ae0:	0211e0ef          	jal	80020300 <putchar>
    80001ae4:	b945                	j	80001794 <check_xip_regs_2+0x16e>
    check_csr_rd("hip", CSR_HIP, 0x4);
    80001ae6:	00021597          	auipc	a1,0x21
    80001aea:	04a58593          	addi	a1,a1,74 # 80022b30 <__func__.2+0x2c8>
    80001aee:	00021517          	auipc	a0,0x21
    80001af2:	09250513          	addi	a0,a0,146 # 80022b80 <__func__.2+0x318>
    80001af6:	17a1f0ef          	jal	80020c70 <printf>
    80001afa:	4529                	li	a0,10
    80001afc:	0051e0ef          	jal	80020300 <putchar>
    80001b00:	4405                	li	s0,1
    80001b02:	b6d1                	j	800016c6 <check_xip_regs_2+0xa0>

0000000080001b04 <check_xip_regs_3>:

bool check_xip_regs_3(){
    80001b04:	1101                	addi	sp,sp,-32

    TEST_START();
    80001b06:	0001f597          	auipc	a1,0x1f
    80001b0a:	69a58593          	addi	a1,a1,1690 # 800211a0 <__func__.1>
    80001b0e:	00021517          	auipc	a0,0x21
    80001b12:	04250513          	addi	a0,a0,66 # 80022b50 <__func__.2+0x2e8>
bool check_xip_regs_3(){
    80001b16:	ec06                	sd	ra,24(sp)
    80001b18:	e822                	sd	s0,16(sp)
    80001b1a:	e426                	sd	s1,8(sp)
    80001b1c:	e04a                	sd	s2,0(sp)
    TEST_START();
    80001b1e:	1521f0ef          	jal	80020c70 <printf>
    80001b22:	4529                	li	a0,10
    80001b24:	7dc1e0ef          	jal	80020300 <putchar>

    CSRW(mideleg, (uint64_t)-1);
    80001b28:	57fd                	li	a5,-1
    80001b2a:	30379073          	csrw	mideleg,a5
    VERBOSE("setting mideleg and hideleg\n");
    CSRW(CSR_HIDELEG, (uint64_t)-1);
    80001b2e:	60379073          	csrw	hideleg,a5

    VERBOSE("setting all in hvip\n");
    CSRW(CSR_HVIP, (uint64_t)-1);
    80001b32:	64579073          	csrw	hvip,a5
    printf("hvip=%llx\n",CSRR(CSR_HVIP));
    80001b36:	645025f3          	csrr	a1,hvip
    80001b3a:	00021517          	auipc	a0,0x21
    80001b3e:	40650513          	addi	a0,a0,1030 # 80022f40 <__func__.2+0x6d8>
    80001b42:	12e1f0ef          	jal	80020c70 <printf>
    check_csr_rd("hvip", CSR_HVIP, 0xffffffffffffe444);
    80001b46:	645024f3          	csrr	s1,hvip
    80001b4a:	7479                	lui	s0,0xffffe
    80001b4c:	00021617          	auipc	a2,0x21
    80001b50:	40460613          	addi	a2,a2,1028 # 80022f50 <__func__.2+0x6e8>
    80001b54:	08200593          	li	a1,130
    80001b58:	00021517          	auipc	a0,0x21
    80001b5c:	01050513          	addi	a0,a0,16 # 80022b68 <__func__.2+0x300>
    80001b60:	44440413          	addi	s0,s0,1092 # ffffffffffffe444 <__stack_top+0xffffffff7fcff444>
    80001b64:	10c1f0ef          	jal	80020c70 <printf>
    80001b68:	4a848663          	beq	s1,s0,80002014 <check_xip_regs_3+0x510>
    80001b6c:	00021597          	auipc	a1,0x21
    80001b70:	fd458593          	addi	a1,a1,-44 # 80022b40 <__func__.2+0x2d8>
    80001b74:	00021517          	auipc	a0,0x21
    80001b78:	00c50513          	addi	a0,a0,12 # 80022b80 <__func__.2+0x318>
    80001b7c:	0f41f0ef          	jal	80020c70 <printf>
    80001b80:	00021517          	auipc	a0,0x21
    80001b84:	00850513          	addi	a0,a0,8 # 80022b88 <__func__.2+0x320>
    80001b88:	0e81f0ef          	jal	80020c70 <printf>
    80001b8c:	86a2                	mv	a3,s0
    80001b8e:	8626                	mv	a2,s1
    80001b90:	02d00593          	li	a1,45
    80001b94:	00021517          	auipc	a0,0x21
    80001b98:	37450513          	addi	a0,a0,884 # 80022f08 <__func__.2+0x6a0>
    80001b9c:	0d41f0ef          	jal	80020c70 <printf>
    80001ba0:	02900513          	li	a0,41
    80001ba4:	75c1e0ef          	jal	80020300 <putchar>
    80001ba8:	4529                	li	a0,10
    80001baa:	7561e0ef          	jal	80020300 <putchar>
    80001bae:	4401                	li	s0,0
    check_csr_rd("hip", CSR_HIP, 0x444);
    80001bb0:	644024f3          	csrr	s1,hip
    80001bb4:	00021617          	auipc	a2,0x21
    80001bb8:	34c60613          	addi	a2,a2,844 # 80022f00 <__func__.2+0x698>
    80001bbc:	08200593          	li	a1,130
    80001bc0:	00021517          	auipc	a0,0x21
    80001bc4:	fa850513          	addi	a0,a0,-88 # 80022b68 <__func__.2+0x300>
    80001bc8:	44400913          	li	s2,1092
    80001bcc:	0a41f0ef          	jal	80020c70 <printf>
    80001bd0:	3f248863          	beq	s1,s2,80001fc0 <check_xip_regs_3+0x4bc>
    80001bd4:	00021597          	auipc	a1,0x21
    80001bd8:	f6c58593          	addi	a1,a1,-148 # 80022b40 <__func__.2+0x2d8>
    80001bdc:	00021517          	auipc	a0,0x21
    80001be0:	fa450513          	addi	a0,a0,-92 # 80022b80 <__func__.2+0x318>
    80001be4:	08c1f0ef          	jal	80020c70 <printf>
    80001be8:	00021517          	auipc	a0,0x21
    80001bec:	fa050513          	addi	a0,a0,-96 # 80022b88 <__func__.2+0x320>
    80001bf0:	0801f0ef          	jal	80020c70 <printf>
    80001bf4:	86ca                	mv	a3,s2
    80001bf6:	8626                	mv	a2,s1
    80001bf8:	02d00593          	li	a1,45
    80001bfc:	00021517          	auipc	a0,0x21
    80001c00:	30c50513          	addi	a0,a0,780 # 80022f08 <__func__.2+0x6a0>
    80001c04:	06c1f0ef          	jal	80020c70 <printf>
    80001c08:	02900513          	li	a0,41
    80001c0c:	6f41e0ef          	jal	80020300 <putchar>
    80001c10:	4529                	li	a0,10
    80001c12:	6ee1e0ef          	jal	80020300 <putchar>
    80001c16:	4401                	li	s0,0
    check_csr_rd("sip", sip, 0x0);
    80001c18:	144024f3          	csrr	s1,sip
    80001c1c:	00021617          	auipc	a2,0x21
    80001c20:	30460613          	addi	a2,a2,772 # 80022f20 <__func__.2+0x6b8>
    80001c24:	08200593          	li	a1,130
    80001c28:	00021517          	auipc	a0,0x21
    80001c2c:	f4050513          	addi	a0,a0,-192 # 80022b68 <__func__.2+0x300>
    80001c30:	0401f0ef          	jal	80020c70 <printf>
    80001c34:	2e048763          	beqz	s1,80001f22 <check_xip_regs_3+0x41e>
    80001c38:	00021597          	auipc	a1,0x21
    80001c3c:	f0858593          	addi	a1,a1,-248 # 80022b40 <__func__.2+0x2d8>
    80001c40:	00021517          	auipc	a0,0x21
    80001c44:	f4050513          	addi	a0,a0,-192 # 80022b80 <__func__.2+0x318>
    80001c48:	0281f0ef          	jal	80020c70 <printf>
    80001c4c:	00021517          	auipc	a0,0x21
    80001c50:	f3c50513          	addi	a0,a0,-196 # 80022b88 <__func__.2+0x320>
    80001c54:	01c1f0ef          	jal	80020c70 <printf>
    80001c58:	8626                	mv	a2,s1
    80001c5a:	4681                	li	a3,0
    80001c5c:	02d00593          	li	a1,45
    80001c60:	00021517          	auipc	a0,0x21
    80001c64:	2a850513          	addi	a0,a0,680 # 80022f08 <__func__.2+0x6a0>
    80001c68:	0081f0ef          	jal	80020c70 <printf>
    80001c6c:	02900513          	li	a0,41
    80001c70:	6901e0ef          	jal	80020300 <putchar>
    80001c74:	4529                	li	a0,10
    80001c76:	68a1e0ef          	jal	80020300 <putchar>
    80001c7a:	4401                	li	s0,0
    // check_csr_rd_mask("mip", mip, 0x444, mtime_mask);
    check_csr_rd("vsip", CSR_VSIP, 0x222);
    80001c7c:	244024f3          	csrr	s1,vsip
    80001c80:	00021617          	auipc	a2,0x21
    80001c84:	27060613          	addi	a2,a2,624 # 80022ef0 <__func__.2+0x688>
    80001c88:	08200593          	li	a1,130
    80001c8c:	00021517          	auipc	a0,0x21
    80001c90:	edc50513          	addi	a0,a0,-292 # 80022b68 <__func__.2+0x300>
    80001c94:	22200913          	li	s2,546
    80001c98:	7d91e0ef          	jal	80020c70 <printf>
    80001c9c:	35248e63          	beq	s1,s2,80001ff8 <check_xip_regs_3+0x4f4>
    80001ca0:	00021597          	auipc	a1,0x21
    80001ca4:	ea058593          	addi	a1,a1,-352 # 80022b40 <__func__.2+0x2d8>
    80001ca8:	00021517          	auipc	a0,0x21
    80001cac:	ed850513          	addi	a0,a0,-296 # 80022b80 <__func__.2+0x318>
    80001cb0:	7c11e0ef          	jal	80020c70 <printf>
    80001cb4:	00021517          	auipc	a0,0x21
    80001cb8:	ed450513          	addi	a0,a0,-300 # 80022b88 <__func__.2+0x320>
    80001cbc:	7b51e0ef          	jal	80020c70 <printf>
    80001cc0:	86ca                	mv	a3,s2
    80001cc2:	8626                	mv	a2,s1
    80001cc4:	02d00593          	li	a1,45
    80001cc8:	00021517          	auipc	a0,0x21
    80001ccc:	24050513          	addi	a0,a0,576 # 80022f08 <__func__.2+0x6a0>
    80001cd0:	7a11e0ef          	jal	80020c70 <printf>
    80001cd4:	02900513          	li	a0,41
    80001cd8:	6281e0ef          	jal	80020300 <putchar>
    80001cdc:	4529                	li	a0,10
    80001cde:	6221e0ef          	jal	80020300 <putchar>
    80001ce2:	4401                	li	s0,0
    goto_priv(PRIV_VS);
    80001ce4:	4509                	li	a0,2
    80001ce6:	df3fe0ef          	jal	80000ad8 <goto_priv>
    check_csr_rd("sip (vs perspective)", sip, 0x222);
    80001cea:	144024f3          	csrr	s1,sip
    80001cee:	00021617          	auipc	a2,0x21
    80001cf2:	23a60613          	addi	a2,a2,570 # 80022f28 <__func__.2+0x6c0>
    80001cf6:	08200593          	li	a1,130
    80001cfa:	00021517          	auipc	a0,0x21
    80001cfe:	e6e50513          	addi	a0,a0,-402 # 80022b68 <__func__.2+0x300>
    80001d02:	22200913          	li	s2,546
    80001d06:	76b1e0ef          	jal	80020c70 <printf>
    80001d0a:	2d248963          	beq	s1,s2,80001fdc <check_xip_regs_3+0x4d8>
    80001d0e:	00021597          	auipc	a1,0x21
    80001d12:	e3258593          	addi	a1,a1,-462 # 80022b40 <__func__.2+0x2d8>
    80001d16:	00021517          	auipc	a0,0x21
    80001d1a:	e6a50513          	addi	a0,a0,-406 # 80022b80 <__func__.2+0x318>
    80001d1e:	7531e0ef          	jal	80020c70 <printf>
    80001d22:	00021517          	auipc	a0,0x21
    80001d26:	e6650513          	addi	a0,a0,-410 # 80022b88 <__func__.2+0x320>
    80001d2a:	7471e0ef          	jal	80020c70 <printf>
    80001d2e:	86ca                	mv	a3,s2
    80001d30:	8626                	mv	a2,s1
    80001d32:	02d00593          	li	a1,45
    80001d36:	00021517          	auipc	a0,0x21
    80001d3a:	1d250513          	addi	a0,a0,466 # 80022f08 <__func__.2+0x6a0>
    80001d3e:	7331e0ef          	jal	80020c70 <printf>
    80001d42:	02900513          	li	a0,41
    80001d46:	5ba1e0ef          	jal	80020300 <putchar>
    80001d4a:	4529                	li	a0,10
    80001d4c:	5b41e0ef          	jal	80020300 <putchar>
    80001d50:	4401                	li	s0,0
    goto_priv(PRIV_M);
    80001d52:	4511                	li	a0,4
    80001d54:	d85fe0ef          	jal	80000ad8 <goto_priv>

    VERBOSE("clearing all in hvip\n");
    CSRW(CSR_HVIP, (uint64_t)0);
    80001d58:	64505073          	csrwi	hvip,0
    check_csr_rd("hip", CSR_HIP, 0x0);
    80001d5c:	644024f3          	csrr	s1,hip
    80001d60:	00021617          	auipc	a2,0x21
    80001d64:	1a060613          	addi	a2,a2,416 # 80022f00 <__func__.2+0x698>
    80001d68:	08200593          	li	a1,130
    80001d6c:	00021517          	auipc	a0,0x21
    80001d70:	dfc50513          	addi	a0,a0,-516 # 80022b68 <__func__.2+0x300>
    80001d74:	6fd1e0ef          	jal	80020c70 <printf>
    80001d78:	22048663          	beqz	s1,80001fa4 <check_xip_regs_3+0x4a0>
    80001d7c:	00021597          	auipc	a1,0x21
    80001d80:	dc458593          	addi	a1,a1,-572 # 80022b40 <__func__.2+0x2d8>
    80001d84:	00021517          	auipc	a0,0x21
    80001d88:	dfc50513          	addi	a0,a0,-516 # 80022b80 <__func__.2+0x318>
    80001d8c:	6e51e0ef          	jal	80020c70 <printf>
    80001d90:	00021517          	auipc	a0,0x21
    80001d94:	df850513          	addi	a0,a0,-520 # 80022b88 <__func__.2+0x320>
    80001d98:	6d91e0ef          	jal	80020c70 <printf>
    80001d9c:	8626                	mv	a2,s1
    80001d9e:	4681                	li	a3,0
    80001da0:	02d00593          	li	a1,45
    80001da4:	00021517          	auipc	a0,0x21
    80001da8:	16450513          	addi	a0,a0,356 # 80022f08 <__func__.2+0x6a0>
    80001dac:	6c51e0ef          	jal	80020c70 <printf>
    80001db0:	02900513          	li	a0,41
    80001db4:	54c1e0ef          	jal	80020300 <putchar>
    80001db8:	4529                	li	a0,10
    80001dba:	5461e0ef          	jal	80020300 <putchar>
    80001dbe:	4401                	li	s0,0
    check_csr_rd("sip", sip, 0x0);
    80001dc0:	144024f3          	csrr	s1,sip
    80001dc4:	00021617          	auipc	a2,0x21
    80001dc8:	15c60613          	addi	a2,a2,348 # 80022f20 <__func__.2+0x6b8>
    80001dcc:	08200593          	li	a1,130
    80001dd0:	00021517          	auipc	a0,0x21
    80001dd4:	d9850513          	addi	a0,a0,-616 # 80022b68 <__func__.2+0x300>
    80001dd8:	6991e0ef          	jal	80020c70 <printf>
    80001ddc:	1a048663          	beqz	s1,80001f88 <check_xip_regs_3+0x484>
    80001de0:	00021597          	auipc	a1,0x21
    80001de4:	d6058593          	addi	a1,a1,-672 # 80022b40 <__func__.2+0x2d8>
    80001de8:	00021517          	auipc	a0,0x21
    80001dec:	d9850513          	addi	a0,a0,-616 # 80022b80 <__func__.2+0x318>
    80001df0:	6811e0ef          	jal	80020c70 <printf>
    80001df4:	00021517          	auipc	a0,0x21
    80001df8:	d9450513          	addi	a0,a0,-620 # 80022b88 <__func__.2+0x320>
    80001dfc:	6751e0ef          	jal	80020c70 <printf>
    80001e00:	8626                	mv	a2,s1
    80001e02:	4681                	li	a3,0
    80001e04:	02d00593          	li	a1,45
    80001e08:	00021517          	auipc	a0,0x21
    80001e0c:	10050513          	addi	a0,a0,256 # 80022f08 <__func__.2+0x6a0>
    80001e10:	6611e0ef          	jal	80020c70 <printf>
    80001e14:	02900513          	li	a0,41
    80001e18:	4e81e0ef          	jal	80020300 <putchar>
    80001e1c:	4529                	li	a0,10
    80001e1e:	4e21e0ef          	jal	80020300 <putchar>
    80001e22:	4401                	li	s0,0
    // check_csr_rd_mask("mip", mip, 0x000, mtime_mask);
    check_csr_rd("vsip", CSR_VSIP, 0x0);
    80001e24:	244024f3          	csrr	s1,vsip
    80001e28:	00021617          	auipc	a2,0x21
    80001e2c:	0c860613          	addi	a2,a2,200 # 80022ef0 <__func__.2+0x688>
    80001e30:	08200593          	li	a1,130
    80001e34:	00021517          	auipc	a0,0x21
    80001e38:	d3450513          	addi	a0,a0,-716 # 80022b68 <__func__.2+0x300>
    80001e3c:	6351e0ef          	jal	80020c70 <printf>
    80001e40:	12048663          	beqz	s1,80001f6c <check_xip_regs_3+0x468>
    80001e44:	00021597          	auipc	a1,0x21
    80001e48:	cfc58593          	addi	a1,a1,-772 # 80022b40 <__func__.2+0x2d8>
    80001e4c:	00021517          	auipc	a0,0x21
    80001e50:	d3450513          	addi	a0,a0,-716 # 80022b80 <__func__.2+0x318>
    80001e54:	61d1e0ef          	jal	80020c70 <printf>
    80001e58:	00021517          	auipc	a0,0x21
    80001e5c:	d3050513          	addi	a0,a0,-720 # 80022b88 <__func__.2+0x320>
    80001e60:	6111e0ef          	jal	80020c70 <printf>
    80001e64:	8626                	mv	a2,s1
    80001e66:	4681                	li	a3,0
    80001e68:	02d00593          	li	a1,45
    80001e6c:	00021517          	auipc	a0,0x21
    80001e70:	09c50513          	addi	a0,a0,156 # 80022f08 <__func__.2+0x6a0>
    80001e74:	5fd1e0ef          	jal	80020c70 <printf>
    80001e78:	02900513          	li	a0,41
    80001e7c:	4841e0ef          	jal	80020300 <putchar>
    80001e80:	4529                	li	a0,10
    80001e82:	47e1e0ef          	jal	80020300 <putchar>
    80001e86:	4401                	li	s0,0
    goto_priv(PRIV_VS);
    80001e88:	4509                	li	a0,2
    80001e8a:	c4ffe0ef          	jal	80000ad8 <goto_priv>
    check_csr_rd("sip (vs perspective)", sip, 0x0);
    80001e8e:	144024f3          	csrr	s1,sip
    80001e92:	00021617          	auipc	a2,0x21
    80001e96:	09660613          	addi	a2,a2,150 # 80022f28 <__func__.2+0x6c0>
    80001e9a:	08200593          	li	a1,130
    80001e9e:	00021517          	auipc	a0,0x21
    80001ea2:	cca50513          	addi	a0,a0,-822 # 80022b68 <__func__.2+0x300>
    80001ea6:	5cb1e0ef          	jal	80020c70 <printf>
    80001eaa:	c8d1                	beqz	s1,80001f3e <check_xip_regs_3+0x43a>
    80001eac:	00021597          	auipc	a1,0x21
    80001eb0:	c9458593          	addi	a1,a1,-876 # 80022b40 <__func__.2+0x2d8>
    80001eb4:	00021517          	auipc	a0,0x21
    80001eb8:	ccc50513          	addi	a0,a0,-820 # 80022b80 <__func__.2+0x318>
    80001ebc:	5b51e0ef          	jal	80020c70 <printf>
    80001ec0:	00021517          	auipc	a0,0x21
    80001ec4:	cc850513          	addi	a0,a0,-824 # 80022b88 <__func__.2+0x320>
    80001ec8:	5a91e0ef          	jal	80020c70 <printf>
    80001ecc:	8626                	mv	a2,s1
    80001ece:	4681                	li	a3,0
    80001ed0:	02d00593          	li	a1,45
    80001ed4:	00021517          	auipc	a0,0x21
    80001ed8:	03450513          	addi	a0,a0,52 # 80022f08 <__func__.2+0x6a0>
    80001edc:	5951e0ef          	jal	80020c70 <printf>
    80001ee0:	02900513          	li	a0,41
    80001ee4:	41c1e0ef          	jal	80020300 <putchar>
    80001ee8:	4529                	li	a0,10
    80001eea:	4161e0ef          	jal	80020300 <putchar>
    goto_priv(PRIV_M);
    80001eee:	4511                	li	a0,4
    80001ef0:	be9fe0ef          	jal	80000ad8 <goto_priv>
    check_csr_rd("sip (vs perspective)", sip, 0x0);
    80001ef4:	4401                	li	s0,0

    TEST_END();
    80001ef6:	00021597          	auipc	a1,0x21
    80001efa:	c4a58593          	addi	a1,a1,-950 # 80022b40 <__func__.2+0x2d8>
    80001efe:	00021517          	auipc	a0,0x21
    80001f02:	cea50513          	addi	a0,a0,-790 # 80022be8 <__func__.2+0x380>
    80001f06:	56b1e0ef          	jal	80020c70 <printf>
    80001f0a:	4511                	li	a0,4
    80001f0c:	bcdfe0ef          	jal	80000ad8 <goto_priv>
    80001f10:	c98ff0ef          	jal	800013a8 <reset_state>
}
    80001f14:	60e2                	ld	ra,24(sp)
    80001f16:	8522                	mv	a0,s0
    80001f18:	6442                	ld	s0,16(sp)
    80001f1a:	64a2                	ld	s1,8(sp)
    80001f1c:	6902                	ld	s2,0(sp)
    80001f1e:	6105                	addi	sp,sp,32
    80001f20:	8082                	ret
    check_csr_rd("sip", sip, 0x0);
    80001f22:	00021597          	auipc	a1,0x21
    80001f26:	c0e58593          	addi	a1,a1,-1010 # 80022b30 <__func__.2+0x2c8>
    80001f2a:	00021517          	auipc	a0,0x21
    80001f2e:	c5650513          	addi	a0,a0,-938 # 80022b80 <__func__.2+0x318>
    80001f32:	53f1e0ef          	jal	80020c70 <printf>
    80001f36:	4529                	li	a0,10
    80001f38:	3c81e0ef          	jal	80020300 <putchar>
    80001f3c:	b381                	j	80001c7c <check_xip_regs_3+0x178>
    check_csr_rd("sip (vs perspective)", sip, 0x0);
    80001f3e:	00021597          	auipc	a1,0x21
    80001f42:	bf258593          	addi	a1,a1,-1038 # 80022b30 <__func__.2+0x2c8>
    80001f46:	00021517          	auipc	a0,0x21
    80001f4a:	c3a50513          	addi	a0,a0,-966 # 80022b80 <__func__.2+0x318>
    80001f4e:	5231e0ef          	jal	80020c70 <printf>
    80001f52:	4529                	li	a0,10
    80001f54:	3ac1e0ef          	jal	80020300 <putchar>
    80001f58:	d859                	beqz	s0,80001eee <check_xip_regs_3+0x3ea>
    goto_priv(PRIV_M);
    80001f5a:	4511                	li	a0,4
    80001f5c:	b7dfe0ef          	jal	80000ad8 <goto_priv>
    check_csr_rd("sip (vs perspective)", sip, 0x0);
    80001f60:	4405                	li	s0,1
    TEST_END();
    80001f62:	00021597          	auipc	a1,0x21
    80001f66:	bce58593          	addi	a1,a1,-1074 # 80022b30 <__func__.2+0x2c8>
    80001f6a:	bf51                	j	80001efe <check_xip_regs_3+0x3fa>
    check_csr_rd("vsip", CSR_VSIP, 0x0);
    80001f6c:	00021597          	auipc	a1,0x21
    80001f70:	bc458593          	addi	a1,a1,-1084 # 80022b30 <__func__.2+0x2c8>
    80001f74:	00021517          	auipc	a0,0x21
    80001f78:	c0c50513          	addi	a0,a0,-1012 # 80022b80 <__func__.2+0x318>
    80001f7c:	4f51e0ef          	jal	80020c70 <printf>
    80001f80:	4529                	li	a0,10
    80001f82:	37e1e0ef          	jal	80020300 <putchar>
    80001f86:	b709                	j	80001e88 <check_xip_regs_3+0x384>
    check_csr_rd("sip", sip, 0x0);
    80001f88:	00021597          	auipc	a1,0x21
    80001f8c:	ba858593          	addi	a1,a1,-1112 # 80022b30 <__func__.2+0x2c8>
    80001f90:	00021517          	auipc	a0,0x21
    80001f94:	bf050513          	addi	a0,a0,-1040 # 80022b80 <__func__.2+0x318>
    80001f98:	4d91e0ef          	jal	80020c70 <printf>
    80001f9c:	4529                	li	a0,10
    80001f9e:	3621e0ef          	jal	80020300 <putchar>
    80001fa2:	b549                	j	80001e24 <check_xip_regs_3+0x320>
    check_csr_rd("hip", CSR_HIP, 0x0);
    80001fa4:	00021597          	auipc	a1,0x21
    80001fa8:	b8c58593          	addi	a1,a1,-1140 # 80022b30 <__func__.2+0x2c8>
    80001fac:	00021517          	auipc	a0,0x21
    80001fb0:	bd450513          	addi	a0,a0,-1068 # 80022b80 <__func__.2+0x318>
    80001fb4:	4bd1e0ef          	jal	80020c70 <printf>
    80001fb8:	4529                	li	a0,10
    80001fba:	3461e0ef          	jal	80020300 <putchar>
    80001fbe:	b509                	j	80001dc0 <check_xip_regs_3+0x2bc>
    check_csr_rd("hip", CSR_HIP, 0x444);
    80001fc0:	00021597          	auipc	a1,0x21
    80001fc4:	b7058593          	addi	a1,a1,-1168 # 80022b30 <__func__.2+0x2c8>
    80001fc8:	00021517          	auipc	a0,0x21
    80001fcc:	bb850513          	addi	a0,a0,-1096 # 80022b80 <__func__.2+0x318>
    80001fd0:	4a11e0ef          	jal	80020c70 <printf>
    80001fd4:	4529                	li	a0,10
    80001fd6:	32a1e0ef          	jal	80020300 <putchar>
    80001fda:	b93d                	j	80001c18 <check_xip_regs_3+0x114>
    check_csr_rd("sip (vs perspective)", sip, 0x222);
    80001fdc:	00021597          	auipc	a1,0x21
    80001fe0:	b5458593          	addi	a1,a1,-1196 # 80022b30 <__func__.2+0x2c8>
    80001fe4:	00021517          	auipc	a0,0x21
    80001fe8:	b9c50513          	addi	a0,a0,-1124 # 80022b80 <__func__.2+0x318>
    80001fec:	4851e0ef          	jal	80020c70 <printf>
    80001ff0:	4529                	li	a0,10
    80001ff2:	30e1e0ef          	jal	80020300 <putchar>
    80001ff6:	bbb1                	j	80001d52 <check_xip_regs_3+0x24e>
    check_csr_rd("vsip", CSR_VSIP, 0x222);
    80001ff8:	00021597          	auipc	a1,0x21
    80001ffc:	b3858593          	addi	a1,a1,-1224 # 80022b30 <__func__.2+0x2c8>
    80002000:	00021517          	auipc	a0,0x21
    80002004:	b8050513          	addi	a0,a0,-1152 # 80022b80 <__func__.2+0x318>
    80002008:	4691e0ef          	jal	80020c70 <printf>
    8000200c:	4529                	li	a0,10
    8000200e:	2f21e0ef          	jal	80020300 <putchar>
    80002012:	b9c9                	j	80001ce4 <check_xip_regs_3+0x1e0>
    check_csr_rd("hvip", CSR_HVIP, 0xffffffffffffe444);
    80002014:	00021597          	auipc	a1,0x21
    80002018:	b1c58593          	addi	a1,a1,-1252 # 80022b30 <__func__.2+0x2c8>
    8000201c:	00021517          	auipc	a0,0x21
    80002020:	b6450513          	addi	a0,a0,-1180 # 80022b80 <__func__.2+0x318>
    80002024:	44d1e0ef          	jal	80020c70 <printf>
    80002028:	4529                	li	a0,10
    8000202a:	2d61e0ef          	jal	80020300 <putchar>
    8000202e:	4405                	li	s0,1
    80002030:	b641                	j	80001bb0 <check_xip_regs_3+0xac>

0000000080002032 <interrupt_tests>:

bool interrupt_tests(){
    80002032:	1101                	addi	sp,sp,-32

    TEST_START();
    80002034:	0001f597          	auipc	a1,0x1f
    80002038:	18458593          	addi	a1,a1,388 # 800211b8 <__func__.0>
    8000203c:	00021517          	auipc	a0,0x21
    80002040:	b1450513          	addi	a0,a0,-1260 # 80022b50 <__func__.2+0x2e8>
bool interrupt_tests(){
    80002044:	ec06                	sd	ra,24(sp)
    80002046:	e822                	sd	s0,16(sp)
    80002048:	e426                	sd	s1,8(sp)
    TEST_START();
    8000204a:	4271e0ef          	jal	80020c70 <printf>
    8000204e:	4529                	li	a0,10
    80002050:	2b01e0ef          	jal	80020300 <putchar>
    /**
     * Test trigerring VSSI without delegating it. 
     * It assumes it is already delegated in miedeleg (it should be hardwired)
     */
    
    goto_priv(PRIV_HS);
    80002054:	450d                	li	a0,3
    80002056:	a83fe0ef          	jal	80000ad8 <goto_priv>
    CSRC(sstatus, SSTATUS_SPIE_BIT | SSTATUS_SIE_BIT); 
    8000205a:	02200793          	li	a5,34
    8000205e:	1007b073          	csrc	sstatus,a5
    CSRS(CSR_HIE, 0x4);
    80002062:	60426073          	csrsi	hie,4
    CSRS(CSR_HIP, 0x4);
    80002066:	64426073          	csrsi	hip,4
    TEST_SETUP_EXCEPT();
    8000206a:	0330000f          	fence	rw,rw
    8000206e:	00043417          	auipc	s0,0x43
    80002072:	fa240413          	addi	s0,s0,-94 # 80045010 <excpt>
    80002076:	4785                	li	a5,1
    80002078:	00043717          	auipc	a4,0x43
    8000207c:	fc073823          	sd	zero,-48(a4) # 80045048 <excpt+0x38>
    80002080:	00f41023          	sh	a5,0(s0)
    80002084:	0330000f          	fence	rw,rw
    goto_priv(PRIV_VS);
    80002088:	4509                	li	a0,2
    8000208a:	a4ffe0ef          	jal	80000ad8 <goto_priv>
    //CSRS(sstatus, SSTATUS_SIE_BIT);
    TEST_ASSERT("vs sw irq with no delegation", 
    8000208e:	08200593          	li	a1,130
    80002092:	00021617          	auipc	a2,0x21
    80002096:	ec660613          	addi	a2,a2,-314 # 80022f58 <__func__.2+0x6f0>
    8000209a:	00021517          	auipc	a0,0x21
    8000209e:	ace50513          	addi	a0,a0,-1330 # 80022b68 <__func__.2+0x300>
    800020a2:	3cf1e0ef          	jal	80020c70 <printf>
    800020a6:	00043797          	auipc	a5,0x43
    800020aa:	f6b7c783          	lbu	a5,-149(a5) # 80045011 <excpt+0x1>
    800020ae:	00021597          	auipc	a1,0x21
    800020b2:	a9258593          	addi	a1,a1,-1390 # 80022b40 <__func__.2+0x2d8>
    800020b6:	c799                	beqz	a5,800020c4 <interrupt_tests+0x92>
    800020b8:	57fd                	li	a5,-1
    800020ba:	6418                	ld	a4,8(s0)
    800020bc:	17fe                	slli	a5,a5,0x3f
    800020be:	0789                	addi	a5,a5,2
    800020c0:	18f70163          	beq	a4,a5,80002242 <interrupt_tests+0x210>
    800020c4:	00021517          	auipc	a0,0x21
    800020c8:	abc50513          	addi	a0,a0,-1348 # 80022b80 <__func__.2+0x318>
    800020cc:	3a51e0ef          	jal	80020c70 <printf>
    800020d0:	00043797          	auipc	a5,0x43
    800020d4:	f417c783          	lbu	a5,-191(a5) # 80045011 <excpt+0x1>
    800020d8:	c799                	beqz	a5,800020e6 <interrupt_tests+0xb4>
    800020da:	57fd                	li	a5,-1
    800020dc:	6418                	ld	a4,8(s0)
    800020de:	17fe                	slli	a5,a5,0x3f
    800020e0:	0789                	addi	a5,a5,2
    800020e2:	14f70863          	beq	a4,a5,80002232 <interrupt_tests+0x200>
    800020e6:	00021517          	auipc	a0,0x21
    800020ea:	aa250513          	addi	a0,a0,-1374 # 80022b88 <__func__.2+0x320>
    800020ee:	3831e0ef          	jal	80020c70 <printf>
    800020f2:	02900513          	li	a0,41
    800020f6:	20a1e0ef          	jal	80020300 <putchar>
    800020fa:	4529                	li	a0,10
    800020fc:	2041e0ef          	jal	80020300 <putchar>
    80002100:	00043797          	auipc	a5,0x43
    80002104:	f117c783          	lbu	a5,-239(a5) # 80045011 <excpt+0x1>
    80002108:	4481                	li	s1,0
    8000210a:	c799                	beqz	a5,80002118 <interrupt_tests+0xe6>
    8000210c:	57fd                	li	a5,-1
    8000210e:	6418                	ld	a4,8(s0)
    80002110:	17fe                	slli	a5,a5,0x3f
    80002112:	0789                	addi	a5,a5,2
    80002114:	14f70763          	beq	a4,a5,80002262 <interrupt_tests+0x230>
   
    /**
     * Test trigerring VSSI and delegating it. Should trap to VS with cause SSI.
     * It assumes it is already delegated in miedeleg (it should be hardwired)
     */
    goto_priv(PRIV_HS);
    80002118:	450d                	li	a0,3
    8000211a:	9bffe0ef          	jal	80000ad8 <goto_priv>
    CSRS(CSR_HIDELEG, 0x4);
    8000211e:	60326073          	csrsi	hideleg,4
    CSRS(CSR_HIP, 0x4);
    80002122:	64426073          	csrsi	hip,4
    TEST_SETUP_EXCEPT();
    80002126:	0330000f          	fence	rw,rw
    8000212a:	4785                	li	a5,1
    8000212c:	00043717          	auipc	a4,0x43
    80002130:	f0073e23          	sd	zero,-228(a4) # 80045048 <excpt+0x38>
    80002134:	00f41023          	sh	a5,0(s0)
    80002138:	0330000f          	fence	rw,rw
    goto_priv(PRIV_VS);
    8000213c:	4509                	li	a0,2
    8000213e:	99bfe0ef          	jal	80000ad8 <goto_priv>
    CSRS(sie, 0x2);
    80002142:	10416073          	csrsi	sie,2
    CSRS(sstatus, 0x2);
    80002146:	10016073          	csrsi	sstatus,2
    TEST_ASSERT("vs sw irq with delegation", 
    8000214a:	08200593          	li	a1,130
    8000214e:	00021617          	auipc	a2,0x21
    80002152:	e2a60613          	addi	a2,a2,-470 # 80022f78 <__func__.2+0x710>
    80002156:	00021517          	auipc	a0,0x21
    8000215a:	a1250513          	addi	a0,a0,-1518 # 80022b68 <__func__.2+0x300>
    8000215e:	3131e0ef          	jal	80020c70 <printf>
    80002162:	00043797          	auipc	a5,0x43
    80002166:	eaf7c783          	lbu	a5,-337(a5) # 80045011 <excpt+0x1>
    8000216a:	00021597          	auipc	a1,0x21
    8000216e:	9d658593          	addi	a1,a1,-1578 # 80022b40 <__func__.2+0x2d8>
    80002172:	c799                	beqz	a5,80002180 <interrupt_tests+0x14e>
    80002174:	57fd                	li	a5,-1
    80002176:	6418                	ld	a4,8(s0)
    80002178:	17fe                	slli	a5,a5,0x3f
    8000217a:	0785                	addi	a5,a5,1
    8000217c:	0ef70b63          	beq	a4,a5,80002272 <interrupt_tests+0x240>
    80002180:	00021517          	auipc	a0,0x21
    80002184:	a0050513          	addi	a0,a0,-1536 # 80022b80 <__func__.2+0x318>
    80002188:	2e91e0ef          	jal	80020c70 <printf>
    8000218c:	00043797          	auipc	a5,0x43
    80002190:	e857c783          	lbu	a5,-379(a5) # 80045011 <excpt+0x1>
    80002194:	c799                	beqz	a5,800021a2 <interrupt_tests+0x170>
    80002196:	57fd                	li	a5,-1
    80002198:	6418                	ld	a4,8(s0)
    8000219a:	17fe                	slli	a5,a5,0x3f
    8000219c:	0785                	addi	a5,a5,1
    8000219e:	08f70263          	beq	a4,a5,80002222 <interrupt_tests+0x1f0>
    800021a2:	00021517          	auipc	a0,0x21
    800021a6:	9e650513          	addi	a0,a0,-1562 # 80022b88 <__func__.2+0x320>
    800021aa:	2c71e0ef          	jal	80020c70 <printf>
    800021ae:	02900513          	li	a0,41
    800021b2:	14e1e0ef          	jal	80020300 <putchar>
    800021b6:	4529                	li	a0,10
    800021b8:	1481e0ef          	jal	80020300 <putchar>
    800021bc:	cca9                	beqz	s1,80002216 <interrupt_tests+0x1e4>
    800021be:	00043497          	auipc	s1,0x43
    800021c2:	e534c483          	lbu	s1,-429(s1) # 80045011 <excpt+0x1>


    //Mbitmstatus.mie=1mipmieMEIPMEIE
    

    TEST_END();
    800021c6:	00021597          	auipc	a1,0x21
    800021ca:	97a58593          	addi	a1,a1,-1670 # 80022b40 <__func__.2+0x2d8>
    TEST_ASSERT("vs sw irq with delegation", 
    800021ce:	c881                	beqz	s1,800021de <interrupt_tests+0x1ac>
    800021d0:	57fd                	li	a5,-1
    800021d2:	6418                	ld	a4,8(s0)
    800021d4:	17fe                	slli	a5,a5,0x3f
    800021d6:	0785                	addi	a5,a5,1
    800021d8:	02f70463          	beq	a4,a5,80002200 <interrupt_tests+0x1ce>
    800021dc:	4481                	li	s1,0
    TEST_END();
    800021de:	00021517          	auipc	a0,0x21
    800021e2:	a0a50513          	addi	a0,a0,-1526 # 80022be8 <__func__.2+0x380>
    800021e6:	28b1e0ef          	jal	80020c70 <printf>
    800021ea:	4511                	li	a0,4
    800021ec:	8edfe0ef          	jal	80000ad8 <goto_priv>
    800021f0:	9b8ff0ef          	jal	800013a8 <reset_state>
}
    800021f4:	60e2                	ld	ra,24(sp)
    800021f6:	6442                	ld	s0,16(sp)
    800021f8:	8526                	mv	a0,s1
    800021fa:	64a2                	ld	s1,8(sp)
    800021fc:	6105                	addi	sp,sp,32
    800021fe:	8082                	ret
    TEST_ASSERT("vs sw irq with delegation", 
    80002200:	00043717          	auipc	a4,0x43
    80002204:	e1472703          	lw	a4,-492(a4) # 80045014 <excpt+0x4>
    80002208:	4789                	li	a5,2
    TEST_END();
    8000220a:	00021597          	auipc	a1,0x21
    8000220e:	92658593          	addi	a1,a1,-1754 # 80022b30 <__func__.2+0x2c8>
    TEST_ASSERT("vs sw irq with delegation", 
    80002212:	fcf706e3          	beq	a4,a5,800021de <interrupt_tests+0x1ac>
    80002216:	4481                	li	s1,0
    TEST_END();
    80002218:	00021597          	auipc	a1,0x21
    8000221c:	92858593          	addi	a1,a1,-1752 # 80022b40 <__func__.2+0x2d8>
    80002220:	bf7d                	j	800021de <interrupt_tests+0x1ac>
    TEST_ASSERT("vs sw irq with delegation", 
    80002222:	00043717          	auipc	a4,0x43
    80002226:	df272703          	lw	a4,-526(a4) # 80045014 <excpt+0x4>
    8000222a:	4789                	li	a5,2
    8000222c:	f6f71be3          	bne	a4,a5,800021a2 <interrupt_tests+0x170>
    80002230:	b759                	j	800021b6 <interrupt_tests+0x184>
    TEST_ASSERT("vs sw irq with no delegation", 
    80002232:	00043717          	auipc	a4,0x43
    80002236:	de272703          	lw	a4,-542(a4) # 80045014 <excpt+0x4>
    8000223a:	478d                	li	a5,3
    8000223c:	eaf715e3          	bne	a4,a5,800020e6 <interrupt_tests+0xb4>
    80002240:	bd6d                	j	800020fa <interrupt_tests+0xc8>
    80002242:	00043717          	auipc	a4,0x43
    80002246:	dd272703          	lw	a4,-558(a4) # 80045014 <excpt+0x4>
    8000224a:	478d                	li	a5,3
    8000224c:	00021597          	auipc	a1,0x21
    80002250:	8e458593          	addi	a1,a1,-1820 # 80022b30 <__func__.2+0x2c8>
    80002254:	e6f708e3          	beq	a4,a5,800020c4 <interrupt_tests+0x92>
    80002258:	00021597          	auipc	a1,0x21
    8000225c:	8e858593          	addi	a1,a1,-1816 # 80022b40 <__func__.2+0x2d8>
    80002260:	b595                	j	800020c4 <interrupt_tests+0x92>
    80002262:	00043497          	auipc	s1,0x43
    80002266:	db24a483          	lw	s1,-590(s1) # 80045014 <excpt+0x4>
    8000226a:	14f5                	addi	s1,s1,-3
    8000226c:	0014b493          	seqz	s1,s1
    80002270:	b565                	j	80002118 <interrupt_tests+0xe6>
    TEST_ASSERT("vs sw irq with delegation", 
    80002272:	00043717          	auipc	a4,0x43
    80002276:	da272703          	lw	a4,-606(a4) # 80045014 <excpt+0x4>
    8000227a:	4789                	li	a5,2
    8000227c:	00021597          	auipc	a1,0x21
    80002280:	8b458593          	addi	a1,a1,-1868 # 80022b30 <__func__.2+0x2c8>
    80002284:	eef70ee3          	beq	a4,a5,80002180 <interrupt_tests+0x14e>
    80002288:	00021597          	auipc	a1,0x21
    8000228c:	8b858593          	addi	a1,a1,-1864 # 80022b40 <__func__.2+0x2d8>
    80002290:	bdc5                	j	80002180 <interrupt_tests+0x14e>

0000000080002292 <two_stage_translation_1>:

static inline void touch(uintptr_t addr){
    touchwrite(addr);
}

bool two_stage_translation_1(){
    80002292:	7139                	addi	sp,sp,-64
    
    TEST_START();
    80002294:	0001f597          	auipc	a1,0x1f
    80002298:	f3458593          	addi	a1,a1,-204 # 800211c8 <__func__.20>
    8000229c:	00021517          	auipc	a0,0x21
    800022a0:	8b450513          	addi	a0,a0,-1868 # 80022b50 <__func__.2+0x2e8>
bool two_stage_translation_1(){
    800022a4:	fc06                	sd	ra,56(sp)
    800022a6:	f822                	sd	s0,48(sp)
    800022a8:	f426                	sd	s1,40(sp)
    800022aa:	f04a                	sd	s2,32(sp)
    800022ac:	ec4e                	sd	s3,24(sp)
    TEST_START();
    800022ae:	1c31e0ef          	jal	80020c70 <printf>
    800022b2:	4529                	li	a0,10
    800022b4:	04c1e0ef          	jal	80020300 <putchar>
static inline uint8_t read8(uintptr_t addr){
    return *((volatile uint8_t*) addr);    
}

static inline void write64(uintptr_t addr, uint64_t val){
    *((volatile uint64_t*) addr) = val;
    800022b8:	2201b737          	lui	a4,0x2201b
    800022bc:	000887b7          	lui	a5,0x88
    800022c0:	070a                	slli	a4,a4,0x2
    800022c2:	44c5                	li	s1,17
    800022c4:	06d78793          	addi	a5,a5,109 # 8806d <_test_table_size+0x8806c>
    800022c8:	e304                	sd	s1,0(a4)
    800022ca:	07b2                	slli	a5,a5,0xc
    800022cc:	02200913          	li	s2,34
    800022d0:	0127b023          	sd	s2,0(a5)
    write64(addr2, 0x22);

    /**
     * Setup hyp page_tables.
     */
    goto_priv(PRIV_HS);
    800022d4:	450d                	li	a0,3
    800022d6:	803fe0ef          	jal	80000ad8 <goto_priv>
    hspt_init();
    800022da:	b06fe0ef          	jal	800005e0 <hspt_init>
    hpt_init();
    800022de:	d44fe0ef          	jal	80000822 <hpt_init>

    /**
     * Setup guest page tables.
     */
    goto_priv(PRIV_VS);
    800022e2:	4509                	li	a0,2
    800022e4:	ff4fe0ef          	jal	80000ad8 <goto_priv>
    vspt_init();
    800022e8:	bc8fe0ef          	jal	800006b0 <vspt_init>
    return *((volatile uint64_t*) addr);
    800022ec:	4001b737          	lui	a4,0x4001b
    800022f0:	070a                	slli	a4,a4,0x2
    800022f2:	00073983          	ld	s3,0(a4) # 4001b000 <STACK_SIZE+0x3ff1b000>
    800022f6:	001007b7          	lui	a5,0x100
    800022fa:	06d78793          	addi	a5,a5,109 # 10006d <STACK_SIZE+0x6d>
    800022fe:	07b2                	slli	a5,a5,0xc

    bool check1 = read64(vaddr1) == 0x11;
    bool check2 = read64(vaddr2) == 0x22;
    TEST_ASSERT("vs gets right values", check1 && check2);
    80002300:	00021617          	auipc	a2,0x21
    80002304:	c9860613          	addi	a2,a2,-872 # 80022f98 <__func__.2+0x730>
    80002308:	08200593          	li	a1,130
    8000230c:	00021517          	auipc	a0,0x21
    80002310:	85c50513          	addi	a0,a0,-1956 # 80022b68 <__func__.2+0x300>
    80002314:	6380                	ld	s0,0(a5)
    80002316:	15b1e0ef          	jal	80020c70 <printf>
    8000231a:	3e998463          	beq	s3,s1,80002702 <two_stage_translation_1+0x470>
    8000231e:	00021597          	auipc	a1,0x21
    80002322:	82258593          	addi	a1,a1,-2014 # 80022b40 <__func__.2+0x2d8>
    80002326:	00021517          	auipc	a0,0x21
    8000232a:	85a50513          	addi	a0,a0,-1958 # 80022b80 <__func__.2+0x318>
    8000232e:	1431e0ef          	jal	80020c70 <printf>
    80002332:	00021517          	auipc	a0,0x21
    80002336:	85650513          	addi	a0,a0,-1962 # 80022b88 <__func__.2+0x320>
    8000233a:	1371e0ef          	jal	80020c70 <printf>
    8000233e:	02900513          	li	a0,41
    80002342:	7bf1d0ef          	jal	80020300 <putchar>
    80002346:	4529                	li	a0,10
    80002348:	7b91d0ef          	jal	80020300 <putchar>
    8000234c:	4401                	li	s0,0
    
    goto_priv(PRIV_HS);
    8000234e:	450d                	li	a0,3
    80002350:	f88fe0ef          	jal	80000ad8 <goto_priv>
    hpt_switch();
    80002354:	e76fe0ef          	jal	800009ca <hpt_switch>
    asm volatile(
    80002358:	22000073          	.insn	4, 0x22000073
    asm volatile(
    8000235c:	62000073          	.insn	4, 0x62000073
    hfence();
    goto_priv(PRIV_VS);
    80002360:	4509                	li	a0,2
    80002362:	f76fe0ef          	jal	80000ad8 <goto_priv>
    80002366:	001007b7          	lui	a5,0x100
    8000236a:	4001b737          	lui	a4,0x4001b
    8000236e:	070a                	slli	a4,a4,0x2
    80002370:	06d78793          	addi	a5,a5,109 # 10006d <STACK_SIZE+0x6d>
    80002374:	07b2                	slli	a5,a5,0xc
    80002376:	00073903          	ld	s2,0(a4) # 4001b000 <STACK_SIZE+0x3ff1b000>
    check1 = read64(vaddr1) == 0x22;
    check2 = read64(vaddr2) == 0x11;   
    // INFO("0%lx 0x%lx", read64(vaddr1), read64(vaddr2));
    TEST_ASSERT("vs gets right values after changing 2nd stage pt", check1 && check2);
    8000237a:	00021617          	auipc	a2,0x21
    8000237e:	c3660613          	addi	a2,a2,-970 # 80022fb0 <__func__.2+0x748>
    80002382:	08200593          	li	a1,130
    80002386:	00020517          	auipc	a0,0x20
    8000238a:	7e250513          	addi	a0,a0,2018 # 80022b68 <__func__.2+0x300>
    8000238e:	6384                	ld	s1,0(a5)
    80002390:	0e11e0ef          	jal	80020c70 <printf>
    80002394:	02200793          	li	a5,34
    80002398:	32f90563          	beq	s2,a5,800026c2 <two_stage_translation_1+0x430>
    8000239c:	00020597          	auipc	a1,0x20
    800023a0:	7a458593          	addi	a1,a1,1956 # 80022b40 <__func__.2+0x2d8>
    800023a4:	00020517          	auipc	a0,0x20
    800023a8:	7dc50513          	addi	a0,a0,2012 # 80022b80 <__func__.2+0x318>
    800023ac:	0c51e0ef          	jal	80020c70 <printf>
    800023b0:	00020517          	auipc	a0,0x20
    800023b4:	7d850513          	addi	a0,a0,2008 # 80022b88 <__func__.2+0x320>
    800023b8:	0b91e0ef          	jal	80020c70 <printf>
    800023bc:	02900513          	li	a0,41
    800023c0:	7411d0ef          	jal	80020300 <putchar>
    800023c4:	4529                	li	a0,10
    800023c6:	73b1d0ef          	jal	80020300 <putchar>
    800023ca:	4401                	li	s0,0

    vspt_switch();
    800023cc:	de4fe0ef          	jal	800009b0 <vspt_switch>
    asm volatile ("sfence.vma \n\t");
    800023d0:	12000073          	sfence.vma
    800023d4:	001007b7          	lui	a5,0x100
    800023d8:	4001b737          	lui	a4,0x4001b
    800023dc:	070a                	slli	a4,a4,0x2
    800023de:	06d78793          	addi	a5,a5,109 # 10006d <STACK_SIZE+0x6d>
    800023e2:	07b2                	slli	a5,a5,0xc
    800023e4:	00073903          	ld	s2,0(a4) # 4001b000 <STACK_SIZE+0x3ff1b000>
    sfence();
    check1 = read64(vaddr1) == 0x11;
    check2 = read64(vaddr2) == 0x22;   
    TEST_ASSERT("vs gets right values after changing 1st stage pt", check1 && check2);
    800023e8:	00021617          	auipc	a2,0x21
    800023ec:	c0060613          	addi	a2,a2,-1024 # 80022fe8 <__func__.2+0x780>
    800023f0:	08200593          	li	a1,130
    800023f4:	00020517          	auipc	a0,0x20
    800023f8:	77450513          	addi	a0,a0,1908 # 80022b68 <__func__.2+0x300>
    800023fc:	6384                	ld	s1,0(a5)
    800023fe:	0731e0ef          	jal	80020c70 <printf>
    80002402:	47c5                	li	a5,17
    80002404:	34f90b63          	beq	s2,a5,8000275a <two_stage_translation_1+0x4c8>
    80002408:	00020597          	auipc	a1,0x20
    8000240c:	73858593          	addi	a1,a1,1848 # 80022b40 <__func__.2+0x2d8>
    80002410:	00020517          	auipc	a0,0x20
    80002414:	77050513          	addi	a0,a0,1904 # 80022b80 <__func__.2+0x318>
    80002418:	0591e0ef          	jal	80020c70 <printf>
    8000241c:	00020517          	auipc	a0,0x20
    80002420:	76c50513          	addi	a0,a0,1900 # 80022b88 <__func__.2+0x320>
    80002424:	04d1e0ef          	jal	80020c70 <printf>
    80002428:	02900513          	li	a0,41
    8000242c:	6d51d0ef          	jal	80020300 <putchar>
    80002430:	4529                	li	a0,10
    80002432:	6cf1d0ef          	jal	80020300 <putchar>
    80002436:	4481                	li	s1,0

    goto_priv(PRIV_M); 
    80002438:	4511                	li	a0,4
    8000243a:	e9efe0ef          	jal	80000ad8 <goto_priv>
    CSRS(medeleg, 1ull << CAUSE_LGPF);
    8000243e:	002007b7          	lui	a5,0x200
    80002442:	3027a073          	csrs	medeleg,a5
    goto_priv(PRIV_VS);
    80002446:	4509                	li	a0,2
    80002448:	e90fe0ef          	jal	80000ad8 <goto_priv>
    TEST_SETUP_EXCEPT();
    8000244c:	0330000f          	fence	rw,rw
    80002450:	00043417          	auipc	s0,0x43
    80002454:	bc040413          	addi	s0,s0,-1088 # 80045010 <excpt>
    80002458:	4785                	li	a5,1
    8000245a:	00043717          	auipc	a4,0x43
    8000245e:	be073723          	sd	zero,-1042(a4) # 80045048 <excpt+0x38>
    80002462:	00f41023          	sh	a5,0(s0)
    80002466:	0330000f          	fence	rw,rw
    8000246a:	001007b7          	lui	a5,0x100
    8000246e:	06578793          	addi	a5,a5,101 # 100065 <STACK_SIZE+0x65>
    80002472:	07b2                	slli	a5,a5,0xc
    80002474:	639c                	ld	a5,0(a5)
    read64(vs_page_base(VSRWX_GI));    
    TEST_ASSERT(
    80002476:	08200593          	li	a1,130
    8000247a:	00021617          	auipc	a2,0x21
    8000247e:	ba660613          	addi	a2,a2,-1114 # 80023020 <__func__.2+0x7b8>
    80002482:	00020517          	auipc	a0,0x20
    80002486:	6e650513          	addi	a0,a0,1766 # 80022b68 <__func__.2+0x300>
    8000248a:	7e61e0ef          	jal	80020c70 <printf>
    8000248e:	00043797          	auipc	a5,0x43
    80002492:	b837c783          	lbu	a5,-1149(a5) # 80045011 <excpt+0x1>
    80002496:	00020597          	auipc	a1,0x20
    8000249a:	6aa58593          	addi	a1,a1,1706 # 80022b40 <__func__.2+0x2d8>
    8000249e:	c789                	beqz	a5,800024a8 <two_stage_translation_1+0x216>
    800024a0:	6418                	ld	a4,8(s0)
    800024a2:	47d5                	li	a5,21
    800024a4:	40f70b63          	beq	a4,a5,800028ba <two_stage_translation_1+0x628>
    800024a8:	00020517          	auipc	a0,0x20
    800024ac:	6d850513          	addi	a0,a0,1752 # 80022b80 <__func__.2+0x318>
    800024b0:	7c01e0ef          	jal	80020c70 <printf>
    800024b4:	00043797          	auipc	a5,0x43
    800024b8:	b5d7c783          	lbu	a5,-1187(a5) # 80045011 <excpt+0x1>
    800024bc:	c789                	beqz	a5,800024c6 <two_stage_translation_1+0x234>
    800024be:	6418                	ld	a4,8(s0)
    800024c0:	47d5                	li	a5,21
    800024c2:	2cf70e63          	beq	a4,a5,8000279e <two_stage_translation_1+0x50c>
    800024c6:	00020517          	auipc	a0,0x20
    800024ca:	6c250513          	addi	a0,a0,1730 # 80022b88 <__func__.2+0x320>
    800024ce:	7a21e0ef          	jal	80020c70 <printf>
    800024d2:	02900513          	li	a0,41
    800024d6:	62b1d0ef          	jal	80020300 <putchar>
    800024da:	4529                	li	a0,10
    800024dc:	6251d0ef          	jal	80020300 <putchar>
    800024e0:	c899                	beqz	s1,800024f6 <two_stage_translation_1+0x264>
    800024e2:	00043797          	auipc	a5,0x43
    800024e6:	b2f7c783          	lbu	a5,-1233(a5) # 80045011 <excpt+0x1>
    800024ea:	4481                	li	s1,0
    800024ec:	c789                	beqz	a5,800024f6 <two_stage_translation_1+0x264>
    800024ee:	6418                	ld	a4,8(s0)
    800024f0:	47d5                	li	a5,21
    800024f2:	34f70f63          	beq	a4,a5,80002850 <two_stage_translation_1+0x5be>
        excpt.priv == PRIV_HS &&
        excpt.gva == true &&
        excpt.xpv == true
    );

    TEST_SETUP_EXCEPT();
    800024f6:	0330000f          	fence	rw,rw
    800024fa:	4785                	li	a5,1
    800024fc:	00043717          	auipc	a4,0x43
    80002500:	b4073623          	sd	zero,-1204(a4) # 80045048 <excpt+0x38>
    80002504:	00f41023          	sh	a5,0(s0)
    80002508:	0330000f          	fence	rw,rw
    TEST_EXEC_EXCEPT(vs_page_base(VSRWX_GI)); 
    8000250c:	001007b7          	lui	a5,0x100
    80002510:	06578793          	addi	a5,a5,101 # 100065 <STACK_SIZE+0x65>
    80002514:	07b2                	slli	a5,a5,0xc
    80002516:	00000297          	auipc	t0,0x0
    8000251a:	00c28293          	addi	t0,t0,12 # 80002522 <two_stage_translation_1+0x290>
    8000251e:	02543c23          	sd	t0,56(s0)
    80002522:	8782                	jr	a5
    TEST_ASSERT(
    80002524:	08200593          	li	a1,130
    80002528:	00021617          	auipc	a2,0x21
    8000252c:	b2860613          	addi	a2,a2,-1240 # 80023050 <__func__.2+0x7e8>
    80002530:	00020517          	auipc	a0,0x20
    80002534:	63850513          	addi	a0,a0,1592 # 80022b68 <__func__.2+0x300>
    80002538:	7381e0ef          	jal	80020c70 <printf>
    8000253c:	00043797          	auipc	a5,0x43
    80002540:	ad57c783          	lbu	a5,-1323(a5) # 80045011 <excpt+0x1>
    80002544:	00020597          	auipc	a1,0x20
    80002548:	5fc58593          	addi	a1,a1,1532 # 80022b40 <__func__.2+0x2d8>
    8000254c:	c789                	beqz	a5,80002556 <two_stage_translation_1+0x2c4>
    8000254e:	6418                	ld	a4,8(s0)
    80002550:	47d1                	li	a5,20
    80002552:	3cf70763          	beq	a4,a5,80002920 <two_stage_translation_1+0x68e>
    80002556:	00020517          	auipc	a0,0x20
    8000255a:	62a50513          	addi	a0,a0,1578 # 80022b80 <__func__.2+0x318>
    8000255e:	7121e0ef          	jal	80020c70 <printf>
    80002562:	00043797          	auipc	a5,0x43
    80002566:	aaf7c783          	lbu	a5,-1361(a5) # 80045011 <excpt+0x1>
    8000256a:	c789                	beqz	a5,80002574 <two_stage_translation_1+0x2e2>
    8000256c:	6418                	ld	a4,8(s0)
    8000256e:	47d1                	li	a5,20
    80002570:	26f70263          	beq	a4,a5,800027d4 <two_stage_translation_1+0x542>
    80002574:	00020517          	auipc	a0,0x20
    80002578:	61450513          	addi	a0,a0,1556 # 80022b88 <__func__.2+0x320>
    8000257c:	6f41e0ef          	jal	80020c70 <printf>
    80002580:	02900513          	li	a0,41
    80002584:	57d1d0ef          	jal	80020300 <putchar>
    80002588:	4529                	li	a0,10
    8000258a:	5771d0ef          	jal	80020300 <putchar>
    8000258e:	c899                	beqz	s1,800025a4 <two_stage_translation_1+0x312>
    80002590:	00043797          	auipc	a5,0x43
    80002594:	a817c783          	lbu	a5,-1407(a5) # 80045011 <excpt+0x1>
    80002598:	4481                	li	s1,0
    8000259a:	c789                	beqz	a5,800025a4 <two_stage_translation_1+0x312>
    8000259c:	6418                	ld	a4,8(s0)
    8000259e:	47d1                	li	a5,20
    800025a0:	28f70363          	beq	a4,a5,80002826 <two_stage_translation_1+0x594>
        excpt.priv == PRIV_M  &&
        excpt.gva == true &&
        excpt.xpv == true
    );

    goto_priv(PRIV_M);
    800025a4:	4511                	li	a0,4
    800025a6:	d32fe0ef          	jal	80000ad8 <goto_priv>
    CSRS(medeleg, 1 << CAUSE_LPF | 1 << CAUSE_LGPF);
    800025aa:	002027b7          	lui	a5,0x202
    800025ae:	3027a073          	csrs	medeleg,a5
    goto_priv(PRIV_HS); 
    800025b2:	450d                	li	a0,3
    800025b4:	d24fe0ef          	jal	80000ad8 <goto_priv>
    CSRS(CSR_HEDELEG, 1 << CAUSE_LPF);
    800025b8:	6789                	lui	a5,0x2
    800025ba:	6027a073          	csrs	hedeleg,a5
    goto_priv(PRIV_VS);
    800025be:	4509                	li	a0,2
    800025c0:	d18fe0ef          	jal	80000ad8 <goto_priv>
    800025c4:	12000073          	sfence.vma
    sfence();
    TEST_SETUP_EXCEPT();
    800025c8:	0330000f          	fence	rw,rw
    800025cc:	4785                	li	a5,1
    800025ce:	00043717          	auipc	a4,0x43
    800025d2:	a6073d23          	sd	zero,-1414(a4) # 80045048 <excpt+0x38>
    800025d6:	00f41023          	sh	a5,0(s0)
    800025da:	0330000f          	fence	rw,rw
    volatile uint64_t x = *(volatile uint64_t *)addr;
    800025de:	400197b7          	lui	a5,0x40019
    800025e2:	078a                	slli	a5,a5,0x2
    800025e4:	639c                	ld	a5,0(a5)
    touchread(vs_page_base(VSI_GI));    
    TEST_ASSERT(
    800025e6:	08200593          	li	a1,130
    800025ea:	00021617          	auipc	a2,0x21
    800025ee:	aa660613          	addi	a2,a2,-1370 # 80023090 <__func__.2+0x828>
    800025f2:	00020517          	auipc	a0,0x20
    800025f6:	57650513          	addi	a0,a0,1398 # 80022b68 <__func__.2+0x300>
    volatile uint64_t x = *(volatile uint64_t *)addr;
    800025fa:	e43e                	sd	a5,8(sp)
    TEST_ASSERT(
    800025fc:	6741e0ef          	jal	80020c70 <printf>
    80002600:	00043797          	auipc	a5,0x43
    80002604:	a117c783          	lbu	a5,-1519(a5) # 80045011 <excpt+0x1>
    80002608:	00020597          	auipc	a1,0x20
    8000260c:	53858593          	addi	a1,a1,1336 # 80022b40 <__func__.2+0x2d8>
    80002610:	c789                	beqz	a5,8000261a <two_stage_translation_1+0x388>
    80002612:	6418                	ld	a4,8(s0)
    80002614:	47b5                	li	a5,13
    80002616:	2cf70f63          	beq	a4,a5,800028f4 <two_stage_translation_1+0x662>
    8000261a:	00020517          	auipc	a0,0x20
    8000261e:	56650513          	addi	a0,a0,1382 # 80022b80 <__func__.2+0x318>
    80002622:	64e1e0ef          	jal	80020c70 <printf>
    80002626:	00043797          	auipc	a5,0x43
    8000262a:	9eb7c783          	lbu	a5,-1557(a5) # 80045011 <excpt+0x1>
    8000262e:	c789                	beqz	a5,80002638 <two_stage_translation_1+0x3a6>
    80002630:	6418                	ld	a4,8(s0)
    80002632:	47b5                	li	a5,13
    80002634:	1cf70b63          	beq	a4,a5,8000280a <two_stage_translation_1+0x578>
    80002638:	00020517          	auipc	a0,0x20
    8000263c:	55050513          	addi	a0,a0,1360 # 80022b88 <__func__.2+0x320>
    80002640:	6301e0ef          	jal	80020c70 <printf>
    80002644:	02900513          	li	a0,41
    80002648:	4b91d0ef          	jal	80020300 <putchar>
    8000264c:	4529                	li	a0,10
    8000264e:	4b31d0ef          	jal	80020300 <putchar>
    80002652:	c0b5                	beqz	s1,800026b6 <two_stage_translation_1+0x424>
    80002654:	00043497          	auipc	s1,0x43
    80002658:	9bd4c483          	lbu	s1,-1603(s1) # 80045011 <excpt+0x1>
        excpt.cause == CAUSE_LPF &&
        excpt.priv == PRIV_VS && 
        excpt.gva == false
    );

    TEST_END();
    8000265c:	00020597          	auipc	a1,0x20
    80002660:	4e458593          	addi	a1,a1,1252 # 80022b40 <__func__.2+0x2d8>
    TEST_ASSERT(
    80002664:	c491                	beqz	s1,80002670 <two_stage_translation_1+0x3de>
    80002666:	6418                	ld	a4,8(s0)
    80002668:	47b5                	li	a5,13
    8000266a:	02f70663          	beq	a4,a5,80002696 <two_stage_translation_1+0x404>
    8000266e:	4481                	li	s1,0
    TEST_END();
    80002670:	00020517          	auipc	a0,0x20
    80002674:	57850513          	addi	a0,a0,1400 # 80022be8 <__func__.2+0x380>
    80002678:	5f81e0ef          	jal	80020c70 <printf>
    8000267c:	4511                	li	a0,4
    8000267e:	c5afe0ef          	jal	80000ad8 <goto_priv>
    80002682:	d27fe0ef          	jal	800013a8 <reset_state>
}
    80002686:	70e2                	ld	ra,56(sp)
    80002688:	7442                	ld	s0,48(sp)
    8000268a:	7902                	ld	s2,32(sp)
    8000268c:	69e2                	ld	s3,24(sp)
    8000268e:	8526                	mv	a0,s1
    80002690:	74a2                	ld	s1,40(sp)
    80002692:	6121                	addi	sp,sp,64
    80002694:	8082                	ret
    TEST_ASSERT(
    80002696:	00043717          	auipc	a4,0x43
    8000269a:	97e72703          	lw	a4,-1666(a4) # 80045014 <excpt+0x4>
    8000269e:	4789                	li	a5,2
    800026a0:	fcf717e3          	bne	a4,a5,8000266e <two_stage_translation_1+0x3dc>
    800026a4:	00043797          	auipc	a5,0x43
    800026a8:	99c7c783          	lbu	a5,-1636(a5) # 80045040 <excpt+0x30>
    TEST_END();
    800026ac:	00020597          	auipc	a1,0x20
    800026b0:	48458593          	addi	a1,a1,1156 # 80022b30 <__func__.2+0x2c8>
    TEST_ASSERT(
    800026b4:	dfd5                	beqz	a5,80002670 <two_stage_translation_1+0x3de>
    800026b6:	4481                	li	s1,0
    TEST_END();
    800026b8:	00020597          	auipc	a1,0x20
    800026bc:	48858593          	addi	a1,a1,1160 # 80022b40 <__func__.2+0x2d8>
    800026c0:	bf45                	j	80002670 <two_stage_translation_1+0x3de>
    TEST_ASSERT("vs gets right values after changing 2nd stage pt", check1 && check2);
    800026c2:	47c5                	li	a5,17
    800026c4:	1cf48b63          	beq	s1,a5,8000289a <two_stage_translation_1+0x608>
    800026c8:	00020597          	auipc	a1,0x20
    800026cc:	47858593          	addi	a1,a1,1144 # 80022b40 <__func__.2+0x2d8>
    800026d0:	00020517          	auipc	a0,0x20
    800026d4:	4b050513          	addi	a0,a0,1200 # 80022b80 <__func__.2+0x318>
    800026d8:	5981e0ef          	jal	80020c70 <printf>
    800026dc:	00020517          	auipc	a0,0x20
    800026e0:	4ac50513          	addi	a0,a0,1196 # 80022b88 <__func__.2+0x320>
    800026e4:	58c1e0ef          	jal	80020c70 <printf>
    800026e8:	02900513          	li	a0,41
    800026ec:	4151d0ef          	jal	80020300 <putchar>
    800026f0:	4529                	li	a0,10
    800026f2:	40f1d0ef          	jal	80020300 <putchar>
    800026f6:	cc040ae3          	beqz	s0,800023ca <two_stage_translation_1+0x138>
    800026fa:	14bd                	addi	s1,s1,-17
    800026fc:	0014b413          	seqz	s0,s1
    80002700:	b1f1                	j	800023cc <two_stage_translation_1+0x13a>
    TEST_ASSERT("vs gets right values", check1 && check2);
    80002702:	03240e63          	beq	s0,s2,8000273e <two_stage_translation_1+0x4ac>
    80002706:	00020597          	auipc	a1,0x20
    8000270a:	43a58593          	addi	a1,a1,1082 # 80022b40 <__func__.2+0x2d8>
    8000270e:	00020517          	auipc	a0,0x20
    80002712:	47250513          	addi	a0,a0,1138 # 80022b80 <__func__.2+0x318>
    80002716:	55a1e0ef          	jal	80020c70 <printf>
    8000271a:	00020517          	auipc	a0,0x20
    8000271e:	46e50513          	addi	a0,a0,1134 # 80022b88 <__func__.2+0x320>
    80002722:	54e1e0ef          	jal	80020c70 <printf>
    80002726:	02900513          	li	a0,41
    8000272a:	3d71d0ef          	jal	80020300 <putchar>
    8000272e:	4529                	li	a0,10
    80002730:	3d11d0ef          	jal	80020300 <putchar>
    80002734:	fde40413          	addi	s0,s0,-34
    80002738:	00143413          	seqz	s0,s0
    8000273c:	b909                	j	8000234e <two_stage_translation_1+0xbc>
    8000273e:	00020597          	auipc	a1,0x20
    80002742:	3f258593          	addi	a1,a1,1010 # 80022b30 <__func__.2+0x2c8>
    80002746:	00020517          	auipc	a0,0x20
    8000274a:	43a50513          	addi	a0,a0,1082 # 80022b80 <__func__.2+0x318>
    8000274e:	5221e0ef          	jal	80020c70 <printf>
    80002752:	4529                	li	a0,10
    80002754:	3ad1d0ef          	jal	80020300 <putchar>
    80002758:	bff1                	j	80002734 <two_stage_translation_1+0x4a2>
    TEST_ASSERT("vs gets right values after changing 1st stage pt", check1 && check2);
    8000275a:	02200793          	li	a5,34
    8000275e:	10f48e63          	beq	s1,a5,8000287a <two_stage_translation_1+0x5e8>
    80002762:	00020597          	auipc	a1,0x20
    80002766:	3de58593          	addi	a1,a1,990 # 80022b40 <__func__.2+0x2d8>
    8000276a:	00020517          	auipc	a0,0x20
    8000276e:	41650513          	addi	a0,a0,1046 # 80022b80 <__func__.2+0x318>
    80002772:	4fe1e0ef          	jal	80020c70 <printf>
    80002776:	00020517          	auipc	a0,0x20
    8000277a:	41250513          	addi	a0,a0,1042 # 80022b88 <__func__.2+0x320>
    8000277e:	4f21e0ef          	jal	80020c70 <printf>
    80002782:	02900513          	li	a0,41
    80002786:	37b1d0ef          	jal	80020300 <putchar>
    8000278a:	4529                	li	a0,10
    8000278c:	3751d0ef          	jal	80020300 <putchar>
    80002790:	ca0403e3          	beqz	s0,80002436 <two_stage_translation_1+0x1a4>
    80002794:	fde48493          	addi	s1,s1,-34
    80002798:	0014b493          	seqz	s1,s1
    8000279c:	b971                	j	80002438 <two_stage_translation_1+0x1a6>
    TEST_ASSERT(
    8000279e:	7418                	ld	a4,40(s0)
    800027a0:	400197b7          	lui	a5,0x40019
    800027a4:	40078793          	addi	a5,a5,1024 # 40019400 <STACK_SIZE+0x3ff19400>
    800027a8:	d0f71fe3          	bne	a4,a5,800024c6 <two_stage_translation_1+0x234>
    800027ac:	00043717          	auipc	a4,0x43
    800027b0:	86872703          	lw	a4,-1944(a4) # 80045014 <excpt+0x4>
    800027b4:	478d                	li	a5,3
    800027b6:	d0f718e3          	bne	a4,a5,800024c6 <two_stage_translation_1+0x234>
    800027ba:	00043797          	auipc	a5,0x43
    800027be:	8867c783          	lbu	a5,-1914(a5) # 80045040 <excpt+0x30>
    800027c2:	d00782e3          	beqz	a5,800024c6 <two_stage_translation_1+0x234>
    800027c6:	00043797          	auipc	a5,0x43
    800027ca:	87b7c783          	lbu	a5,-1925(a5) # 80045041 <excpt+0x31>
    800027ce:	d00796e3          	bnez	a5,800024da <two_stage_translation_1+0x248>
    800027d2:	b9d5                	j	800024c6 <two_stage_translation_1+0x234>
    TEST_ASSERT(
    800027d4:	7418                	ld	a4,40(s0)
    800027d6:	400197b7          	lui	a5,0x40019
    800027da:	40078793          	addi	a5,a5,1024 # 40019400 <STACK_SIZE+0x3ff19400>
    800027de:	d8f71be3          	bne	a4,a5,80002574 <two_stage_translation_1+0x2e2>
    800027e2:	00043717          	auipc	a4,0x43
    800027e6:	83272703          	lw	a4,-1998(a4) # 80045014 <excpt+0x4>
    800027ea:	4791                	li	a5,4
    800027ec:	d8f714e3          	bne	a4,a5,80002574 <two_stage_translation_1+0x2e2>
    800027f0:	00043797          	auipc	a5,0x43
    800027f4:	8507c783          	lbu	a5,-1968(a5) # 80045040 <excpt+0x30>
    800027f8:	d6078ee3          	beqz	a5,80002574 <two_stage_translation_1+0x2e2>
    800027fc:	00043797          	auipc	a5,0x43
    80002800:	8457c783          	lbu	a5,-1979(a5) # 80045041 <excpt+0x31>
    80002804:	d80792e3          	bnez	a5,80002588 <two_stage_translation_1+0x2f6>
    80002808:	b3b5                	j	80002574 <two_stage_translation_1+0x2e2>
    TEST_ASSERT(
    8000280a:	00043717          	auipc	a4,0x43
    8000280e:	80a72703          	lw	a4,-2038(a4) # 80045014 <excpt+0x4>
    80002812:	4789                	li	a5,2
    80002814:	e2f712e3          	bne	a4,a5,80002638 <two_stage_translation_1+0x3a6>
    80002818:	00043797          	auipc	a5,0x43
    8000281c:	8287c783          	lbu	a5,-2008(a5) # 80045040 <excpt+0x30>
    80002820:	e20786e3          	beqz	a5,8000264c <two_stage_translation_1+0x3ba>
    80002824:	bd11                	j	80002638 <two_stage_translation_1+0x3a6>
    TEST_ASSERT(
    80002826:	7418                	ld	a4,40(s0)
    80002828:	400197b7          	lui	a5,0x40019
    8000282c:	40078793          	addi	a5,a5,1024 # 40019400 <STACK_SIZE+0x3ff19400>
    80002830:	d6f71ae3          	bne	a4,a5,800025a4 <two_stage_translation_1+0x312>
    80002834:	00042717          	auipc	a4,0x42
    80002838:	7e072703          	lw	a4,2016(a4) # 80045014 <excpt+0x4>
    8000283c:	4791                	li	a5,4
    8000283e:	d6f713e3          	bne	a4,a5,800025a4 <two_stage_translation_1+0x312>
    80002842:	03045483          	lhu	s1,48(s0)
    80002846:	eff48493          	addi	s1,s1,-257
    8000284a:	0014b493          	seqz	s1,s1
    8000284e:	bb99                	j	800025a4 <two_stage_translation_1+0x312>
    TEST_ASSERT(
    80002850:	7418                	ld	a4,40(s0)
    80002852:	400197b7          	lui	a5,0x40019
    80002856:	40078793          	addi	a5,a5,1024 # 40019400 <STACK_SIZE+0x3ff19400>
    8000285a:	c8f71ee3          	bne	a4,a5,800024f6 <two_stage_translation_1+0x264>
    8000285e:	00042717          	auipc	a4,0x42
    80002862:	7b672703          	lw	a4,1974(a4) # 80045014 <excpt+0x4>
    80002866:	478d                	li	a5,3
    80002868:	c8f717e3          	bne	a4,a5,800024f6 <two_stage_translation_1+0x264>
    8000286c:	03045483          	lhu	s1,48(s0)
    80002870:	eff48493          	addi	s1,s1,-257
    80002874:	0014b493          	seqz	s1,s1
    80002878:	b9bd                	j	800024f6 <two_stage_translation_1+0x264>
    TEST_ASSERT("vs gets right values after changing 1st stage pt", check1 && check2);
    8000287a:	00020597          	auipc	a1,0x20
    8000287e:	2b658593          	addi	a1,a1,694 # 80022b30 <__func__.2+0x2c8>
    80002882:	00020517          	auipc	a0,0x20
    80002886:	2fe50513          	addi	a0,a0,766 # 80022b80 <__func__.2+0x318>
    8000288a:	3e61e0ef          	jal	80020c70 <printf>
    8000288e:	4529                	li	a0,10
    80002890:	2711d0ef          	jal	80020300 <putchar>
    80002894:	ba0401e3          	beqz	s0,80002436 <two_stage_translation_1+0x1a4>
    80002898:	bdf5                	j	80002794 <two_stage_translation_1+0x502>
    TEST_ASSERT("vs gets right values after changing 2nd stage pt", check1 && check2);
    8000289a:	00020597          	auipc	a1,0x20
    8000289e:	29658593          	addi	a1,a1,662 # 80022b30 <__func__.2+0x2c8>
    800028a2:	00020517          	auipc	a0,0x20
    800028a6:	2de50513          	addi	a0,a0,734 # 80022b80 <__func__.2+0x318>
    800028aa:	3c61e0ef          	jal	80020c70 <printf>
    800028ae:	4529                	li	a0,10
    800028b0:	2511d0ef          	jal	80020300 <putchar>
    800028b4:	b0040be3          	beqz	s0,800023ca <two_stage_translation_1+0x138>
    800028b8:	b589                	j	800026fa <two_stage_translation_1+0x468>
    TEST_ASSERT(
    800028ba:	7418                	ld	a4,40(s0)
    800028bc:	400197b7          	lui	a5,0x40019
    800028c0:	40078793          	addi	a5,a5,1024 # 40019400 <STACK_SIZE+0x3ff19400>
    800028c4:	bef712e3          	bne	a4,a5,800024a8 <two_stage_translation_1+0x216>
    800028c8:	00042717          	auipc	a4,0x42
    800028cc:	74c72703          	lw	a4,1868(a4) # 80045014 <excpt+0x4>
    800028d0:	478d                	li	a5,3
    800028d2:	bcf71be3          	bne	a4,a5,800024a8 <two_stage_translation_1+0x216>
    800028d6:	03045703          	lhu	a4,48(s0)
    800028da:	10100793          	li	a5,257
    800028de:	00020597          	auipc	a1,0x20
    800028e2:	25258593          	addi	a1,a1,594 # 80022b30 <__func__.2+0x2c8>
    800028e6:	bcf701e3          	beq	a4,a5,800024a8 <two_stage_translation_1+0x216>
    800028ea:	00020597          	auipc	a1,0x20
    800028ee:	25658593          	addi	a1,a1,598 # 80022b40 <__func__.2+0x2d8>
    800028f2:	be5d                	j	800024a8 <two_stage_translation_1+0x216>
    TEST_ASSERT(
    800028f4:	00042717          	auipc	a4,0x42
    800028f8:	72072703          	lw	a4,1824(a4) # 80045014 <excpt+0x4>
    800028fc:	4789                	li	a5,2
    800028fe:	d0f71ee3          	bne	a4,a5,8000261a <two_stage_translation_1+0x388>
    80002902:	00042797          	auipc	a5,0x42
    80002906:	73e7c783          	lbu	a5,1854(a5) # 80045040 <excpt+0x30>
    8000290a:	00020597          	auipc	a1,0x20
    8000290e:	22658593          	addi	a1,a1,550 # 80022b30 <__func__.2+0x2c8>
    80002912:	d00784e3          	beqz	a5,8000261a <two_stage_translation_1+0x388>
    80002916:	00020597          	auipc	a1,0x20
    8000291a:	22a58593          	addi	a1,a1,554 # 80022b40 <__func__.2+0x2d8>
    8000291e:	b9f5                	j	8000261a <two_stage_translation_1+0x388>
    TEST_ASSERT(
    80002920:	7418                	ld	a4,40(s0)
    80002922:	400197b7          	lui	a5,0x40019
    80002926:	40078793          	addi	a5,a5,1024 # 40019400 <STACK_SIZE+0x3ff19400>
    8000292a:	c2f716e3          	bne	a4,a5,80002556 <two_stage_translation_1+0x2c4>
    8000292e:	00042717          	auipc	a4,0x42
    80002932:	6e672703          	lw	a4,1766(a4) # 80045014 <excpt+0x4>
    80002936:	4791                	li	a5,4
    80002938:	c0f71fe3          	bne	a4,a5,80002556 <two_stage_translation_1+0x2c4>
    8000293c:	03045703          	lhu	a4,48(s0)
    80002940:	10100793          	li	a5,257
    80002944:	00020597          	auipc	a1,0x20
    80002948:	1ec58593          	addi	a1,a1,492 # 80022b30 <__func__.2+0x2c8>
    8000294c:	c0f705e3          	beq	a4,a5,80002556 <two_stage_translation_1+0x2c4>
    80002950:	00020597          	auipc	a1,0x20
    80002954:	1f058593          	addi	a1,a1,496 # 80022b40 <__func__.2+0x2d8>
    80002958:	befd                	j	80002556 <two_stage_translation_1+0x2c4>

000000008000295a <two_stage_translation_2>:

bool two_stage_translation_2(){
    8000295a:	7179                	addi	sp,sp,-48
    
    TEST_START();
    8000295c:	0001f597          	auipc	a1,0x1f
    80002960:	88458593          	addi	a1,a1,-1916 # 800211e0 <__func__.17>
    80002964:	00020517          	auipc	a0,0x20
    80002968:	1ec50513          	addi	a0,a0,492 # 80022b50 <__func__.2+0x2e8>
bool two_stage_translation_2(){
    8000296c:	f406                	sd	ra,40(sp)
    8000296e:	f022                	sd	s0,32(sp)
    80002970:	ec26                	sd	s1,24(sp)
    80002972:	e84a                	sd	s2,16(sp)
    80002974:	e44e                	sd	s3,8(sp)
    TEST_START();
    80002976:	2fa1e0ef          	jal	80020c70 <printf>
    8000297a:	4529                	li	a0,10
    8000297c:	1851d0ef          	jal	80020300 <putchar>
    *((volatile uint64_t*) addr) = val;
    80002980:	2201b737          	lui	a4,0x2201b
    80002984:	000887b7          	lui	a5,0x88
    80002988:	070a                	slli	a4,a4,0x2
    8000298a:	44c5                	li	s1,17
    8000298c:	06d78793          	addi	a5,a5,109 # 8806d <_test_table_size+0x8806c>
    80002990:	e304                	sd	s1,0(a4)
    80002992:	07b2                	slli	a5,a5,0xc
    80002994:	02200913          	li	s2,34
    80002998:	0127b023          	sd	s2,0(a5)
    write64(addr2, 0x22);

    /**
     * Setup hyp page_tables.
     */
    goto_priv(PRIV_HS);
    8000299c:	450d                	li	a0,3
    8000299e:	93afe0ef          	jal	80000ad8 <goto_priv>
    hspt_init();
    800029a2:	c3ffd0ef          	jal	800005e0 <hspt_init>
    hpt_init();
    800029a6:	e7dfd0ef          	jal	80000822 <hpt_init>

    /**
     * Setup guest page tables.
     */
    goto_priv(PRIV_VS);
    800029aa:	4509                	li	a0,2
    800029ac:	92cfe0ef          	jal	80000ad8 <goto_priv>
    vspt_init();
    800029b0:	d01fd0ef          	jal	800006b0 <vspt_init>
    return *((volatile uint64_t*) addr);
    800029b4:	4001b737          	lui	a4,0x4001b
    800029b8:	070a                	slli	a4,a4,0x2
    800029ba:	00073983          	ld	s3,0(a4) # 4001b000 <STACK_SIZE+0x3ff1b000>
    800029be:	001007b7          	lui	a5,0x100
    800029c2:	06d78793          	addi	a5,a5,109 # 10006d <STACK_SIZE+0x6d>
    800029c6:	07b2                	slli	a5,a5,0xc

    bool check1 = read64(vaddr1) == 0x11;
    bool check2 = read64(vaddr2) == 0x22;
    TEST_ASSERT("vs gets right values", check1 && check2);
    800029c8:	00020617          	auipc	a2,0x20
    800029cc:	5d060613          	addi	a2,a2,1488 # 80022f98 <__func__.2+0x730>
    800029d0:	08200593          	li	a1,130
    800029d4:	00020517          	auipc	a0,0x20
    800029d8:	19450513          	addi	a0,a0,404 # 80022b68 <__func__.2+0x300>
    800029dc:	6380                	ld	s0,0(a5)
    800029de:	2921e0ef          	jal	80020c70 <printf>
    800029e2:	0c998b63          	beq	s3,s1,80002ab8 <two_stage_translation_2+0x15e>
    800029e6:	00020597          	auipc	a1,0x20
    800029ea:	15a58593          	addi	a1,a1,346 # 80022b40 <__func__.2+0x2d8>
    800029ee:	00020517          	auipc	a0,0x20
    800029f2:	19250513          	addi	a0,a0,402 # 80022b80 <__func__.2+0x318>
    800029f6:	27a1e0ef          	jal	80020c70 <printf>
    800029fa:	00020517          	auipc	a0,0x20
    800029fe:	18e50513          	addi	a0,a0,398 # 80022b88 <__func__.2+0x320>
    80002a02:	26e1e0ef          	jal	80020c70 <printf>
    80002a06:	02900513          	li	a0,41
    80002a0a:	0f71d0ef          	jal	80020300 <putchar>
    80002a0e:	4529                	li	a0,10
    80002a10:	0f11d0ef          	jal	80020300 <putchar>
    80002a14:	4401                	li	s0,0
    
    goto_priv(PRIV_HS);
    80002a16:	450d                	li	a0,3
    80002a18:	8c0fe0ef          	jal	80000ad8 <goto_priv>
    hpt_switch();
    80002a1c:	faffd0ef          	jal	800009ca <hpt_switch>
    goto_priv(PRIV_VS);
    80002a20:	4509                	li	a0,2
    80002a22:	8b6fe0ef          	jal	80000ad8 <goto_priv>
    80002a26:	001007b7          	lui	a5,0x100
    80002a2a:	4001b737          	lui	a4,0x4001b
    80002a2e:	070a                	slli	a4,a4,0x2
    80002a30:	06d78793          	addi	a5,a5,109 # 10006d <STACK_SIZE+0x6d>
    80002a34:	07b2                	slli	a5,a5,0xc
    80002a36:	6304                	ld	s1,0(a4)
    check1 = read64(vaddr1) == 0x11;
    check2 = read64(vaddr2) == 0x22;   
    // INFO("0%lx 0x%lx", read64(vaddr1), read64(vaddr2));
    TEST_ASSERT("vs do not change values after changing 2nd stage pt when not execute hfence", check1 && check2);
    80002a38:	00020617          	auipc	a2,0x20
    80002a3c:	69060613          	addi	a2,a2,1680 # 800230c8 <__func__.2+0x860>
    80002a40:	08200593          	li	a1,130
    80002a44:	00020517          	auipc	a0,0x20
    80002a48:	12450513          	addi	a0,a0,292 # 80022b68 <__func__.2+0x300>
    80002a4c:	0007b903          	ld	s2,0(a5)
    80002a50:	2201e0ef          	jal	80020c70 <printf>
    80002a54:	47c5                	li	a5,17
    80002a56:	0af48d63          	beq	s1,a5,80002b10 <two_stage_translation_2+0x1b6>
    80002a5a:	00020597          	auipc	a1,0x20
    80002a5e:	0e658593          	addi	a1,a1,230 # 80022b40 <__func__.2+0x2d8>
    80002a62:	00020517          	auipc	a0,0x20
    80002a66:	11e50513          	addi	a0,a0,286 # 80022b80 <__func__.2+0x318>
    80002a6a:	2061e0ef          	jal	80020c70 <printf>
    80002a6e:	00020517          	auipc	a0,0x20
    80002a72:	11a50513          	addi	a0,a0,282 # 80022b88 <__func__.2+0x320>
    80002a76:	1fa1e0ef          	jal	80020c70 <printf>
    80002a7a:	02900513          	li	a0,41
    80002a7e:	0831d0ef          	jal	80020300 <putchar>
    80002a82:	4529                	li	a0,10
    80002a84:	07d1d0ef          	jal	80020300 <putchar>
    80002a88:	4401                	li	s0,0


    TEST_END();
    80002a8a:	00020597          	auipc	a1,0x20
    80002a8e:	0b658593          	addi	a1,a1,182 # 80022b40 <__func__.2+0x2d8>
    80002a92:	00020517          	auipc	a0,0x20
    80002a96:	15650513          	addi	a0,a0,342 # 80022be8 <__func__.2+0x380>
    80002a9a:	1d61e0ef          	jal	80020c70 <printf>
    80002a9e:	4511                	li	a0,4
    80002aa0:	838fe0ef          	jal	80000ad8 <goto_priv>
    80002aa4:	905fe0ef          	jal	800013a8 <reset_state>
}
    80002aa8:	70a2                	ld	ra,40(sp)
    80002aaa:	8522                	mv	a0,s0
    80002aac:	7402                	ld	s0,32(sp)
    80002aae:	64e2                	ld	s1,24(sp)
    80002ab0:	6942                	ld	s2,16(sp)
    80002ab2:	69a2                	ld	s3,8(sp)
    80002ab4:	6145                	addi	sp,sp,48
    80002ab6:	8082                	ret
    TEST_ASSERT("vs gets right values", check1 && check2);
    80002ab8:	03240e63          	beq	s0,s2,80002af4 <two_stage_translation_2+0x19a>
    80002abc:	00020597          	auipc	a1,0x20
    80002ac0:	08458593          	addi	a1,a1,132 # 80022b40 <__func__.2+0x2d8>
    80002ac4:	00020517          	auipc	a0,0x20
    80002ac8:	0bc50513          	addi	a0,a0,188 # 80022b80 <__func__.2+0x318>
    80002acc:	1a41e0ef          	jal	80020c70 <printf>
    80002ad0:	00020517          	auipc	a0,0x20
    80002ad4:	0b850513          	addi	a0,a0,184 # 80022b88 <__func__.2+0x320>
    80002ad8:	1981e0ef          	jal	80020c70 <printf>
    80002adc:	02900513          	li	a0,41
    80002ae0:	0211d0ef          	jal	80020300 <putchar>
    80002ae4:	4529                	li	a0,10
    80002ae6:	01b1d0ef          	jal	80020300 <putchar>
    80002aea:	fde40413          	addi	s0,s0,-34
    80002aee:	00143413          	seqz	s0,s0
    80002af2:	b715                	j	80002a16 <two_stage_translation_2+0xbc>
    80002af4:	00020597          	auipc	a1,0x20
    80002af8:	03c58593          	addi	a1,a1,60 # 80022b30 <__func__.2+0x2c8>
    80002afc:	00020517          	auipc	a0,0x20
    80002b00:	08450513          	addi	a0,a0,132 # 80022b80 <__func__.2+0x318>
    80002b04:	16c1e0ef          	jal	80020c70 <printf>
    80002b08:	4529                	li	a0,10
    80002b0a:	7f61d0ef          	jal	80020300 <putchar>
    80002b0e:	bff1                	j	80002aea <two_stage_translation_2+0x190>
    TEST_ASSERT("vs do not change values after changing 2nd stage pt when not execute hfence", check1 && check2);
    80002b10:	02200793          	li	a5,34
    80002b14:	f4f913e3          	bne	s2,a5,80002a5a <two_stage_translation_2+0x100>
    80002b18:	00020597          	auipc	a1,0x20
    80002b1c:	01858593          	addi	a1,a1,24 # 80022b30 <__func__.2+0x2c8>
    80002b20:	00020517          	auipc	a0,0x20
    80002b24:	06050513          	addi	a0,a0,96 # 80022b80 <__func__.2+0x318>
    80002b28:	1481e0ef          	jal	80020c70 <printf>
    80002b2c:	4529                	li	a0,10
    80002b2e:	7d21d0ef          	jal	80020300 <putchar>
    80002b32:	d839                	beqz	s0,80002a88 <two_stage_translation_2+0x12e>
    80002b34:	4405                	li	s0,1
    TEST_END();
    80002b36:	00020597          	auipc	a1,0x20
    80002b3a:	ffa58593          	addi	a1,a1,-6 # 80022b30 <__func__.2+0x2c8>
    80002b3e:	bf91                	j	80002a92 <two_stage_translation_2+0x138>

0000000080002b40 <two_stage_translation_3>:

bool two_stage_translation_3(){
    80002b40:	7179                	addi	sp,sp,-48
    
    TEST_START();
    80002b42:	0001e597          	auipc	a1,0x1e
    80002b46:	6b658593          	addi	a1,a1,1718 # 800211f8 <__func__.16>
    80002b4a:	00020517          	auipc	a0,0x20
    80002b4e:	00650513          	addi	a0,a0,6 # 80022b50 <__func__.2+0x2e8>
bool two_stage_translation_3(){
    80002b52:	f406                	sd	ra,40(sp)
    80002b54:	f022                	sd	s0,32(sp)
    80002b56:	ec26                	sd	s1,24(sp)
    80002b58:	e84a                	sd	s2,16(sp)
    80002b5a:	e44e                	sd	s3,8(sp)
    TEST_START();
    80002b5c:	1141e0ef          	jal	80020c70 <printf>
    80002b60:	4529                	li	a0,10
    80002b62:	79e1d0ef          	jal	80020300 <putchar>
    *((volatile uint64_t*) addr) = val;
    80002b66:	2201b737          	lui	a4,0x2201b
    80002b6a:	000887b7          	lui	a5,0x88
    80002b6e:	070a                	slli	a4,a4,0x2
    80002b70:	44c5                	li	s1,17
    80002b72:	06d78793          	addi	a5,a5,109 # 8806d <_test_table_size+0x8806c>
    80002b76:	e304                	sd	s1,0(a4)
    80002b78:	07b2                	slli	a5,a5,0xc
    80002b7a:	02200913          	li	s2,34
    80002b7e:	0127b023          	sd	s2,0(a5)
    write64(addr2, 0x22);

    /**
     * Setup hyp page_tables.
     */
    goto_priv(PRIV_HS);
    80002b82:	450d                	li	a0,3
    80002b84:	f55fd0ef          	jal	80000ad8 <goto_priv>
    hspt_init();
    80002b88:	a59fd0ef          	jal	800005e0 <hspt_init>
    hpt_init();
    80002b8c:	c97fd0ef          	jal	80000822 <hpt_init>

    /**
     * Setup guest page tables.
     */
    goto_priv(PRIV_VS);
    80002b90:	4509                	li	a0,2
    80002b92:	f47fd0ef          	jal	80000ad8 <goto_priv>
    vspt_init();
    80002b96:	b1bfd0ef          	jal	800006b0 <vspt_init>
    return *((volatile uint64_t*) addr);
    80002b9a:	4001b737          	lui	a4,0x4001b
    80002b9e:	070a                	slli	a4,a4,0x2
    80002ba0:	00073983          	ld	s3,0(a4) # 4001b000 <STACK_SIZE+0x3ff1b000>
    80002ba4:	001007b7          	lui	a5,0x100
    80002ba8:	06d78793          	addi	a5,a5,109 # 10006d <STACK_SIZE+0x6d>
    80002bac:	07b2                	slli	a5,a5,0xc

    bool check1 = read64(vaddr1) == 0x11;
    bool check2 = read64(vaddr2) == 0x22;
    TEST_ASSERT("vs gets right values", check1 && check2);
    80002bae:	00020617          	auipc	a2,0x20
    80002bb2:	3ea60613          	addi	a2,a2,1002 # 80022f98 <__func__.2+0x730>
    80002bb6:	08200593          	li	a1,130
    80002bba:	00020517          	auipc	a0,0x20
    80002bbe:	fae50513          	addi	a0,a0,-82 # 80022b68 <__func__.2+0x300>
    80002bc2:	6380                	ld	s0,0(a5)
    80002bc4:	0ac1e0ef          	jal	80020c70 <printf>
    80002bc8:	0c998863          	beq	s3,s1,80002c98 <two_stage_translation_3+0x158>
    80002bcc:	00020597          	auipc	a1,0x20
    80002bd0:	f7458593          	addi	a1,a1,-140 # 80022b40 <__func__.2+0x2d8>
    80002bd4:	00020517          	auipc	a0,0x20
    80002bd8:	fac50513          	addi	a0,a0,-84 # 80022b80 <__func__.2+0x318>
    80002bdc:	0941e0ef          	jal	80020c70 <printf>
    80002be0:	00020517          	auipc	a0,0x20
    80002be4:	fa850513          	addi	a0,a0,-88 # 80022b88 <__func__.2+0x320>
    80002be8:	0881e0ef          	jal	80020c70 <printf>
    80002bec:	02900513          	li	a0,41
    80002bf0:	7101d0ef          	jal	80020300 <putchar>
    80002bf4:	4529                	li	a0,10
    80002bf6:	70a1d0ef          	jal	80020300 <putchar>
    80002bfa:	4401                	li	s0,0
    
    goto_priv(PRIV_VS);
    80002bfc:	4509                	li	a0,2
    80002bfe:	edbfd0ef          	jal	80000ad8 <goto_priv>

    vspt_switch();
    80002c02:	daffd0ef          	jal	800009b0 <vspt_switch>
    80002c06:	001007b7          	lui	a5,0x100
    80002c0a:	4001b737          	lui	a4,0x4001b
    80002c0e:	070a                	slli	a4,a4,0x2
    80002c10:	06d78793          	addi	a5,a5,109 # 10006d <STACK_SIZE+0x6d>
    80002c14:	07b2                	slli	a5,a5,0xc
    80002c16:	6304                	ld	s1,0(a4)
    check1 = read64(vaddr1) == 0x11;
    check2 = read64(vaddr2) == 0x22;   
    TEST_ASSERT("vs do not change values after changing 1st stage pt when not execute sfence", check1 && check2);
    80002c18:	00020617          	auipc	a2,0x20
    80002c1c:	50060613          	addi	a2,a2,1280 # 80023118 <__func__.2+0x8b0>
    80002c20:	08200593          	li	a1,130
    80002c24:	00020517          	auipc	a0,0x20
    80002c28:	f4450513          	addi	a0,a0,-188 # 80022b68 <__func__.2+0x300>
    80002c2c:	0007b903          	ld	s2,0(a5)
    80002c30:	0401e0ef          	jal	80020c70 <printf>
    80002c34:	47c5                	li	a5,17
    80002c36:	0af48d63          	beq	s1,a5,80002cf0 <two_stage_translation_3+0x1b0>
    80002c3a:	00020597          	auipc	a1,0x20
    80002c3e:	f0658593          	addi	a1,a1,-250 # 80022b40 <__func__.2+0x2d8>
    80002c42:	00020517          	auipc	a0,0x20
    80002c46:	f3e50513          	addi	a0,a0,-194 # 80022b80 <__func__.2+0x318>
    80002c4a:	0261e0ef          	jal	80020c70 <printf>
    80002c4e:	00020517          	auipc	a0,0x20
    80002c52:	f3a50513          	addi	a0,a0,-198 # 80022b88 <__func__.2+0x320>
    80002c56:	01a1e0ef          	jal	80020c70 <printf>
    80002c5a:	02900513          	li	a0,41
    80002c5e:	6a21d0ef          	jal	80020300 <putchar>
    80002c62:	4529                	li	a0,10
    80002c64:	69c1d0ef          	jal	80020300 <putchar>
    80002c68:	4401                	li	s0,0

    TEST_END();
    80002c6a:	00020597          	auipc	a1,0x20
    80002c6e:	ed658593          	addi	a1,a1,-298 # 80022b40 <__func__.2+0x2d8>
    80002c72:	00020517          	auipc	a0,0x20
    80002c76:	f7650513          	addi	a0,a0,-138 # 80022be8 <__func__.2+0x380>
    80002c7a:	7f71d0ef          	jal	80020c70 <printf>
    80002c7e:	4511                	li	a0,4
    80002c80:	e59fd0ef          	jal	80000ad8 <goto_priv>
    80002c84:	f24fe0ef          	jal	800013a8 <reset_state>
}
    80002c88:	70a2                	ld	ra,40(sp)
    80002c8a:	8522                	mv	a0,s0
    80002c8c:	7402                	ld	s0,32(sp)
    80002c8e:	64e2                	ld	s1,24(sp)
    80002c90:	6942                	ld	s2,16(sp)
    80002c92:	69a2                	ld	s3,8(sp)
    80002c94:	6145                	addi	sp,sp,48
    80002c96:	8082                	ret
    TEST_ASSERT("vs gets right values", check1 && check2);
    80002c98:	03240e63          	beq	s0,s2,80002cd4 <two_stage_translation_3+0x194>
    80002c9c:	00020597          	auipc	a1,0x20
    80002ca0:	ea458593          	addi	a1,a1,-348 # 80022b40 <__func__.2+0x2d8>
    80002ca4:	00020517          	auipc	a0,0x20
    80002ca8:	edc50513          	addi	a0,a0,-292 # 80022b80 <__func__.2+0x318>
    80002cac:	7c51d0ef          	jal	80020c70 <printf>
    80002cb0:	00020517          	auipc	a0,0x20
    80002cb4:	ed850513          	addi	a0,a0,-296 # 80022b88 <__func__.2+0x320>
    80002cb8:	7b91d0ef          	jal	80020c70 <printf>
    80002cbc:	02900513          	li	a0,41
    80002cc0:	6401d0ef          	jal	80020300 <putchar>
    80002cc4:	4529                	li	a0,10
    80002cc6:	63a1d0ef          	jal	80020300 <putchar>
    80002cca:	fde40413          	addi	s0,s0,-34
    80002cce:	00143413          	seqz	s0,s0
    80002cd2:	b72d                	j	80002bfc <two_stage_translation_3+0xbc>
    80002cd4:	00020597          	auipc	a1,0x20
    80002cd8:	e5c58593          	addi	a1,a1,-420 # 80022b30 <__func__.2+0x2c8>
    80002cdc:	00020517          	auipc	a0,0x20
    80002ce0:	ea450513          	addi	a0,a0,-348 # 80022b80 <__func__.2+0x318>
    80002ce4:	78d1d0ef          	jal	80020c70 <printf>
    80002ce8:	4529                	li	a0,10
    80002cea:	6161d0ef          	jal	80020300 <putchar>
    80002cee:	bff1                	j	80002cca <two_stage_translation_3+0x18a>
    TEST_ASSERT("vs do not change values after changing 1st stage pt when not execute sfence", check1 && check2);
    80002cf0:	02200793          	li	a5,34
    80002cf4:	f4f913e3          	bne	s2,a5,80002c3a <two_stage_translation_3+0xfa>
    80002cf8:	00020597          	auipc	a1,0x20
    80002cfc:	e3858593          	addi	a1,a1,-456 # 80022b30 <__func__.2+0x2c8>
    80002d00:	00020517          	auipc	a0,0x20
    80002d04:	e8050513          	addi	a0,a0,-384 # 80022b80 <__func__.2+0x318>
    80002d08:	7691d0ef          	jal	80020c70 <printf>
    80002d0c:	4529                	li	a0,10
    80002d0e:	5f21d0ef          	jal	80020300 <putchar>
    80002d12:	d839                	beqz	s0,80002c68 <two_stage_translation_3+0x128>
    80002d14:	4405                	li	s0,1
    TEST_END();
    80002d16:	00020597          	auipc	a1,0x20
    80002d1a:	e1a58593          	addi	a1,a1,-486 # 80022b30 <__func__.2+0x2c8>
    80002d1e:	bf91                	j	80002c72 <two_stage_translation_3+0x132>

0000000080002d20 <second_stage_only_translation>:

bool second_stage_only_translation(){
    80002d20:	7179                	addi	sp,sp,-48

    /**
     * Test only 2nd stage translation.
     */
    TEST_START();
    80002d22:	0001e597          	auipc	a1,0x1e
    80002d26:	4ee58593          	addi	a1,a1,1262 # 80021210 <__func__.15>
    80002d2a:	00020517          	auipc	a0,0x20
    80002d2e:	e2650513          	addi	a0,a0,-474 # 80022b50 <__func__.2+0x2e8>
bool second_stage_only_translation(){
    80002d32:	f406                	sd	ra,40(sp)
    80002d34:	ec26                	sd	s1,24(sp)
    80002d36:	e84a                	sd	s2,16(sp)
    80002d38:	f022                	sd	s0,32(sp)
    80002d3a:	e44e                	sd	s3,8(sp)
    80002d3c:	e052                	sd	s4,0(sp)
    TEST_START();
    80002d3e:	7331d0ef          	jal	80020c70 <printf>
    80002d42:	4529                	li	a0,10
    80002d44:	5bc1d0ef          	jal	80020300 <putchar>
    *((volatile uint64_t*) addr) = val;
    80002d48:	2201b737          	lui	a4,0x2201b
    80002d4c:	000887b7          	lui	a5,0x88
    80002d50:	070a                	slli	a4,a4,0x2
    80002d52:	44c5                	li	s1,17
    80002d54:	06d78793          	addi	a5,a5,109 # 8806d <_test_table_size+0x8806c>
    80002d58:	e304                	sd	s1,0(a4)
    80002d5a:	07b2                	slli	a5,a5,0xc
    80002d5c:	02200913          	li	s2,34
    80002d60:	0127b023          	sd	s2,0(a5)
    uintptr_t vaddr2 = vs_page_base(SWITCH2);
    write64(addr1, 0x11);
    write64(addr2, 0x22);   


    CSRS(medeleg, (1 << CAUSE_LGPF) | (1 << CAUSE_SGPF));
    80002d64:	00a007b7          	lui	a5,0xa00
    80002d68:	3027a073          	csrs	medeleg,a5

    /**
     * Setup hyp page_tables.
     */
    goto_priv(PRIV_HS);
    80002d6c:	450d                	li	a0,3
    80002d6e:	d6bfd0ef          	jal	80000ad8 <goto_priv>
    hspt_init();
    80002d72:	86ffd0ef          	jal	800005e0 <hspt_init>
    hpt_init();
    80002d76:	aadfd0ef          	jal	80000822 <hpt_init>
    
    goto_priv(PRIV_VS);
    80002d7a:	4509                	li	a0,2
    80002d7c:	d5dfd0ef          	jal	80000ad8 <goto_priv>
    TEST_SETUP_EXCEPT();
    80002d80:	0330000f          	fence	rw,rw
    80002d84:	00042417          	auipc	s0,0x42
    80002d88:	28c40413          	addi	s0,s0,652 # 80045010 <excpt>
    80002d8c:	4785                	li	a5,1
    80002d8e:	00042717          	auipc	a4,0x42
    80002d92:	2a073d23          	sd	zero,698(a4) # 80045048 <excpt+0x38>
    80002d96:	00f41023          	sh	a5,0(s0)
    80002d9a:	0330000f          	fence	rw,rw
    return *((volatile uint64_t*) addr);
    80002d9e:	001007b7          	lui	a5,0x100
    80002da2:	06d78793          	addi	a5,a5,109 # 10006d <STACK_SIZE+0x6d>
    80002da6:	4001b737          	lui	a4,0x4001b
    80002daa:	07b2                	slli	a5,a5,0xc
    80002dac:	070a                	slli	a4,a4,0x2
    bool check1 = read64(vaddr1) == 0x11;
    bool check2 = read64(vaddr2) == 0x22;
    TEST_ASSERT("vs gets right values", excpt.triggered == false && check1 && check2);
    80002dae:	00020617          	auipc	a2,0x20
    80002db2:	1ea60613          	addi	a2,a2,490 # 80022f98 <__func__.2+0x730>
    80002db6:	08200593          	li	a1,130
    80002dba:	00020517          	auipc	a0,0x20
    80002dbe:	dae50513          	addi	a0,a0,-594 # 80022b68 <__func__.2+0x300>
    80002dc2:	00073983          	ld	s3,0(a4) # 4001b000 <STACK_SIZE+0x3ff1b000>
    80002dc6:	0007ba03          	ld	s4,0(a5)
    80002dca:	6a71d0ef          	jal	80020c70 <printf>
    80002dce:	00042797          	auipc	a5,0x42
    80002dd2:	2437c783          	lbu	a5,579(a5) # 80045011 <excpt+0x1>
    80002dd6:	ef91                	bnez	a5,80002df2 <second_stage_only_translation+0xd2>
    80002dd8:	2e998163          	beq	s3,s1,800030ba <second_stage_only_translation+0x39a>
    80002ddc:	00020597          	auipc	a1,0x20
    80002de0:	d6458593          	addi	a1,a1,-668 # 80022b40 <__func__.2+0x2d8>
    80002de4:	00020517          	auipc	a0,0x20
    80002de8:	d9c50513          	addi	a0,a0,-612 # 80022b80 <__func__.2+0x318>
    80002dec:	6851d0ef          	jal	80020c70 <printf>
    80002df0:	a01d                	j	80002e16 <second_stage_only_translation+0xf6>
    80002df2:	00020597          	auipc	a1,0x20
    80002df6:	d4e58593          	addi	a1,a1,-690 # 80022b40 <__func__.2+0x2d8>
    80002dfa:	00020517          	auipc	a0,0x20
    80002dfe:	d8650513          	addi	a0,a0,-634 # 80022b80 <__func__.2+0x318>
    80002e02:	66f1d0ef          	jal	80020c70 <printf>
    80002e06:	00042797          	auipc	a5,0x42
    80002e0a:	20b7c783          	lbu	a5,523(a5) # 80045011 <excpt+0x1>
    80002e0e:	2e079a63          	bnez	a5,80003102 <second_stage_only_translation+0x3e2>
    80002e12:	36998a63          	beq	s3,s1,80003186 <second_stage_only_translation+0x466>
    80002e16:	00020517          	auipc	a0,0x20
    80002e1a:	d7250513          	addi	a0,a0,-654 # 80022b88 <__func__.2+0x320>
    80002e1e:	6531d0ef          	jal	80020c70 <printf>
    80002e22:	02900513          	li	a0,41
    80002e26:	4da1d0ef          	jal	80020300 <putchar>
    80002e2a:	4529                	li	a0,10
    80002e2c:	4d41d0ef          	jal	80020300 <putchar>
    80002e30:	4481                	li	s1,0

    goto_priv(PRIV_HS);
    80002e32:	450d                	li	a0,3
    80002e34:	ca5fd0ef          	jal	80000ad8 <goto_priv>
    hpt_switch();       //nemuread64hlvd
    80002e38:	b93fd0ef          	jal	800009ca <hpt_switch>
    asm volatile(
    80002e3c:	22000073          	.insn	4, 0x22000073
    asm volatile(
    80002e40:	62000073          	.insn	4, 0x62000073
    hfence(); //l2tlb
    goto_priv(PRIV_VS);
    80002e44:	4509                	li	a0,2
    80002e46:	c93fd0ef          	jal	80000ad8 <goto_priv>
    asm volatile ("sfence.vma \n\t");
    80002e4a:	12000073          	sfence.vma
    sfence(); //l1tlb
    TEST_SETUP_EXCEPT();
    80002e4e:	0330000f          	fence	rw,rw
    80002e52:	4785                	li	a5,1
    80002e54:	00042717          	auipc	a4,0x42
    80002e58:	1e073a23          	sd	zero,500(a4) # 80045048 <excpt+0x38>
    80002e5c:	00f41023          	sh	a5,0(s0)
    80002e60:	0330000f          	fence	rw,rw
    80002e64:	001007b7          	lui	a5,0x100
    80002e68:	06d78793          	addi	a5,a5,109 # 10006d <STACK_SIZE+0x6d>
    80002e6c:	4001b737          	lui	a4,0x4001b
    80002e70:	07b2                	slli	a5,a5,0xc
    80002e72:	070a                	slli	a4,a4,0x2
    check1 = read64(vaddr1) == 0x22;
    check2 = read64(vaddr2) == 0x11;   
    TEST_ASSERT("vs gets right values after changing pt", excpt.triggered == false && check1 && check2);
    80002e74:	00020617          	auipc	a2,0x20
    80002e78:	2f460613          	addi	a2,a2,756 # 80023168 <__func__.2+0x900>
    80002e7c:	08200593          	li	a1,130
    80002e80:	00020517          	auipc	a0,0x20
    80002e84:	ce850513          	addi	a0,a0,-792 # 80022b68 <__func__.2+0x300>
    80002e88:	00073903          	ld	s2,0(a4) # 4001b000 <STACK_SIZE+0x3ff1b000>
    80002e8c:	0007b983          	ld	s3,0(a5)
    80002e90:	5e11d0ef          	jal	80020c70 <printf>
    80002e94:	00042797          	auipc	a5,0x42
    80002e98:	17d7c783          	lbu	a5,381(a5) # 80045011 <excpt+0x1>
    80002e9c:	1a079563          	bnez	a5,80003046 <second_stage_only_translation+0x326>
    80002ea0:	02200793          	li	a5,34
    80002ea4:	2af90d63          	beq	s2,a5,8000315e <second_stage_only_translation+0x43e>
    80002ea8:	00020597          	auipc	a1,0x20
    80002eac:	c9858593          	addi	a1,a1,-872 # 80022b40 <__func__.2+0x2d8>
    80002eb0:	00020517          	auipc	a0,0x20
    80002eb4:	cd050513          	addi	a0,a0,-816 # 80022b80 <__func__.2+0x318>
    80002eb8:	5b91d0ef          	jal	80020c70 <printf>
    80002ebc:	00020517          	auipc	a0,0x20
    80002ec0:	ccc50513          	addi	a0,a0,-820 # 80022b88 <__func__.2+0x320>
    80002ec4:	5ad1d0ef          	jal	80020c70 <printf>
    80002ec8:	02900513          	li	a0,41
    80002ecc:	4341d0ef          	jal	80020300 <putchar>
    80002ed0:	4529                	li	a0,10
    80002ed2:	42e1d0ef          	jal	80020300 <putchar>
    80002ed6:	c891                	beqz	s1,80002eea <second_stage_only_translation+0x1ca>
    80002ed8:	00042797          	auipc	a5,0x42
    80002edc:	1397c783          	lbu	a5,313(a5) # 80045011 <excpt+0x1>
    80002ee0:	e789                	bnez	a5,80002eea <second_stage_only_translation+0x1ca>
    80002ee2:	02200793          	li	a5,34
    80002ee6:	1af90263          	beq	s2,a5,8000308a <second_stage_only_translation+0x36a>
    80002eea:	4481                	li	s1,0

    TEST_SETUP_EXCEPT();
    80002eec:	0330000f          	fence	rw,rw
    80002ef0:	4785                	li	a5,1
    80002ef2:	00042717          	auipc	a4,0x42
    80002ef6:	14073b23          	sd	zero,342(a4) # 80045048 <excpt+0x38>
    80002efa:	00f41023          	sh	a5,0(s0)
    80002efe:	0330000f          	fence	rw,rw
    80002f02:	001007b7          	lui	a5,0x100
    80002f06:	06578793          	addi	a5,a5,101 # 100065 <STACK_SIZE+0x65>
    80002f0a:	07b2                	slli	a5,a5,0xc
    80002f0c:	639c                	ld	a5,0(a5)
    (void) read64(vs_page_base(VSRWX_GI));  
    TEST_ASSERT(
    80002f0e:	08200593          	li	a1,130
    80002f12:	00020617          	auipc	a2,0x20
    80002f16:	27e60613          	addi	a2,a2,638 # 80023190 <__func__.2+0x928>
    80002f1a:	00020517          	auipc	a0,0x20
    80002f1e:	c4e50513          	addi	a0,a0,-946 # 80022b68 <__func__.2+0x300>
    80002f22:	54f1d0ef          	jal	80020c70 <printf>
    80002f26:	00042797          	auipc	a5,0x42
    80002f2a:	0eb7c783          	lbu	a5,235(a5) # 80045011 <excpt+0x1>
    80002f2e:	00020597          	auipc	a1,0x20
    80002f32:	c1258593          	addi	a1,a1,-1006 # 80022b40 <__func__.2+0x2d8>
    80002f36:	c789                	beqz	a5,80002f40 <second_stage_only_translation+0x220>
    80002f38:	6418                	ld	a4,8(s0)
    80002f3a:	47d5                	li	a5,21
    80002f3c:	20f70163          	beq	a4,a5,8000313e <second_stage_only_translation+0x41e>
    80002f40:	00020517          	auipc	a0,0x20
    80002f44:	c4050513          	addi	a0,a0,-960 # 80022b80 <__func__.2+0x318>
    80002f48:	5291d0ef          	jal	80020c70 <printf>
    80002f4c:	00042797          	auipc	a5,0x42
    80002f50:	0c57c783          	lbu	a5,197(a5) # 80045011 <excpt+0x1>
    80002f54:	c789                	beqz	a5,80002f5e <second_stage_only_translation+0x23e>
    80002f56:	6418                	ld	a4,8(s0)
    80002f58:	47d5                	li	a5,21
    80002f5a:	14f70863          	beq	a4,a5,800030aa <second_stage_only_translation+0x38a>
    80002f5e:	00020517          	auipc	a0,0x20
    80002f62:	c2a50513          	addi	a0,a0,-982 # 80022b88 <__func__.2+0x320>
    80002f66:	50b1d0ef          	jal	80020c70 <printf>
    80002f6a:	02900513          	li	a0,41
    80002f6e:	3921d0ef          	jal	80020300 <putchar>
    80002f72:	4529                	li	a0,10
    80002f74:	38c1d0ef          	jal	80020300 <putchar>
    80002f78:	c899                	beqz	s1,80002f8e <second_stage_only_translation+0x26e>
    80002f7a:	00042797          	auipc	a5,0x42
    80002f7e:	0977c783          	lbu	a5,151(a5) # 80045011 <excpt+0x1>
    80002f82:	4481                	li	s1,0
    80002f84:	c789                	beqz	a5,80002f8e <second_stage_only_translation+0x26e>
    80002f86:	6418                	ld	a4,8(s0)
    80002f88:	47d5                	li	a5,21
    80002f8a:	1af70263          	beq	a4,a5,8000312e <second_stage_only_translation+0x40e>
        excpt.triggered == true && 
        excpt.cause == CAUSE_LGPF &&
        excpt.priv == PRIV_HS
    );

    TEST_SETUP_EXCEPT();
    80002f8e:	0330000f          	fence	rw,rw
    80002f92:	4785                	li	a5,1
    80002f94:	00042717          	auipc	a4,0x42
    80002f98:	0a073a23          	sd	zero,180(a4) # 80045048 <excpt+0x38>
    80002f9c:	00f41023          	sh	a5,0(s0)
    80002fa0:	0330000f          	fence	rw,rw
    80002fa4:	200007b7          	lui	a5,0x20000
    80002fa8:	17fd                	addi	a5,a5,-1 # 1fffffff <STACK_SIZE+0x1fefffff>
    80002faa:	07b2                	slli	a5,a5,0xc
    80002fac:	639c                	ld	a5,0(a5)
    read64(vs_page_base_limit(TOP));
    TEST_ASSERT(
    80002fae:	08200593          	li	a1,130
    80002fb2:	00020617          	auipc	a2,0x20
    80002fb6:	20660613          	addi	a2,a2,518 # 800231b8 <__func__.2+0x950>
    80002fba:	00020517          	auipc	a0,0x20
    80002fbe:	bae50513          	addi	a0,a0,-1106 # 80022b68 <__func__.2+0x300>
    80002fc2:	4af1d0ef          	jal	80020c70 <printf>
    80002fc6:	00042797          	auipc	a5,0x42
    80002fca:	04b7c783          	lbu	a5,75(a5) # 80045011 <excpt+0x1>
    80002fce:	00020597          	auipc	a1,0x20
    80002fd2:	b7258593          	addi	a1,a1,-1166 # 80022b40 <__func__.2+0x2d8>
    80002fd6:	e789                	bnez	a5,80002fe0 <second_stage_only_translation+0x2c0>
    80002fd8:	00020597          	auipc	a1,0x20
    80002fdc:	b5858593          	addi	a1,a1,-1192 # 80022b30 <__func__.2+0x2c8>
    80002fe0:	00020517          	auipc	a0,0x20
    80002fe4:	ba050513          	addi	a0,a0,-1120 # 80022b80 <__func__.2+0x318>
    80002fe8:	4891d0ef          	jal	80020c70 <printf>
    80002fec:	00042797          	auipc	a5,0x42
    80002ff0:	0257c783          	lbu	a5,37(a5) # 80045011 <excpt+0x1>
    80002ff4:	e3c5                	bnez	a5,80003094 <second_stage_only_translation+0x374>
    80002ff6:	4529                	li	a0,10
    80002ff8:	3081d0ef          	jal	80020300 <putchar>
    80002ffc:	cc9d                	beqz	s1,8000303a <second_stage_only_translation+0x31a>
    80002ffe:	00042797          	auipc	a5,0x42
    80003002:	0137c783          	lbu	a5,19(a5) # 80045011 <excpt+0x1>
    80003006:	eb95                	bnez	a5,8000303a <second_stage_only_translation+0x31a>
    80003008:	4405                	li	s0,1
    //     "access top of guest pa space with high bits =/= 0", 
    //     excpt.triggered == true &&
    //     excpt.cause == CAUSE_LGPF
    // ); 

    TEST_END();
    8000300a:	00020597          	auipc	a1,0x20
    8000300e:	b2658593          	addi	a1,a1,-1242 # 80022b30 <__func__.2+0x2c8>
    80003012:	00020517          	auipc	a0,0x20
    80003016:	bd650513          	addi	a0,a0,-1066 # 80022be8 <__func__.2+0x380>
    8000301a:	4571d0ef          	jal	80020c70 <printf>
    8000301e:	4511                	li	a0,4
    80003020:	ab9fd0ef          	jal	80000ad8 <goto_priv>
    80003024:	b84fe0ef          	jal	800013a8 <reset_state>
}
    80003028:	70a2                	ld	ra,40(sp)
    8000302a:	8522                	mv	a0,s0
    8000302c:	7402                	ld	s0,32(sp)
    8000302e:	64e2                	ld	s1,24(sp)
    80003030:	6942                	ld	s2,16(sp)
    80003032:	69a2                	ld	s3,8(sp)
    80003034:	6a02                	ld	s4,0(sp)
    80003036:	6145                	addi	sp,sp,48
    80003038:	8082                	ret
    TEST_ASSERT(
    8000303a:	4401                	li	s0,0
    TEST_END();
    8000303c:	00020597          	auipc	a1,0x20
    80003040:	b0458593          	addi	a1,a1,-1276 # 80022b40 <__func__.2+0x2d8>
    80003044:	b7f9                	j	80003012 <second_stage_only_translation+0x2f2>
    TEST_ASSERT("vs gets right values after changing pt", excpt.triggered == false && check1 && check2);
    80003046:	00020597          	auipc	a1,0x20
    8000304a:	afa58593          	addi	a1,a1,-1286 # 80022b40 <__func__.2+0x2d8>
    8000304e:	00020517          	auipc	a0,0x20
    80003052:	b3250513          	addi	a0,a0,-1230 # 80022b80 <__func__.2+0x318>
    80003056:	41b1d0ef          	jal	80020c70 <printf>
    8000305a:	00042797          	auipc	a5,0x42
    8000305e:	fb77c783          	lbu	a5,-73(a5) # 80045011 <excpt+0x1>
    80003062:	e4079de3          	bnez	a5,80002ebc <second_stage_only_translation+0x19c>
    80003066:	02200793          	li	a5,34
    8000306a:	e4f919e3          	bne	s2,a5,80002ebc <second_stage_only_translation+0x19c>
    8000306e:	47c5                	li	a5,17
    80003070:	e4f996e3          	bne	s3,a5,80002ebc <second_stage_only_translation+0x19c>
    80003074:	4529                	li	a0,10
    80003076:	28a1d0ef          	jal	80020300 <putchar>
    8000307a:	e60488e3          	beqz	s1,80002eea <second_stage_only_translation+0x1ca>
    8000307e:	00042797          	auipc	a5,0x42
    80003082:	f937c783          	lbu	a5,-109(a5) # 80045011 <excpt+0x1>
    80003086:	e60792e3          	bnez	a5,80002eea <second_stage_only_translation+0x1ca>
    8000308a:	fef98493          	addi	s1,s3,-17
    8000308e:	0014b493          	seqz	s1,s1
    80003092:	bda9                	j	80002eec <second_stage_only_translation+0x1cc>
    TEST_ASSERT(
    80003094:	00020517          	auipc	a0,0x20
    80003098:	af450513          	addi	a0,a0,-1292 # 80022b88 <__func__.2+0x320>
    8000309c:	3d51d0ef          	jal	80020c70 <printf>
    800030a0:	02900513          	li	a0,41
    800030a4:	25c1d0ef          	jal	80020300 <putchar>
    800030a8:	b7b9                	j	80002ff6 <second_stage_only_translation+0x2d6>
    TEST_ASSERT(
    800030aa:	00042717          	auipc	a4,0x42
    800030ae:	f6a72703          	lw	a4,-150(a4) # 80045014 <excpt+0x4>
    800030b2:	478d                	li	a5,3
    800030b4:	eaf715e3          	bne	a4,a5,80002f5e <second_stage_only_translation+0x23e>
    800030b8:	bd6d                	j	80002f72 <second_stage_only_translation+0x252>
    TEST_ASSERT("vs gets right values", excpt.triggered == false && check1 && check2);
    800030ba:	0f2a0263          	beq	s4,s2,8000319e <second_stage_only_translation+0x47e>
    800030be:	00020597          	auipc	a1,0x20
    800030c2:	a8258593          	addi	a1,a1,-1406 # 80022b40 <__func__.2+0x2d8>
    800030c6:	00020517          	auipc	a0,0x20
    800030ca:	aba50513          	addi	a0,a0,-1350 # 80022b80 <__func__.2+0x318>
    800030ce:	3a31d0ef          	jal	80020c70 <printf>
    800030d2:	00020517          	auipc	a0,0x20
    800030d6:	ab650513          	addi	a0,a0,-1354 # 80022b88 <__func__.2+0x320>
    800030da:	3971d0ef          	jal	80020c70 <printf>
    800030de:	02900513          	li	a0,41
    800030e2:	21e1d0ef          	jal	80020300 <putchar>
    800030e6:	4529                	li	a0,10
    800030e8:	2181d0ef          	jal	80020300 <putchar>
    800030ec:	00042797          	auipc	a5,0x42
    800030f0:	f257c783          	lbu	a5,-219(a5) # 80045011 <excpt+0x1>
    800030f4:	d2079ee3          	bnez	a5,80002e30 <second_stage_only_translation+0x110>
    800030f8:	fdea0493          	addi	s1,s4,-34
    800030fc:	0014b493          	seqz	s1,s1
    80003100:	bb0d                	j	80002e32 <second_stage_only_translation+0x112>
    80003102:	00020517          	auipc	a0,0x20
    80003106:	a8650513          	addi	a0,a0,-1402 # 80022b88 <__func__.2+0x320>
    8000310a:	3671d0ef          	jal	80020c70 <printf>
    8000310e:	02900513          	li	a0,41
    80003112:	1ee1d0ef          	jal	80020300 <putchar>
    80003116:	4529                	li	a0,10
    80003118:	1e81d0ef          	jal	80020300 <putchar>
    8000311c:	00042797          	auipc	a5,0x42
    80003120:	ef57c783          	lbu	a5,-267(a5) # 80045011 <excpt+0x1>
    80003124:	d00796e3          	bnez	a5,80002e30 <second_stage_only_translation+0x110>
    80003128:	fc9988e3          	beq	s3,s1,800030f8 <second_stage_only_translation+0x3d8>
    8000312c:	b311                	j	80002e30 <second_stage_only_translation+0x110>
    TEST_ASSERT(
    8000312e:	00042497          	auipc	s1,0x42
    80003132:	ee64a483          	lw	s1,-282(s1) # 80045014 <excpt+0x4>
    80003136:	14f5                	addi	s1,s1,-3
    80003138:	0014b493          	seqz	s1,s1
    8000313c:	bd89                	j	80002f8e <second_stage_only_translation+0x26e>
    8000313e:	00042717          	auipc	a4,0x42
    80003142:	ed672703          	lw	a4,-298(a4) # 80045014 <excpt+0x4>
    80003146:	478d                	li	a5,3
    80003148:	00020597          	auipc	a1,0x20
    8000314c:	9e858593          	addi	a1,a1,-1560 # 80022b30 <__func__.2+0x2c8>
    80003150:	def708e3          	beq	a4,a5,80002f40 <second_stage_only_translation+0x220>
    80003154:	00020597          	auipc	a1,0x20
    80003158:	9ec58593          	addi	a1,a1,-1556 # 80022b40 <__func__.2+0x2d8>
    8000315c:	b3d5                	j	80002f40 <second_stage_only_translation+0x220>
    TEST_ASSERT("vs gets right values after changing pt", excpt.triggered == false && check1 && check2);
    8000315e:	47c5                	li	a5,17
    80003160:	d4f994e3          	bne	s3,a5,80002ea8 <second_stage_only_translation+0x188>
    80003164:	00020597          	auipc	a1,0x20
    80003168:	9cc58593          	addi	a1,a1,-1588 # 80022b30 <__func__.2+0x2c8>
    8000316c:	00020517          	auipc	a0,0x20
    80003170:	a1450513          	addi	a0,a0,-1516 # 80022b80 <__func__.2+0x318>
    80003174:	2fd1d0ef          	jal	80020c70 <printf>
    80003178:	00042797          	auipc	a5,0x42
    8000317c:	e997c783          	lbu	a5,-359(a5) # 80045011 <excpt+0x1>
    80003180:	ee078ae3          	beqz	a5,80003074 <second_stage_only_translation+0x354>
    80003184:	bb25                	j	80002ebc <second_stage_only_translation+0x19c>
    TEST_ASSERT("vs gets right values", excpt.triggered == false && check1 && check2);
    80003186:	f52a16e3          	bne	s4,s2,800030d2 <second_stage_only_translation+0x3b2>
    8000318a:	4529                	li	a0,10
    8000318c:	1741d0ef          	jal	80020300 <putchar>
    80003190:	00042497          	auipc	s1,0x42
    80003194:	e814c483          	lbu	s1,-383(s1) # 80045011 <excpt+0x1>
    80003198:	0014c493          	xori	s1,s1,1
    8000319c:	b959                	j	80002e32 <second_stage_only_translation+0x112>
    8000319e:	00020597          	auipc	a1,0x20
    800031a2:	99258593          	addi	a1,a1,-1646 # 80022b30 <__func__.2+0x2c8>
    800031a6:	00020517          	auipc	a0,0x20
