
build/spike/rvh_test.elf:     file format elf64-littleriscv


Disassembly of section .boot:

0000000080000000 <_boot>:

.section .boot, "ax" 
.globl _boot
_boot:
    bnez a0, .
    80000000:	e101                	bnez	a0,80000000 <_boot>
    csrwi    sscratch, 0xf
    80000002:	1407d073          	csrw	sscratch,15
    /* Initialize stack pointer */
    la sp, __stack_top
    80000006:	002ff117          	auipc	sp,0x2ff
    8000000a:	ffa10113          	add	sp,sp,-6 # 802ff000 <__stack_top>

    /* Clear bss */ 
    la a0, __bss_start
    8000000e:	00027517          	auipc	a0,0x27
    80000012:	ff250513          	add	a0,a0,-14 # 80027000 <__bss_start>
    la a1, __bss_end
    80000016:	0003d597          	auipc	a1,0x3d
    8000001a:	0c258593          	add	a1,a1,194 # 8003d0d8 <__bss_end>
    bgeu a0, a1, 2f
    8000001e:	00b57763          	bgeu	a0,a1,8000002c <_boot+0x2c>
1:
    sw zero, (a0)
    80000022:	00052023          	sw	zero,0(a0)
    addi a0, a0, 4
    80000026:	0511                	add	a0,a0,4
    bltu a0, a1, 1b
    80000028:	feb56de3          	bltu	a0,a1,80000022 <_boot+0x22>
2:
    call _init
    8000002c:	5e21b0ef          	jal	8001b60e <_init>
    call main
    80000030:	7461b0ef          	jal	8001b776 <main>
    li a0, 0
    80000034:	4501                	li	a0,0
    call exit
    80000036:	0321b0ef          	jal	8001b068 <exit>
    j .
    8000003a:	a001                	j	8000003a <_boot+0x3a>

Disassembly of section .text:

000000008000003c <check_csr_field_spec>:
#include <stdbool.h>
#include <stdio.h>
#include <stdlib.h>
#include <rvh_test.h>

bool check_csr_field_spec(){
    8000003c:	7179                	add	sp,sp,-48

    TEST_START();
    8000003e:	0001b597          	auipc	a1,0x1b
    80000042:	7d258593          	add	a1,a1,2002 # 8001b810 <__func__.1>
    80000046:	0001d517          	auipc	a0,0x1d
    8000004a:	f3250513          	add	a0,a0,-206 # 8001cf78 <__func__.1+0x2e8>
bool check_csr_field_spec(){
    8000004e:	f406                	sd	ra,40(sp)
    80000050:	f022                	sd	s0,32(sp)
    80000052:	ec26                	sd	s1,24(sp)
    80000054:	e84a                	sd	s2,16(sp)
    80000056:	e44e                	sd	s3,8(sp)
    TEST_START();
    80000058:	3721b0ef          	jal	8001b3ca <printf>
    8000005c:	4529                	li	a0,10
    8000005e:	23e1a0ef          	jal	8001a29c <putchar>

    /* this assumes machine mode */
    //check_csr_wrrd("mstatus", mstatus, (uint64_t) -1, 0x800000ca007e79aaULL);
    //check_csr_wrrd("mideleg", mideleg, (uint64_t) -1, 0x1666);
    //check_csr_wrrd("medeleg", medeleg, (uint64_t) -1, 0xb15d);
    check_csr_wrrd("mideleg", mideleg, (uint64_t)0, 0x444);
    80000062:	303024f3          	csrr	s1,mideleg
    80000066:	30305073          	csrw	mideleg,0
    8000006a:	30302473          	csrr	s0,mideleg
    8000006e:	0001d617          	auipc	a2,0x1d
    80000072:	f1a60613          	add	a2,a2,-230 # 8001cf88 <__func__.1+0x2f8>
    80000076:	08200593          	li	a1,130
    8000007a:	0001d517          	auipc	a0,0x1d
    8000007e:	f1650513          	add	a0,a0,-234 # 8001cf90 <__func__.1+0x300>
    80000082:	3481b0ef          	jal	8001b3ca <printf>
    80000086:	44400793          	li	a5,1092
    8000008a:	46f40263          	beq	s0,a5,800004ee <check_csr_field_spec+0x4b2>
    8000008e:	0001d597          	auipc	a1,0x1d
    80000092:	eda58593          	add	a1,a1,-294 # 8001cf68 <__func__.1+0x2d8>
    80000096:	0001d517          	auipc	a0,0x1d
    8000009a:	f1250513          	add	a0,a0,-238 # 8001cfa8 <__func__.1+0x318>
    8000009e:	32c1b0ef          	jal	8001b3ca <printf>
    800000a2:	0001d517          	auipc	a0,0x1d
    800000a6:	f0e50513          	add	a0,a0,-242 # 8001cfb0 <__func__.1+0x320>
    800000aa:	3201b0ef          	jal	8001b3ca <printf>
    800000ae:	8622                	mv	a2,s0
    800000b0:	44400693          	li	a3,1092
    800000b4:	4581                	li	a1,0
    800000b6:	0001d517          	auipc	a0,0x1d
    800000ba:	f0250513          	add	a0,a0,-254 # 8001cfb8 <__func__.1+0x328>
    800000be:	30c1b0ef          	jal	8001b3ca <printf>
    800000c2:	02900513          	li	a0,41
    800000c6:	1d61a0ef          	jal	8001a29c <putchar>
    800000ca:	4529                	li	a0,10
    800000cc:	1d01a0ef          	jal	8001a29c <putchar>
    800000d0:	4401                	li	s0,0
    800000d2:	30349073          	csrw	mideleg,s1
    //check_csr_wrrd("mip", mip, (uint64_t) -1, 0x6e6);
    //check_csr_wrrd("mie", mie, (uint64_t) -1, 0x1eee);
    check_csr_wrrd("mtinst", CSR_MTINST, (uint64_t) -1, (uint64_t) -1);
    800000d6:	34a029f3          	csrr	s3,0x34a
    800000da:	54fd                	li	s1,-1
    800000dc:	34a49073          	csrw	0x34a,s1
    800000e0:	34a02973          	csrr	s2,0x34a
    800000e4:	0001d617          	auipc	a2,0x1d
    800000e8:	eec60613          	add	a2,a2,-276 # 8001cfd0 <__func__.1+0x340>
    800000ec:	08200593          	li	a1,130
    800000f0:	0001d517          	auipc	a0,0x1d
    800000f4:	ea050513          	add	a0,a0,-352 # 8001cf90 <__func__.1+0x300>
    800000f8:	2d21b0ef          	jal	8001b3ca <printf>
    800000fc:	30990f63          	beq	s2,s1,8000041a <check_csr_field_spec+0x3de>
    80000100:	0001d597          	auipc	a1,0x1d
    80000104:	e6858593          	add	a1,a1,-408 # 8001cf68 <__func__.1+0x2d8>
    80000108:	0001d517          	auipc	a0,0x1d
    8000010c:	ea050513          	add	a0,a0,-352 # 8001cfa8 <__func__.1+0x318>
    80000110:	2ba1b0ef          	jal	8001b3ca <printf>
    80000114:	0001d517          	auipc	a0,0x1d
    80000118:	e9c50513          	add	a0,a0,-356 # 8001cfb0 <__func__.1+0x320>
    8000011c:	2ae1b0ef          	jal	8001b3ca <printf>
    80000120:	56fd                	li	a3,-1
    80000122:	864a                	mv	a2,s2
    80000124:	55fd                	li	a1,-1
    80000126:	0001d517          	auipc	a0,0x1d
    8000012a:	e9250513          	add	a0,a0,-366 # 8001cfb8 <__func__.1+0x328>
    8000012e:	29c1b0ef          	jal	8001b3ca <printf>
    80000132:	02900513          	li	a0,41
    80000136:	1661a0ef          	jal	8001a29c <putchar>
    8000013a:	4529                	li	a0,10
    8000013c:	1601a0ef          	jal	8001a29c <putchar>
    80000140:	4401                	li	s0,0
    80000142:	34a99073          	csrw	0x34a,s3
    check_csr_wrrd("mtval2", CSR_MTVAL2, (uint64_t) -1, (uint64_t) -1);
    80000146:	34b029f3          	csrr	s3,0x34b
    8000014a:	54fd                	li	s1,-1
    8000014c:	34b49073          	csrw	0x34b,s1
    80000150:	34b02973          	csrr	s2,0x34b
    80000154:	0001d617          	auipc	a2,0x1d
    80000158:	e8460613          	add	a2,a2,-380 # 8001cfd8 <__func__.1+0x348>
    8000015c:	08200593          	li	a1,130
    80000160:	0001d517          	auipc	a0,0x1d
    80000164:	e3050513          	add	a0,a0,-464 # 8001cf90 <__func__.1+0x300>
    80000168:	2621b0ef          	jal	8001b3ca <printf>
    8000016c:	36990363          	beq	s2,s1,800004d2 <check_csr_field_spec+0x496>
    80000170:	0001d597          	auipc	a1,0x1d
    80000174:	df858593          	add	a1,a1,-520 # 8001cf68 <__func__.1+0x2d8>
    80000178:	0001d517          	auipc	a0,0x1d
    8000017c:	e3050513          	add	a0,a0,-464 # 8001cfa8 <__func__.1+0x318>
    80000180:	24a1b0ef          	jal	8001b3ca <printf>
    80000184:	0001d517          	auipc	a0,0x1d
    80000188:	e2c50513          	add	a0,a0,-468 # 8001cfb0 <__func__.1+0x320>
    8000018c:	23e1b0ef          	jal	8001b3ca <printf>
    80000190:	56fd                	li	a3,-1
    80000192:	864a                	mv	a2,s2
    80000194:	55fd                	li	a1,-1
    80000196:	0001d517          	auipc	a0,0x1d
    8000019a:	e2250513          	add	a0,a0,-478 # 8001cfb8 <__func__.1+0x328>
    8000019e:	22c1b0ef          	jal	8001b3ca <printf>
    800001a2:	02900513          	li	a0,41
    800001a6:	0f61a0ef          	jal	8001a29c <putchar>
    800001aa:	4529                	li	a0,10
    800001ac:	0f01a0ef          	jal	8001a29c <putchar>
    800001b0:	4401                	li	s0,0
    800001b2:	34b99073          	csrw	0x34b,s3
    //check_csr_wrrd("hstatus", CSR_HSTATUS, (uint64_t) -1, 0x30053f3e0);
    //check_csr_wrrd("hideleg", CSR_HIDELEG, (uint64_t) -1, 0x444);
    //check_csr_wrrd("hedeleg", CSR_HEDELEG, (uint64_t) -1, 0xb1ff);
    //check_csr_wrrd("hvip", CSR_HVIP, (uint64_t) -1, 0x444);
    //check_csr_wrrd("hip", CSR_HIP, (uint64_t) -1, 0x4);
    check_csr_wrrd("hie", CSR_HIE, (uint64_t) -1, 0x444);
    800001b6:	60402973          	csrr	s2,hie
    800001ba:	57fd                	li	a5,-1
    800001bc:	60479073          	csrw	hie,a5
    800001c0:	604024f3          	csrr	s1,hie
    800001c4:	0001d617          	auipc	a2,0x1d
    800001c8:	e1c60613          	add	a2,a2,-484 # 8001cfe0 <__func__.1+0x350>
    800001cc:	08200593          	li	a1,130
    800001d0:	0001d517          	auipc	a0,0x1d
    800001d4:	dc050513          	add	a0,a0,-576 # 8001cf90 <__func__.1+0x300>
    800001d8:	1f21b0ef          	jal	8001b3ca <printf>
    800001dc:	44400793          	li	a5,1092
    800001e0:	2cf48b63          	beq	s1,a5,800004b6 <check_csr_field_spec+0x47a>
    800001e4:	0001d597          	auipc	a1,0x1d
    800001e8:	d8458593          	add	a1,a1,-636 # 8001cf68 <__func__.1+0x2d8>
    800001ec:	0001d517          	auipc	a0,0x1d
    800001f0:	dbc50513          	add	a0,a0,-580 # 8001cfa8 <__func__.1+0x318>
    800001f4:	1d61b0ef          	jal	8001b3ca <printf>
    800001f8:	0001d517          	auipc	a0,0x1d
    800001fc:	db850513          	add	a0,a0,-584 # 8001cfb0 <__func__.1+0x320>
    80000200:	1ca1b0ef          	jal	8001b3ca <printf>
    80000204:	44400693          	li	a3,1092
    80000208:	8626                	mv	a2,s1
    8000020a:	55fd                	li	a1,-1
    8000020c:	0001d517          	auipc	a0,0x1d
    80000210:	dac50513          	add	a0,a0,-596 # 8001cfb8 <__func__.1+0x328>
    80000214:	1b61b0ef          	jal	8001b3ca <printf>
    80000218:	02900513          	li	a0,41
    8000021c:	0801a0ef          	jal	8001a29c <putchar>
    80000220:	4529                	li	a0,10
    80000222:	07a1a0ef          	jal	8001a29c <putchar>
    80000226:	4401                	li	s0,0
    80000228:	60491073          	csrw	hie,s2
    check_csr_wrrd("htval", CSR_HTVAL, (uint64_t) -1, (uint64_t) -1);
    8000022c:	643029f3          	csrr	s3,htval
    80000230:	54fd                	li	s1,-1
    80000232:	64349073          	csrw	htval,s1
    80000236:	64302973          	csrr	s2,htval
    8000023a:	0001d617          	auipc	a2,0x1d
    8000023e:	dae60613          	add	a2,a2,-594 # 8001cfe8 <__func__.1+0x358>
    80000242:	08200593          	li	a1,130
    80000246:	0001d517          	auipc	a0,0x1d
    8000024a:	d4a50513          	add	a0,a0,-694 # 8001cf90 <__func__.1+0x300>
    8000024e:	17c1b0ef          	jal	8001b3ca <printf>
    80000252:	24990463          	beq	s2,s1,8000049a <check_csr_field_spec+0x45e>
    80000256:	0001d597          	auipc	a1,0x1d
    8000025a:	d1258593          	add	a1,a1,-750 # 8001cf68 <__func__.1+0x2d8>
    8000025e:	0001d517          	auipc	a0,0x1d
    80000262:	d4a50513          	add	a0,a0,-694 # 8001cfa8 <__func__.1+0x318>
    80000266:	1641b0ef          	jal	8001b3ca <printf>
    8000026a:	0001d517          	auipc	a0,0x1d
    8000026e:	d4650513          	add	a0,a0,-698 # 8001cfb0 <__func__.1+0x320>
    80000272:	1581b0ef          	jal	8001b3ca <printf>
    80000276:	56fd                	li	a3,-1
    80000278:	864a                	mv	a2,s2
    8000027a:	55fd                	li	a1,-1
    8000027c:	0001d517          	auipc	a0,0x1d
    80000280:	d3c50513          	add	a0,a0,-708 # 8001cfb8 <__func__.1+0x328>
    80000284:	1461b0ef          	jal	8001b3ca <printf>
    80000288:	02900513          	li	a0,41
    8000028c:	0101a0ef          	jal	8001a29c <putchar>
    80000290:	4529                	li	a0,10
    80000292:	00a1a0ef          	jal	8001a29c <putchar>
    80000296:	4401                	li	s0,0
    80000298:	64399073          	csrw	htval,s3
    check_csr_wrrd("htinst", CSR_HTINST, (uint64_t) -1, (uint64_t) -1);
    8000029c:	64a029f3          	csrr	s3,htinst
    800002a0:	54fd                	li	s1,-1
    800002a2:	64a49073          	csrw	htinst,s1
    800002a6:	64a02973          	csrr	s2,htinst
    800002aa:	0001d617          	auipc	a2,0x1d
    800002ae:	d4660613          	add	a2,a2,-698 # 8001cff0 <__func__.1+0x360>
    800002b2:	08200593          	li	a1,130
    800002b6:	0001d517          	auipc	a0,0x1d
    800002ba:	cda50513          	add	a0,a0,-806 # 8001cf90 <__func__.1+0x300>
    800002be:	10c1b0ef          	jal	8001b3ca <printf>
    800002c2:	1a990e63          	beq	s2,s1,8000047e <check_csr_field_spec+0x442>
    800002c6:	0001d597          	auipc	a1,0x1d
    800002ca:	ca258593          	add	a1,a1,-862 # 8001cf68 <__func__.1+0x2d8>
    800002ce:	0001d517          	auipc	a0,0x1d
    800002d2:	cda50513          	add	a0,a0,-806 # 8001cfa8 <__func__.1+0x318>
    800002d6:	0f41b0ef          	jal	8001b3ca <printf>
    800002da:	0001d517          	auipc	a0,0x1d
    800002de:	cd650513          	add	a0,a0,-810 # 8001cfb0 <__func__.1+0x320>
    800002e2:	0e81b0ef          	jal	8001b3ca <printf>
    800002e6:	56fd                	li	a3,-1
    800002e8:	864a                	mv	a2,s2
    800002ea:	55fd                	li	a1,-1
    800002ec:	0001d517          	auipc	a0,0x1d
    800002f0:	ccc50513          	add	a0,a0,-820 # 8001cfb8 <__func__.1+0x328>
    800002f4:	0d61b0ef          	jal	8001b3ca <printf>
    800002f8:	02900513          	li	a0,41
    800002fc:	7a1190ef          	jal	8001a29c <putchar>
    80000300:	4529                	li	a0,10
    80000302:	79b190ef          	jal	8001a29c <putchar>
    80000306:	4401                	li	s0,0
    80000308:	64a99073          	csrw	htinst,s3
    //check_csr_wrrd("hgatp", CSR_HGATP, (8ULL << 60) | (1ULL << 60)-1, 0x80000000000fffffULL);
    //check_csr_wrrd("vsstatus", CSR_VSSTATUS, (uint64_t) -1, 0x80000000000c6122ULL);
    //check_csr_wrrd("vsip", CSR_VSIP, (uint64_t) -1, 0x0);
    //check_csr_wrrd("vsie", CSR_VSIE, (uint64_t) -1, 0x0);
    //check_csr_wrrd("vstvec", CSR_VSTVEC, (uint64_t) -1, 0xffffffffffffff01ULL);
    check_csr_wrrd("vsscratch", CSR_VSSCRATCH, (uint64_t) -1, (uint64_t) -1);
    8000030c:	240029f3          	csrr	s3,vsscratch
    80000310:	54fd                	li	s1,-1
    80000312:	24049073          	csrw	vsscratch,s1
    80000316:	24002973          	csrr	s2,vsscratch
    8000031a:	0001d617          	auipc	a2,0x1d
    8000031e:	cde60613          	add	a2,a2,-802 # 8001cff8 <__func__.1+0x368>
    80000322:	08200593          	li	a1,130
    80000326:	0001d517          	auipc	a0,0x1d
    8000032a:	c6a50513          	add	a0,a0,-918 # 8001cf90 <__func__.1+0x300>
    8000032e:	09c1b0ef          	jal	8001b3ca <printf>
    80000332:	12990863          	beq	s2,s1,80000462 <check_csr_field_spec+0x426>
    80000336:	0001d597          	auipc	a1,0x1d
    8000033a:	c3258593          	add	a1,a1,-974 # 8001cf68 <__func__.1+0x2d8>
    8000033e:	0001d517          	auipc	a0,0x1d
    80000342:	c6a50513          	add	a0,a0,-918 # 8001cfa8 <__func__.1+0x318>
    80000346:	0841b0ef          	jal	8001b3ca <printf>
    8000034a:	0001d517          	auipc	a0,0x1d
    8000034e:	c6650513          	add	a0,a0,-922 # 8001cfb0 <__func__.1+0x320>
    80000352:	0781b0ef          	jal	8001b3ca <printf>
    80000356:	56fd                	li	a3,-1
    80000358:	864a                	mv	a2,s2
    8000035a:	55fd                	li	a1,-1
    8000035c:	0001d517          	auipc	a0,0x1d
    80000360:	c5c50513          	add	a0,a0,-932 # 8001cfb8 <__func__.1+0x328>
    80000364:	0661b0ef          	jal	8001b3ca <printf>
    80000368:	02900513          	li	a0,41
    8000036c:	731190ef          	jal	8001a29c <putchar>
    80000370:	4529                	li	a0,10
    80000372:	72b190ef          	jal	8001a29c <putchar>
    80000376:	4401                	li	s0,0
    80000378:	24099073          	csrw	vsscratch,s3
    //check_csr_wrrd("vsepc", CSR_VSEPC, (uint64_t) -1, 0xfffffffffffffffeULL);
    //check_csr_wrrd("vscause", CSR_VSCAUSE, (uint64_t) -1, 0x800000000000001fULL);
    check_csr_wrrd("vstval", CSR_VSTVAL, (uint64_t) -1, 0xffffffffffffffffULL);
    8000037c:	243029f3          	csrr	s3,vstval
    80000380:	54fd                	li	s1,-1
    80000382:	24349073          	csrw	vstval,s1
    80000386:	24302973          	csrr	s2,vstval
    8000038a:	0001d617          	auipc	a2,0x1d
    8000038e:	c7e60613          	add	a2,a2,-898 # 8001d008 <__func__.1+0x378>
    80000392:	08200593          	li	a1,130
    80000396:	0001d517          	auipc	a0,0x1d
    8000039a:	bfa50513          	add	a0,a0,-1030 # 8001cf90 <__func__.1+0x300>
    8000039e:	02c1b0ef          	jal	8001b3ca <printf>
    800003a2:	08990a63          	beq	s2,s1,80000436 <check_csr_field_spec+0x3fa>
    800003a6:	0001d597          	auipc	a1,0x1d
    800003aa:	bc258593          	add	a1,a1,-1086 # 8001cf68 <__func__.1+0x2d8>
    800003ae:	0001d517          	auipc	a0,0x1d
    800003b2:	bfa50513          	add	a0,a0,-1030 # 8001cfa8 <__func__.1+0x318>
    800003b6:	0141b0ef          	jal	8001b3ca <printf>
    800003ba:	0001d517          	auipc	a0,0x1d
    800003be:	bf650513          	add	a0,a0,-1034 # 8001cfb0 <__func__.1+0x320>
    800003c2:	0081b0ef          	jal	8001b3ca <printf>
    800003c6:	56fd                	li	a3,-1
    800003c8:	864a                	mv	a2,s2
    800003ca:	55fd                	li	a1,-1
    800003cc:	0001d517          	auipc	a0,0x1d
    800003d0:	bec50513          	add	a0,a0,-1044 # 8001cfb8 <__func__.1+0x328>
    800003d4:	7f71a0ef          	jal	8001b3ca <printf>
    800003d8:	02900513          	li	a0,41
    800003dc:	6c1190ef          	jal	8001a29c <putchar>
    800003e0:	4529                	li	a0,10
    800003e2:	6bb190ef          	jal	8001a29c <putchar>
    800003e6:	24399073          	csrw	vstval,s3
    800003ea:	4401                	li	s0,0
    //check_csr_wrrd("vsatp", CSR_VSATP, (uint64_t) -1, 0x0);
    //check_csr_wrrd("vsatp", CSR_VSATP, (8ULL << 60) | (1ULL << 60)-1, 0x80000000000fffffULL);

    TEST_END();
    800003ec:	0001d597          	auipc	a1,0x1d
    800003f0:	b7c58593          	add	a1,a1,-1156 # 8001cf68 <__func__.1+0x2d8>
    800003f4:	0001d517          	auipc	a0,0x1d
    800003f8:	c1c50513          	add	a0,a0,-996 # 8001d010 <__func__.1+0x380>
    800003fc:	7cf1a0ef          	jal	8001b3ca <printf>
    80000400:	4511                	li	a0,4
    80000402:	6dc000ef          	jal	80000ade <goto_priv>
    80000406:	721000ef          	jal	80001326 <reset_state>
}
    8000040a:	70a2                	ld	ra,40(sp)
    8000040c:	8522                	mv	a0,s0
    8000040e:	7402                	ld	s0,32(sp)
    80000410:	64e2                	ld	s1,24(sp)
    80000412:	6942                	ld	s2,16(sp)
    80000414:	69a2                	ld	s3,8(sp)
    80000416:	6145                	add	sp,sp,48
    80000418:	8082                	ret
    check_csr_wrrd("mtinst", CSR_MTINST, (uint64_t) -1, (uint64_t) -1);
    8000041a:	0001d597          	auipc	a1,0x1d
    8000041e:	b3e58593          	add	a1,a1,-1218 # 8001cf58 <__func__.1+0x2c8>
    80000422:	0001d517          	auipc	a0,0x1d
    80000426:	b8650513          	add	a0,a0,-1146 # 8001cfa8 <__func__.1+0x318>
    8000042a:	7a11a0ef          	jal	8001b3ca <printf>
    8000042e:	4529                	li	a0,10
    80000430:	66d190ef          	jal	8001a29c <putchar>
    80000434:	b339                	j	80000142 <check_csr_field_spec+0x106>
    check_csr_wrrd("vstval", CSR_VSTVAL, (uint64_t) -1, 0xffffffffffffffffULL);
    80000436:	0001d597          	auipc	a1,0x1d
    8000043a:	b2258593          	add	a1,a1,-1246 # 8001cf58 <__func__.1+0x2c8>
    8000043e:	0001d517          	auipc	a0,0x1d
    80000442:	b6a50513          	add	a0,a0,-1174 # 8001cfa8 <__func__.1+0x318>
    80000446:	7851a0ef          	jal	8001b3ca <printf>
    8000044a:	4529                	li	a0,10
    8000044c:	651190ef          	jal	8001a29c <putchar>
    80000450:	d859                	beqz	s0,800003e6 <check_csr_field_spec+0x3aa>
    80000452:	24399073          	csrw	vstval,s3
    80000456:	4405                	li	s0,1
    TEST_END();
    80000458:	0001d597          	auipc	a1,0x1d
    8000045c:	b0058593          	add	a1,a1,-1280 # 8001cf58 <__func__.1+0x2c8>
    80000460:	bf51                	j	800003f4 <check_csr_field_spec+0x3b8>
    check_csr_wrrd("vsscratch", CSR_VSSCRATCH, (uint64_t) -1, (uint64_t) -1);
    80000462:	0001d597          	auipc	a1,0x1d
    80000466:	af658593          	add	a1,a1,-1290 # 8001cf58 <__func__.1+0x2c8>
    8000046a:	0001d517          	auipc	a0,0x1d
    8000046e:	b3e50513          	add	a0,a0,-1218 # 8001cfa8 <__func__.1+0x318>
    80000472:	7591a0ef          	jal	8001b3ca <printf>
    80000476:	4529                	li	a0,10
    80000478:	625190ef          	jal	8001a29c <putchar>
    8000047c:	bdf5                	j	80000378 <check_csr_field_spec+0x33c>
    check_csr_wrrd("htinst", CSR_HTINST, (uint64_t) -1, (uint64_t) -1);
    8000047e:	0001d597          	auipc	a1,0x1d
    80000482:	ada58593          	add	a1,a1,-1318 # 8001cf58 <__func__.1+0x2c8>
    80000486:	0001d517          	auipc	a0,0x1d
    8000048a:	b2250513          	add	a0,a0,-1246 # 8001cfa8 <__func__.1+0x318>
    8000048e:	73d1a0ef          	jal	8001b3ca <printf>
    80000492:	4529                	li	a0,10
    80000494:	609190ef          	jal	8001a29c <putchar>
    80000498:	bd85                	j	80000308 <check_csr_field_spec+0x2cc>
    check_csr_wrrd("htval", CSR_HTVAL, (uint64_t) -1, (uint64_t) -1);
    8000049a:	0001d597          	auipc	a1,0x1d
    8000049e:	abe58593          	add	a1,a1,-1346 # 8001cf58 <__func__.1+0x2c8>
    800004a2:	0001d517          	auipc	a0,0x1d
    800004a6:	b0650513          	add	a0,a0,-1274 # 8001cfa8 <__func__.1+0x318>
    800004aa:	7211a0ef          	jal	8001b3ca <printf>
    800004ae:	4529                	li	a0,10
    800004b0:	5ed190ef          	jal	8001a29c <putchar>
    800004b4:	b3d5                	j	80000298 <check_csr_field_spec+0x25c>
    check_csr_wrrd("hie", CSR_HIE, (uint64_t) -1, 0x444);
    800004b6:	0001d597          	auipc	a1,0x1d
    800004ba:	aa258593          	add	a1,a1,-1374 # 8001cf58 <__func__.1+0x2c8>
    800004be:	0001d517          	auipc	a0,0x1d
    800004c2:	aea50513          	add	a0,a0,-1302 # 8001cfa8 <__func__.1+0x318>
    800004c6:	7051a0ef          	jal	8001b3ca <printf>
    800004ca:	4529                	li	a0,10
    800004cc:	5d1190ef          	jal	8001a29c <putchar>
    800004d0:	bba1                	j	80000228 <check_csr_field_spec+0x1ec>
    check_csr_wrrd("mtval2", CSR_MTVAL2, (uint64_t) -1, (uint64_t) -1);
    800004d2:	0001d597          	auipc	a1,0x1d
    800004d6:	a8658593          	add	a1,a1,-1402 # 8001cf58 <__func__.1+0x2c8>
    800004da:	0001d517          	auipc	a0,0x1d
    800004de:	ace50513          	add	a0,a0,-1330 # 8001cfa8 <__func__.1+0x318>
    800004e2:	6e91a0ef          	jal	8001b3ca <printf>
    800004e6:	4529                	li	a0,10
    800004e8:	5b5190ef          	jal	8001a29c <putchar>
    800004ec:	b1d9                	j	800001b2 <check_csr_field_spec+0x176>
    check_csr_wrrd("mideleg", mideleg, (uint64_t)0, 0x444);
    800004ee:	0001d597          	auipc	a1,0x1d
    800004f2:	a6a58593          	add	a1,a1,-1430 # 8001cf58 <__func__.1+0x2c8>
    800004f6:	0001d517          	auipc	a0,0x1d
    800004fa:	ab250513          	add	a0,a0,-1358 # 8001cfa8 <__func__.1+0x318>
    800004fe:	6cd1a0ef          	jal	8001b3ca <printf>
    80000502:	4529                	li	a0,10
    80000504:	599190ef          	jal	8001a29c <putchar>
    80000508:	4405                	li	s0,1
    8000050a:	b6e1                	j	800000d2 <check_csr_field_spec+0x96>

000000008000050c <check_misa_h>:

bool check_misa_h(){
    8000050c:	1141                	add	sp,sp,-16

    TEST_START();
    8000050e:	0001b597          	auipc	a1,0x1b
    80000512:	31a58593          	add	a1,a1,794 # 8001b828 <__func__.0>
    80000516:	0001d517          	auipc	a0,0x1d
    8000051a:	a6250513          	add	a0,a0,-1438 # 8001cf78 <__func__.1+0x2e8>
bool check_misa_h(){
    8000051e:	e406                	sd	ra,8(sp)
    80000520:	e022                	sd	s0,0(sp)
    TEST_START();
    80000522:	6a91a0ef          	jal	8001b3ca <printf>
    80000526:	4529                	li	a0,10
    80000528:	575190ef          	jal	8001a29c <putchar>

    uint64_t misa = CSRR(misa);
    8000052c:	301027f3          	csrr	a5,misa
    CSRS(misa, (1ULL << 7));
    80000530:	08000793          	li	a5,128
    80000534:	3017a073          	csrs	misa,a5

    bool hyp_ext_present = CSRR(misa) & (1ULL << 7);
    80000538:	30102473          	csrr	s0,misa
    TEST_ASSERT("check h bit after setting it",  hyp_ext_present, "hypervisor extensions not present");
    8000053c:	0001d617          	auipc	a2,0x1d
    80000540:	adc60613          	add	a2,a2,-1316 # 8001d018 <__func__.1+0x388>
    80000544:	08200593          	li	a1,130
    80000548:	0001d517          	auipc	a0,0x1d
    8000054c:	a4850513          	add	a0,a0,-1464 # 8001cf90 <__func__.1+0x300>
    bool hyp_ext_present = CSRR(misa) & (1ULL << 7);
    80000550:	08047413          	and	s0,s0,128
    TEST_ASSERT("check h bit after setting it",  hyp_ext_present, "hypervisor extensions not present");
    80000554:	6771a0ef          	jal	8001b3ca <printf>
    80000558:	c031                	beqz	s0,8000059c <check_misa_h+0x90>
    8000055a:	0001d597          	auipc	a1,0x1d
    8000055e:	9fe58593          	add	a1,a1,-1538 # 8001cf58 <__func__.1+0x2c8>
    80000562:	0001d517          	auipc	a0,0x1d
    80000566:	a4650513          	add	a0,a0,-1466 # 8001cfa8 <__func__.1+0x318>
    8000056a:	6611a0ef          	jal	8001b3ca <printf>
    8000056e:	4529                	li	a0,10
    80000570:	52d190ef          	jal	8001a29c <putchar>
    //     VERBOSE("misa h bit is hardwired");
    // }

    // CSRW(misa, misa);

    TEST_END();
    80000574:	0001d597          	auipc	a1,0x1d
    80000578:	9e458593          	add	a1,a1,-1564 # 8001cf58 <__func__.1+0x2c8>
    8000057c:	0001d517          	auipc	a0,0x1d
    80000580:	a9450513          	add	a0,a0,-1388 # 8001d010 <__func__.1+0x380>
    80000584:	6471a0ef          	jal	8001b3ca <printf>
    80000588:	4511                	li	a0,4
    8000058a:	554000ef          	jal	80000ade <goto_priv>
    8000058e:	599000ef          	jal	80001326 <reset_state>
}
    80000592:	60a2                	ld	ra,8(sp)
    80000594:	6402                	ld	s0,0(sp)
    TEST_END();
    80000596:	4505                	li	a0,1
}
    80000598:	0141                	add	sp,sp,16
    8000059a:	8082                	ret
    TEST_ASSERT("check h bit after setting it",  hyp_ext_present, "hypervisor extensions not present");
    8000059c:	0001d597          	auipc	a1,0x1d
    800005a0:	9cc58593          	add	a1,a1,-1588 # 8001cf68 <__func__.1+0x2d8>
    800005a4:	0001d517          	auipc	a0,0x1d
    800005a8:	a0450513          	add	a0,a0,-1532 # 8001cfa8 <__func__.1+0x318>
    800005ac:	61f1a0ef          	jal	8001b3ca <printf>
    800005b0:	0001d517          	auipc	a0,0x1d
    800005b4:	a0050513          	add	a0,a0,-1536 # 8001cfb0 <__func__.1+0x320>
    800005b8:	6131a0ef          	jal	8001b3ca <printf>
    800005bc:	0001d517          	auipc	a0,0x1d
    800005c0:	a7c50513          	add	a0,a0,-1412 # 8001d038 <__func__.1+0x3a8>
    800005c4:	6071a0ef          	jal	8001b3ca <printf>
    800005c8:	02900513          	li	a0,41
    800005cc:	4d1190ef          	jal	8001a29c <putchar>
    800005d0:	4529                	li	a0,10
    800005d2:	4cb190ef          	jal	8001a29c <putchar>
}
    800005d6:	60a2                	ld	ra,8(sp)
    800005d8:	6402                	ld	s0,0(sp)
        return false;
    800005da:	4501                	li	a0,0
}
    800005dc:	0141                	add	sp,sp,16
    800005de:	8082                	ret

00000000800005e0 <hspt_init>:
    //     for(int i = 0; i < 512; i++)
    //         hspt[j][i] = 0;

    addr = 0x00000000;
    for(int i = 0; i < 4; i++){
        hspt[0][i] = 
    800005e0:	0003a897          	auipc	a7,0x3a
    800005e4:	a2088893          	add	a7,a7,-1504 # 8003a000 <hspt>
    800005e8:	0cf00613          	li	a2,207
    800005ec:	00c8b023          	sd	a2,0(a7)
    800005f0:	10000637          	lui	a2,0x10000
    800005f4:	0cf60613          	add	a2,a2,207 # 100000cf <STACK_SIZE+0xff000cf>
            PTE_V | PTE_AD | PTE_RWX | (addr >> 2);  
        addr +=  SUPERPAGE_SIZE(0);
    }

    hspt[0][4] =
        PTE_V | (((uintptr_t)&hspt[1][0]) >> 2);
    800005f8:	0003b597          	auipc	a1,0x3b
    800005fc:	a0858593          	add	a1,a1,-1528 # 8003b000 <hspt+0x1000>
        hspt[0][i] = 
    80000600:	00c8b423          	sd	a2,8(a7)
    80000604:	20000637          	lui	a2,0x20000
    80000608:	0cf60613          	add	a2,a2,207 # 200000cf <STACK_SIZE+0x1ff000cf>
    hspt[1][0] = 
        PTE_V | (((uintptr_t)&hspt[2][0]) >> 2);
    8000060c:	0003c697          	auipc	a3,0x3c
    80000610:	9f468693          	add	a3,a3,-1548 # 8003c000 <hspt+0x2000>
        PTE_V | (((uintptr_t)&hspt[1][0]) >> 2);
    80000614:	0025d713          	srl	a4,a1,0x2
    80000618:	00176713          	or	a4,a4,1
        PTE_V | (((uintptr_t)&hspt[2][0]) >> 2);
    8000061c:	0026d793          	srl	a5,a3,0x2
        hspt[0][i] = 
    80000620:	00c8b823          	sd	a2,16(a7)
    80000624:	30000637          	lui	a2,0x30000
    80000628:	0cf60613          	add	a2,a2,207 # 300000cf <STACK_SIZE+0x2ff000cf>
        PTE_V | (((uintptr_t)&hspt[2][0]) >> 2);
    8000062c:	0017e793          	or	a5,a5,1
    hspt[0][4] =
    80000630:	02e8b023          	sd	a4,32(a7)


    addr = TEST_PPAGE_BASE;
    for(int i = 0; i < TEST_PAGE_MAX; i++){
    80000634:	44100513          	li	a0,1089
    addr = TEST_PPAGE_BASE;
    80000638:	4745                	li	a4,17
        hspt[0][i] = 
    8000063a:	00c8bc23          	sd	a2,24(a7)
    hspt[1][0] = 
    8000063e:	e19c                	sd	a5,0(a1)
    for(int i = 0; i < TEST_PAGE_MAX; i++){
    80000640:	00023617          	auipc	a2,0x23
    80000644:	fa060613          	add	a2,a2,-96 # 800235e0 <test_page_perm_table>
    addr = TEST_PPAGE_BASE;
    80000648:	076e                	sll	a4,a4,0x1b
        hspt[2][i] = (addr >> 2) | PTE_AD |
            test_page_perm_table[i].vs;  
        addr += PAGE_SIZE;
    8000064a:	6805                	lui	a6,0x1
    for(int i = 0; i < TEST_PAGE_MAX; i++){
    8000064c:	0556                	sll	a0,a0,0x15
        hspt[2][i] = (addr >> 2) | PTE_AD |
    8000064e:	620c                	ld	a1,0(a2)
    80000650:	00275793          	srl	a5,a4,0x2
        addr += PAGE_SIZE;
    80000654:	9742                	add	a4,a4,a6
        hspt[2][i] = (addr >> 2) | PTE_AD |
    80000656:	8fcd                	or	a5,a5,a1
    80000658:	0c07e793          	or	a5,a5,192
    8000065c:	e29c                	sd	a5,0(a3)
    for(int i = 0; i < TEST_PAGE_MAX; i++){
    8000065e:	0641                	add	a2,a2,16
    80000660:	06a1                	add	a3,a3,8
    80000662:	fea716e3          	bne	a4,a0,8000064e <hspt_init+0x6e>
    //     hspt[2][i] = 
    //         PTE_V | PTE_AD | PTE_RWX | (addr >> 2);  
    //     addr +=  PAGE_SIZE;
    // }

    if(curr_priv == PRIV_HS || curr_priv == PRIV_M){
    80000666:	00025797          	auipc	a5,0x25
    8000066a:	f7e7a783          	lw	a5,-130(a5) # 800255e4 <curr_priv>
    8000066e:	37f5                	addw	a5,a5,-3
    80000670:	4705                	li	a4,1
    80000672:	00f76a63          	bltu	a4,a5,80000686 <hspt_init+0xa6>
        uintptr_t satp = (((uintptr_t)hspt) >> 12) | (0x8ULL << 60);
    80000676:	577d                	li	a4,-1
    80000678:	00c8d793          	srl	a5,a7,0xc
    8000067c:	177e                	sll	a4,a4,0x3f
    8000067e:	8fd9                	or	a5,a5,a4
        CSRW(satp, satp);
    80000680:	18079073          	csrw	satp,a5
    } else {
        ERROR("trying to set hs level satp from lower privilege");
    80000684:	8082                	ret
void hspt_init(){
    80000686:	1141                	add	sp,sp,-16
        ERROR("trying to set hs level satp from lower privilege");
    80000688:	0001d517          	auipc	a0,0x1d
    8000068c:	a3050513          	add	a0,a0,-1488 # 8001d0b8 <__func__.1+0x428>
void hspt_init(){
    80000690:	e406                	sd	ra,8(sp)
        ERROR("trying to set hs level satp from lower privilege");
    80000692:	5391a0ef          	jal	8001b3ca <printf>
    80000696:	0c000613          	li	a2,192
    8000069a:	0001b597          	auipc	a1,0x1b
    8000069e:	19e58593          	add	a1,a1,414 # 8001b838 <__func__.2>
    800006a2:	0001d517          	auipc	a0,0x1d
    800006a6:	a5e50513          	add	a0,a0,-1442 # 8001d100 <__func__.1+0x470>
    800006aa:	5211a0ef          	jal	8001b3ca <printf>
    800006ae:	4501                	li	a0,0
    800006b0:	1b91a0ef          	jal	8001b068 <exit>

00000000800006b4 <vspt_init>:
    }
}

pte_t vspt[6][PAGE_SIZE/sizeof(pte_t)] __attribute__((aligned(PAGE_SIZE)));

void vspt_init(){
    800006b4:	1141                	add	sp,sp,-16
    800006b6:	e022                	sd	s0,0(sp)
    800006b8:	e406                	sd	ra,8(sp)

    uintptr_t addr;

    addr = 0x00000000;
    for(int i = 0; i < 4; i++){
        vspt[0][i] = 
    800006ba:	00034417          	auipc	s0,0x34
    800006be:	94640413          	add	s0,s0,-1722 # 80034000 <vspt>
    800006c2:	0cf00693          	li	a3,207
    800006c6:	e014                	sd	a3,0(s0)
    800006c8:	100006b7          	lui	a3,0x10000
            PTE_V | PTE_AD | PTE_RWX | (addr >> 2);  
        addr +=  SUPERPAGE_SIZE(0);
    }

    vspt[0][MEM_BASE/SUPERPAGE_SIZE(0)] = 
        PTE_V | (((uintptr_t)&vspt[1][0]) >> 2);
    800006cc:	00035797          	auipc	a5,0x35
    800006d0:	93478793          	add	a5,a5,-1740 # 80035000 <vspt+0x1000>
        vspt[0][i] = 
    800006d4:	0cf68693          	add	a3,a3,207 # 100000cf <STACK_SIZE+0xff000cf>
        PTE_V | (((uintptr_t)&vspt[1][0]) >> 2);
    800006d8:	0027d713          	srl	a4,a5,0x2
        vspt[0][i] = 
    800006dc:	e414                	sd	a3,8(s0)
    800006de:	300006b7          	lui	a3,0x30000
    800006e2:	0cf68693          	add	a3,a3,207 # 300000cf <STACK_SIZE+0x2ff000cf>
        PTE_V | (((uintptr_t)&vspt[1][0]) >> 2);
    800006e6:	00176713          	or	a4,a4,1

    addr = MEM_BASE;
    for(int i = 0; i < 512; i++) vspt[1][i] = 0;
    800006ea:	6605                	lui	a2,0x1
    800006ec:	853e                	mv	a0,a5
    800006ee:	4581                	li	a1,0
        vspt[0][i] = 
    800006f0:	ec14                	sd	a3,24(s0)
    vspt[0][MEM_BASE/SUPERPAGE_SIZE(0)] = 
    800006f2:	e818                	sd	a4,16(s0)
    for(int i = 0; i < 512; i++) vspt[1][i] = 0;
    800006f4:	62d1a0ef          	jal	8001b520 <memset>
    addr = MEM_BASE;
    800006f8:	4785                	li	a5,1
    for(int i = 0; i <  MEM_SIZE/SUPERPAGE_SIZE(1)/2; i++){
    800006fa:	46c5                	li	a3,17
    addr = MEM_BASE;
    800006fc:	07fe                	sll	a5,a5,0x1f
        vspt[1][i] = 
           PTE_V | PTE_AD | PTE_RWX | (addr >> 2);  
        addr +=  SUPERPAGE_SIZE(1);
    800006fe:	00200637          	lui	a2,0x200
    for(int i = 0; i <  MEM_SIZE/SUPERPAGE_SIZE(1)/2; i++){
    80000702:	06ee                	sll	a3,a3,0x1b
           PTE_V | PTE_AD | PTE_RWX | (addr >> 2);  
    80000704:	0027d713          	srl	a4,a5,0x2
    80000708:	0cf76713          	or	a4,a4,207
        vspt[1][i] = 
    8000070c:	e118                	sd	a4,0(a0)
        addr +=  SUPERPAGE_SIZE(1);
    8000070e:	97b2                	add	a5,a5,a2
    for(int i = 0; i <  MEM_SIZE/SUPERPAGE_SIZE(1)/2; i++){
    80000710:	0521                	add	a0,a0,8
    80000712:	fed799e3          	bne	a5,a3,80000704 <vspt_init+0x50>

    // vspt[0][5] =
    //     PTE_V | PTE_U | PTE_AD | (((uintptr_t)&vspt[2][0]) >> 2);

    vspt[2][0] = 
        PTE_V | (((uintptr_t)&vspt[3][0]) >> 2);
    80000716:	00037697          	auipc	a3,0x37
    8000071a:	8ea68693          	add	a3,a3,-1814 # 80037000 <vspt+0x3000>
        PTE_V | (((uintptr_t)&vspt[2][0]) >> 2);
    8000071e:	00036897          	auipc	a7,0x36
    80000722:	8e288893          	add	a7,a7,-1822 # 80036000 <vspt+0x2000>
        PTE_V | (((uintptr_t)&vspt[3][0]) >> 2);
    80000726:	0026d793          	srl	a5,a3,0x2
    8000072a:	0017e793          	or	a5,a5,1
        PTE_V | (((uintptr_t)&vspt[2][0]) >> 2);
    8000072e:	0028d713          	srl	a4,a7,0x2
    80000732:	00176713          	or	a4,a4,1
    vspt[2][0] = 
    80000736:	00f8b023          	sd	a5,0(a7)

    addr = TEST_VPAGE_BASE;
    for(int i = 0; i < TEST_PAGE_MAX; i++){
    8000073a:	00801537          	lui	a0,0x801
    addr = TEST_VPAGE_BASE;
    8000073e:	4785                	li	a5,1
    vspt[0][4] =
    80000740:	f018                	sd	a4,32(s0)
    for(int i = 0; i < TEST_PAGE_MAX; i++){
    80000742:	00023617          	auipc	a2,0x23
    80000746:	e9e60613          	add	a2,a2,-354 # 800235e0 <test_page_perm_table>
    addr = TEST_VPAGE_BASE;
    8000074a:	1782                	sll	a5,a5,0x20
        vspt[3][i] = (addr >> 2) | PTE_AD |
            test_page_perm_table[i].vs;  
        addr +=  PAGE_SIZE;
    8000074c:	6805                	lui	a6,0x1
    for(int i = 0; i < TEST_PAGE_MAX; i++){
    8000074e:	0526                	sll	a0,a0,0x9
        vspt[3][i] = (addr >> 2) | PTE_AD |
    80000750:	620c                	ld	a1,0(a2)
    80000752:	0027d713          	srl	a4,a5,0x2
        addr +=  PAGE_SIZE;
    80000756:	97c2                	add	a5,a5,a6
        vspt[3][i] = (addr >> 2) | PTE_AD |
    80000758:	8f4d                	or	a4,a4,a1
    8000075a:	0c076713          	or	a4,a4,192
    8000075e:	e298                	sd	a4,0(a3)
    for(int i = 0; i < TEST_PAGE_MAX; i++){
    80000760:	0641                	add	a2,a2,16
    80000762:	06a1                	add	a3,a3,8
    80000764:	fea796e3          	bne	a5,a0,80000750 <vspt_init+0x9c>
    }

    vspt[2][1] = 
        PTE_V | (((uintptr_t)&vspt[4][0]) >> 2);
    80000768:	00038697          	auipc	a3,0x38
    8000076c:	89868693          	add	a3,a3,-1896 # 80038000 <vspt+0x4000>
    80000770:	0026d713          	srl	a4,a3,0x2
    80000774:	00176713          	or	a4,a4,1

    addr = 4 * SUPERPAGE_SIZE(0) + SUPERPAGE_SIZE(1);
    for(int i = 0; i < 512; i++){
    80000778:	40100613          	li	a2,1025
    vspt[2][1] = 
    8000077c:	00e8b423          	sd	a4,8(a7)
        vspt[4][i] = (addr >> 2) | 
            PTE_V | PTE_AD | PTE_RWX; 
        addr +=  PAGE_SIZE;
    80000780:	6585                	lui	a1,0x1
    for(int i = 0; i < 512; i++){
    80000782:	065a                	sll	a2,a2,0x16
        vspt[4][i] = (addr >> 2) | 
    80000784:	0027d713          	srl	a4,a5,0x2
            PTE_V | PTE_AD | PTE_RWX; 
    80000788:	0cf76713          	or	a4,a4,207
        vspt[4][i] = (addr >> 2) | 
    8000078c:	e298                	sd	a4,0(a3)
        addr +=  PAGE_SIZE;
    8000078e:	97ae                	add	a5,a5,a1
    for(int i = 0; i < 512; i++){
    80000790:	06a1                	add	a3,a3,8
    80000792:	fec799e3          	bne	a5,a2,80000784 <vspt_init+0xd0>
    }  

    vspt[0][5] = 
        PTE_V | (((uintptr_t)&vspt[5][0]) >> 2);
    80000796:	00039697          	auipc	a3,0x39
    8000079a:	86a68693          	add	a3,a3,-1942 # 80039000 <vspt+0x5000>
    8000079e:	0026d793          	srl	a5,a3,0x2
    800007a2:	0017e793          	or	a5,a5,1
    vspt[0][5] = 
    800007a6:	f41c                	sd	a5,40(s0)
    
    addr = 5 * SUPERPAGE_SIZE(0);
    for(int i = 0; i < 512; i++){
    800007a8:	460d                	li	a2,3
    addr = 5 * SUPERPAGE_SIZE(0);
    800007aa:	4795                	li	a5,5
    800007ac:	07fa                	sll	a5,a5,0x1e
        vspt[5][i] = (addr >> 2) |
             PTE_V | PTE_AD | PTE_RWX;  
        addr +=  SUPERPAGE_SIZE(1);
    800007ae:	002005b7          	lui	a1,0x200
    for(int i = 0; i < 512; i++){
    800007b2:	067e                	sll	a2,a2,0x1f
        vspt[5][i] = (addr >> 2) |
    800007b4:	0027d713          	srl	a4,a5,0x2
             PTE_V | PTE_AD | PTE_RWX;  
    800007b8:	0cf76713          	or	a4,a4,207
        vspt[5][i] = (addr >> 2) |
    800007bc:	e298                	sd	a4,0(a3)
        addr +=  SUPERPAGE_SIZE(1);
    800007be:	97ae                	add	a5,a5,a1
    for(int i = 0; i < 512; i++){
    800007c0:	06a1                	add	a3,a3,8
    800007c2:	fec799e3          	bne	a5,a2,800007b4 <vspt_init+0x100>
    }  

    uintptr_t satp = (((uintptr_t)vspt) >> 12) | (0x8ULL << 60);
    800007c6:	57fd                	li	a5,-1
    800007c8:	8031                	srl	s0,s0,0xc
    800007ca:	17fe                	sll	a5,a5,0x3f
    if(curr_priv == PRIV_VS){
    800007cc:	00025717          	auipc	a4,0x25
    800007d0:	e1872703          	lw	a4,-488(a4) # 800255e4 <curr_priv>
    800007d4:	4689                	li	a3,2
    uintptr_t satp = (((uintptr_t)vspt) >> 12) | (0x8ULL << 60);
    800007d6:	8c5d                	or	s0,s0,a5
    if(curr_priv == PRIV_VS){
    800007d8:	04d70163          	beq	a4,a3,8000081a <vspt_init+0x166>
        CSRW(satp, satp);
    } else if(curr_priv == PRIV_HS || curr_priv == PRIV_M){
    800007dc:	3775                	addw	a4,a4,-3
    800007de:	4785                	li	a5,1
    800007e0:	00e7e863          	bltu	a5,a4,800007f0 <vspt_init+0x13c>
        CSRW(CSR_VSATP, satp);
    800007e4:	28041073          	csrw	vsatp,s0
    } else {
        ERROR("");
    }
}
    800007e8:	60a2                	ld	ra,8(sp)
    800007ea:	6402                	ld	s0,0(sp)
    800007ec:	0141                	add	sp,sp,16
    800007ee:	8082                	ret
        ERROR("");
    800007f0:	0001d517          	auipc	a0,0x1d
    800007f4:	92050513          	add	a0,a0,-1760 # 8001d110 <__func__.1+0x480>
    800007f8:	3d31a0ef          	jal	8001b3ca <printf>
    800007fc:	10600613          	li	a2,262
    80000800:	0001b597          	auipc	a1,0x1b
    80000804:	04858593          	add	a1,a1,72 # 8001b848 <__func__.1>
    80000808:	0001d517          	auipc	a0,0x1d
    8000080c:	8f850513          	add	a0,a0,-1800 # 8001d100 <__func__.1+0x470>
    80000810:	3bb1a0ef          	jal	8001b3ca <printf>
    80000814:	4501                	li	a0,0
    80000816:	0531a0ef          	jal	8001b068 <exit>
        CSRW(satp, satp);
    8000081a:	18041073          	csrw	satp,s0
}
    8000081e:	60a2                	ld	ra,8(sp)
    80000820:	6402                	ld	s0,0(sp)
    80000822:	0141                	add	sp,sp,16
    80000824:	8082                	ret

0000000080000826 <hpt_init>:

pte_t hpt_root[PAGE_SIZE*4/sizeof(pte_t)] __attribute__((aligned(PAGE_SIZE*4)));
pte_t hpt[5][PAGE_SIZE/sizeof(pte_t)] __attribute__((aligned(PAGE_SIZE)));

void hpt_init(){
    80000826:	1101                	add	sp,sp,-32
    80000828:	e426                	sd	s1,8(sp)

    for(int i = 0; i < 2048; i++){
        hpt_root[i] = 0;
    8000082a:	0002f497          	auipc	s1,0x2f
    8000082e:	7d648493          	add	s1,s1,2006 # 80030000 <hpt_root>
    80000832:	6611                	lui	a2,0x4
    80000834:	4581                	li	a1,0
    80000836:	8526                	mv	a0,s1
void hpt_init(){
    80000838:	ec06                	sd	ra,24(sp)
    8000083a:	e822                	sd	s0,16(sp)
        hpt_root[i] = 0;
    8000083c:	4e51a0ef          	jal	8001b520 <memset>
    }

    uintptr_t addr = 0x0;
    for(int i = 0; i < 4; i++){
        hpt_root[i] = 
    80000840:	0df00713          	li	a4,223
    80000844:	e098                	sd	a4,0(s1)
    80000846:	10000737          	lui	a4,0x10000
            PTE_V | PTE_U | PTE_AD | PTE_RWX | (addr >> 2);  
        addr +=  SUPERPAGE_SIZE(0);
    }

    hpt_root[MEM_BASE/SUPERPAGE_SIZE(0)] =
        PTE_V | (((uintptr_t)&hpt[0][0]) >> 2);
    8000084a:	00027417          	auipc	s0,0x27
    8000084e:	7b640413          	add	s0,s0,1974 # 80028000 <hpt>
        hpt_root[i] = 
    80000852:	0df70713          	add	a4,a4,223 # 100000df <STACK_SIZE+0xff000df>
    80000856:	e498                	sd	a4,8(s1)
        PTE_V | (((uintptr_t)&hpt[0][0]) >> 2);
    80000858:	00245793          	srl	a5,s0,0x2
        hpt_root[i] = 
    8000085c:	30000737          	lui	a4,0x30000
        PTE_V | (((uintptr_t)&hpt[0][0]) >> 2);
    80000860:	0017e793          	or	a5,a5,1

    addr = MEM_BASE;
    for(int i = 0; i < 512; i++) hpt[0][i] = 0;
    80000864:	6605                	lui	a2,0x1
        hpt_root[i] = 
    80000866:	0df70713          	add	a4,a4,223 # 300000df <STACK_SIZE+0x2ff000df>
    for(int i = 0; i < 512; i++) hpt[0][i] = 0;
    8000086a:	4581                	li	a1,0
    8000086c:	8522                	mv	a0,s0
    hpt_root[MEM_BASE/SUPERPAGE_SIZE(0)] =
    8000086e:	e89c                	sd	a5,16(s1)
        hpt_root[i] = 
    80000870:	ec98                	sd	a4,24(s1)
    for(int i = 0; i < 512; i++) hpt[0][i] = 0;
    80000872:	4af1a0ef          	jal	8001b520 <memset>
    addr = MEM_BASE;
    80000876:	4785                	li	a5,1
    for(int i = 0; i < MEM_SIZE/SUPERPAGE_SIZE(1)/2; i++){
    80000878:	46c5                	li	a3,17
    8000087a:	8522                	mv	a0,s0
    addr = MEM_BASE;
    8000087c:	07fe                	sll	a5,a5,0x1f
        hpt[0][i] = 
            PTE_V | PTE_U | PTE_AD | PTE_RWX | (addr >> 2);  
        addr +=  SUPERPAGE_SIZE(1);
    8000087e:	00200637          	lui	a2,0x200
    for(int i = 0; i < MEM_SIZE/SUPERPAGE_SIZE(1)/2; i++){
    80000882:	06ee                	sll	a3,a3,0x1b
            PTE_V | PTE_U | PTE_AD | PTE_RWX | (addr >> 2);  
    80000884:	0027d713          	srl	a4,a5,0x2
    80000888:	0df76713          	or	a4,a4,223
        hpt[0][i] = 
    8000088c:	e118                	sd	a4,0(a0)
        addr +=  SUPERPAGE_SIZE(1);
    8000088e:	97b2                	add	a5,a5,a2
    for(int i = 0; i < MEM_SIZE/SUPERPAGE_SIZE(1)/2; i++){
    80000890:	0521                	add	a0,a0,8
    80000892:	fed799e3          	bne	a5,a3,80000884 <hpt_init+0x5e>
    }    

    hpt_root[4] =
        PTE_V | (((uintptr_t)&hpt[1][0]) >> 2);
    80000896:	00028317          	auipc	t1,0x28
    8000089a:	76a30313          	add	t1,t1,1898 # 80029000 <hpt+0x1000>

    hpt_root[2047] =
        PTE_V | (((uintptr_t)&hpt[1][0]) >> 2);

    hpt[1][0] = 
        PTE_V | (((uintptr_t)&hpt[2][0]) >> 2);
    8000089e:	00029617          	auipc	a2,0x29
    800008a2:	76260613          	add	a2,a2,1890 # 8002a000 <hpt+0x2000>
        PTE_V | (((uintptr_t)&hpt[1][0]) >> 2);
    800008a6:	00235693          	srl	a3,t1,0x2
    800008aa:	0016e693          	or	a3,a3,1
        PTE_V | (((uintptr_t)&hpt[2][0]) >> 2);
    800008ae:	00265713          	srl	a4,a2,0x2
    800008b2:	00176713          	or	a4,a4,1
    hpt_root[2047] =
    800008b6:	00033597          	auipc	a1,0x33
    800008ba:	74d5b123          	sd	a3,1858(a1) # 80033ff8 <hpt_root+0x3ff8>

    hpt[1][511] = 
        PTE_V | (((uintptr_t)&hpt[2][0]) >> 2);

    addr = TEST_PPAGE_BASE;
    for(int i = 0; i < TEST_PAGE_MAX; i++){
    800008be:	44100813          	li	a6,1089
    hpt_root[4] =
    800008c2:	f094                	sd	a3,32(s1)
    hpt[1][0] = 
    800008c4:	00e33023          	sd	a4,0(t1)
    hpt[1][511] = 
    800008c8:	fee63c23          	sd	a4,-8(a2)
    for(int i = 0; i < TEST_PAGE_MAX; i++){
    800008cc:	00023597          	auipc	a1,0x23
    800008d0:	d1c58593          	add	a1,a1,-740 # 800235e8 <test_page_perm_table+0x8>
    addr = TEST_PPAGE_BASE;
    800008d4:	86be                	mv	a3,a5
        hpt[2][i] = (addr >> 2) | PTE_AD |
            test_page_perm_table[i].h;  
        addr +=  PAGE_SIZE;
    800008d6:	6885                	lui	a7,0x1
    for(int i = 0; i < TEST_PAGE_MAX; i++){
    800008d8:	0856                	sll	a6,a6,0x15
        hpt[2][i] = (addr >> 2) | PTE_AD |
    800008da:	6188                	ld	a0,0(a1)
    800008dc:	0026d713          	srl	a4,a3,0x2
        addr +=  PAGE_SIZE;
    800008e0:	96c6                	add	a3,a3,a7
        hpt[2][i] = (addr >> 2) | PTE_AD |
    800008e2:	8f49                	or	a4,a4,a0
    800008e4:	0c076713          	or	a4,a4,192
    800008e8:	e218                	sd	a4,0(a2)
    for(int i = 0; i < TEST_PAGE_MAX; i++){
    800008ea:	05c1                	add	a1,a1,16
    800008ec:	0621                	add	a2,a2,8
    800008ee:	ff0696e3          	bne	a3,a6,800008da <hpt_init+0xb4>
    }

    hpt[1][1] = 
        PTE_V | (((uintptr_t)&hpt[3][0]) >> 2);
    800008f2:	0002a617          	auipc	a2,0x2a
    800008f6:	70e60613          	add	a2,a2,1806 # 8002b000 <hpt+0x3000>
    800008fa:	00265713          	srl	a4,a2,0x2
    800008fe:	00176713          	or	a4,a4,1
    addr = TEST_PPAGE_BASE;
    for(int i = 0; i < 512; i++){
    80000902:	44100593          	li	a1,1089
    hpt[1][1] = 
    80000906:	00e33423          	sd	a4,8(t1)
        hpt[3][i] = (addr >> 2) | 
            PTE_V | PTE_U | PTE_AD | PTE_RWX; 
        addr +=  PAGE_SIZE;
    8000090a:	6505                	lui	a0,0x1
    addr = TEST_PPAGE_BASE;
    8000090c:	873e                	mv	a4,a5
    for(int i = 0; i < 512; i++){
    8000090e:	05d6                	sll	a1,a1,0x15
        hpt[3][i] = (addr >> 2) | 
    80000910:	00275693          	srl	a3,a4,0x2
            PTE_V | PTE_U | PTE_AD | PTE_RWX; 
    80000914:	0df6e693          	or	a3,a3,223
        hpt[3][i] = (addr >> 2) | 
    80000918:	e214                	sd	a3,0(a2)
        addr +=  PAGE_SIZE;
    8000091a:	972a                	add	a4,a4,a0
    for(int i = 0; i < 512; i++){
    8000091c:	0621                	add	a2,a2,8
    8000091e:	feb719e3          	bne	a4,a1,80000910 <hpt_init+0xea>
    }  

    hpt_root[5] =
        PTE_V | (((uintptr_t)&hpt[4][0]) >> 2);
    80000922:	0002b697          	auipc	a3,0x2b
    80000926:	6de68693          	add	a3,a3,1758 # 8002c000 <hpt+0x4000>
    8000092a:	0026d713          	srl	a4,a3,0x2
    8000092e:	00176713          	or	a4,a4,1
    addr = TEST_PPAGE_BASE;
    for(int i = 0; i < 512; i++){
    80000932:	4665                	li	a2,25
    hpt_root[5] =
    80000934:	f498                	sd	a4,40(s1)
        hpt[4][i] = (addr >> 2) |
             PTE_V | PTE_U | PTE_AD | PTE_RWX;  
        addr +=  SUPERPAGE_SIZE(1);
    80000936:	002005b7          	lui	a1,0x200
    for(int i = 0; i < 512; i++){
    8000093a:	066e                	sll	a2,a2,0x1b
        hpt[4][i] = (addr >> 2) |
    8000093c:	0027d713          	srl	a4,a5,0x2
             PTE_V | PTE_U | PTE_AD | PTE_RWX;  
    80000940:	0df76713          	or	a4,a4,223
        hpt[4][i] = (addr >> 2) |
    80000944:	e298                	sd	a4,0(a3)
        addr +=  SUPERPAGE_SIZE(1);
    80000946:	97ae                	add	a5,a5,a1
    for(int i = 0; i < 512; i++){
    80000948:	06a1                	add	a3,a3,8
    8000094a:	fec799e3          	bne	a5,a2,8000093c <hpt_init+0x116>
    }  

    if(curr_priv == PRIV_HS || curr_priv == PRIV_M){
    8000094e:	00025797          	auipc	a5,0x25
    80000952:	c967a783          	lw	a5,-874(a5) # 800255e4 <curr_priv>
    80000956:	37f5                	addw	a5,a5,-3
    80000958:	4705                	li	a4,1
    8000095a:	00f76e63          	bltu	a4,a5,80000976 <hpt_init+0x150>
        uintptr_t hsatp = (((uintptr_t)hpt_root) >> 12) | (0x8ULL << 60);
    8000095e:	577d                	li	a4,-1
    80000960:	00c4d793          	srl	a5,s1,0xc
    80000964:	177e                	sll	a4,a4,0x3f
    80000966:	8fd9                	or	a5,a5,a4
        CSRW(CSR_HGATP, hsatp);
    80000968:	68079073          	csrw	hgatp,a5
    } else {
        ERROR("trying to set hs hgatp from lower privilege");
    }
}
    8000096c:	60e2                	ld	ra,24(sp)
    8000096e:	6442                	ld	s0,16(sp)
    80000970:	64a2                	ld	s1,8(sp)
    80000972:	6105                	add	sp,sp,32
    80000974:	8082                	ret
        ERROR("trying to set hs hgatp from lower privilege");
    80000976:	0001c517          	auipc	a0,0x1c
    8000097a:	7b250513          	add	a0,a0,1970 # 8001d128 <__func__.1+0x498>
    8000097e:	24d1a0ef          	jal	8001b3ca <printf>
    80000982:	14e00613          	li	a2,334
    80000986:	0001b597          	auipc	a1,0x1b
    8000098a:	ed258593          	add	a1,a1,-302 # 8001b858 <__func__.0>
    8000098e:	0001c517          	auipc	a0,0x1c
    80000992:	77250513          	add	a0,a0,1906 # 8001d100 <__func__.1+0x470>
    80000996:	2351a0ef          	jal	8001b3ca <printf>
    8000099a:	4501                	li	a0,0
    8000099c:	6cc1a0ef          	jal	8001b068 <exit>

00000000800009a0 <hspt_switch>:

void hspt_switch(){
    pte_t temp = hspt[2][SWITCH1];
    hspt[2][SWITCH1] = hspt[2][SWITCH2];
    800009a0:	0003b797          	auipc	a5,0x3b
    800009a4:	66078793          	add	a5,a5,1632 # 8003c000 <hspt+0x2000>
    800009a8:	3607b683          	ld	a3,864(a5)
    800009ac:	3687b703          	ld	a4,872(a5)
    800009b0:	36d7b423          	sd	a3,872(a5)
    800009b4:	36e7b023          	sd	a4,864(a5)
    hspt[2][SWITCH2] = temp;
}
    800009b8:	8082                	ret

00000000800009ba <vspt_switch>:

void vspt_switch(){
    pte_t temp = vspt[3][SWITCH1];
    vspt[3][SWITCH1] = vspt[3][SWITCH2];
    800009ba:	00036797          	auipc	a5,0x36
    800009be:	64678793          	add	a5,a5,1606 # 80037000 <vspt+0x3000>
    800009c2:	3607b683          	ld	a3,864(a5)
    800009c6:	3687b703          	ld	a4,872(a5)
    800009ca:	36d7b423          	sd	a3,872(a5)
    800009ce:	36e7b023          	sd	a4,864(a5)
    vspt[3][SWITCH2] = temp;
}
    800009d2:	8082                	ret

00000000800009d4 <hpt_switch>:

void hpt_switch(){
    pte_t temp = hpt[2][SWITCH1];
    hpt[2][SWITCH1] = hpt[2][SWITCH2];
    800009d4:	00029797          	auipc	a5,0x29
    800009d8:	62c78793          	add	a5,a5,1580 # 8002a000 <hpt+0x2000>
    800009dc:	3607b683          	ld	a3,864(a5)
    800009e0:	3687b703          	ld	a4,872(a5)
    800009e4:	36d7b423          	sd	a3,872(a5)
    800009e8:	36e7b023          	sd	a4,864(a5)
    hpt[2][SWITCH2] = temp;
}
    800009ec:	8082                	ret

00000000800009ee <ecall>:

uint64_t ecall_args[2];

uint64_t ecall(uint64_t a0, uint64_t a1)
{
    ecall_args[0] = a0;
    800009ee:	0003c797          	auipc	a5,0x3c
    800009f2:	61278793          	add	a5,a5,1554 # 8003d000 <ecall_args>
    800009f6:	e388                	sd	a0,0(a5)
    ecall_args[1] = a1;
    800009f8:	e78c                	sd	a1,8(a5)

    asm volatile("ecall" ::: "memory");
    800009fa:	00000073          	ecall
    return ecall_args[0];

}
    800009fe:	6388                	ld	a0,0(a5)
    80000a00:	8082                	ret

0000000080000a02 <set_prev_priv>:
    return priv == PRIV_VU || priv == PRIV_HU;
}

void set_prev_priv(int priv){

    switch(curr_priv){
    80000a02:	00025797          	auipc	a5,0x25
    80000a06:	be27a783          	lw	a5,-1054(a5) # 800255e4 <curr_priv>
    80000a0a:	470d                	li	a4,3
    80000a0c:	04e78463          	beq	a5,a4,80000a54 <set_prev_priv+0x52>
    80000a10:	4711                	li	a4,4
    80000a12:	06e78d63          	beq	a5,a4,80000a8c <set_prev_priv+0x8a>
    80000a16:	4709                	li	a4,2
    80000a18:	06e78363          	beq	a5,a4,80000a7e <set_prev_priv+0x7c>
void set_prev_priv(int priv){
    80000a1c:	1141                	add	sp,sp,-16
        case PRIV_VS: {
            uint64_t temp = CSRR(sstatus);
            CSRC(sstatus, 0x1ULL << 8);
        }
        break;
        default: ERROR("unknown current priv %d (%s)\n", priv, __func__);
    80000a1e:	85aa                	mv	a1,a0
    80000a20:	0001b617          	auipc	a2,0x1b
    80000a24:	e4860613          	add	a2,a2,-440 # 8001b868 <__func__.6>
    80000a28:	0001c517          	auipc	a0,0x1c
    80000a2c:	74050513          	add	a0,a0,1856 # 8001d168 <__func__.1+0x4d8>
void set_prev_priv(int priv){
    80000a30:	e406                	sd	ra,8(sp)
        default: ERROR("unknown current priv %d (%s)\n", priv, __func__);
    80000a32:	1991a0ef          	jal	8001b3ca <printf>
    80000a36:	03c00613          	li	a2,60
    80000a3a:	0001b597          	auipc	a1,0x1b
    80000a3e:	e2e58593          	add	a1,a1,-466 # 8001b868 <__func__.6>
    80000a42:	0001c517          	auipc	a0,0x1c
    80000a46:	6be50513          	add	a0,a0,1726 # 8001d100 <__func__.1+0x470>
    80000a4a:	1811a0ef          	jal	8001b3ca <printf>
    80000a4e:	4501                	li	a0,0
    80000a50:	6181a0ef          	jal	8001b068 <exit>
            uint64_t temp = CSRR(sstatus);
    80000a54:	100027f3          	csrr	a5,sstatus
            if(priv == PRIV_HS || priv == PRIV_VS) temp |= (0x1ULL << 8);   //spp
    80000a58:	4685                	li	a3,1
    80000a5a:	ffe5071b          	addw	a4,a0,-2
            temp &= ~(0x1ULL << 8);
    80000a5e:	eff7f793          	and	a5,a5,-257
            if(priv == PRIV_HS || priv == PRIV_VS) temp |= (0x1ULL << 8);   //spp
    80000a62:	06e6f063          	bgeu	a3,a4,80000ac2 <set_prev_priv+0xc0>
            CSRW(sstatus, temp);
    80000a66:	10079073          	csrw	sstatus,a5
            temp = CSRR(CSR_HSTATUS);   //p101
    80000a6a:	600027f3          	csrr	a5,hstatus
            temp &= ~(0x3ULL << 7);
    80000a6e:	e7f7f793          	and	a5,a5,-385
            if(priv == PRIV_VU || priv == PRIV_VS) temp |= (0x1ULL << 7);       //spv
    80000a72:	e119                	bnez	a0,80000a78 <set_prev_priv+0x76>
    80000a74:	0807e793          	or	a5,a5,128
            CSRW(CSR_HSTATUS, temp);
    80000a78:	60079073          	csrw	hstatus,a5
        break;
    80000a7c:	8082                	ret
            uint64_t temp = CSRR(sstatus);
    80000a7e:	100027f3          	csrr	a5,sstatus
            CSRC(sstatus, 0x1ULL << 8);
    80000a82:	10000793          	li	a5,256
    80000a86:	1007b073          	csrc	sstatus,a5
        break;
    80000a8a:	8082                	ret
            uint64_t temp = CSRR(mstatus);
    80000a8c:	300027f3          	csrr	a5,mstatus
            temp &= ~((3ULL << 11) | (1ULL << 39));
    80000a90:	00023617          	auipc	a2,0x23
    80000a94:	b0863603          	ld	a2,-1272(a2) # 80023598 <__func__.1+0x6908>
            if(priv == PRIV_VS || priv == PRIV_HS) temp |= (1ULL << 11);    //mpp   
    80000a98:	ffe5071b          	addw	a4,a0,-2
    80000a9c:	4685                	li	a3,1
            temp &= ~((3ULL << 11) | (1ULL << 39));
    80000a9e:	8ff1                	and	a5,a5,a2
            if(priv == PRIV_VS || priv == PRIV_HS) temp |= (1ULL << 11);    //mpp   
    80000aa0:	00e6f963          	bgeu	a3,a4,80000ab2 <set_prev_priv+0xb0>
            if(priv == PRIV_VU || priv == PRIV_VS) temp |= (1ULL << 39);     //mpv
    80000aa4:	e501                	bnez	a0,80000aac <set_prev_priv+0xaa>
    80000aa6:	4705                	li	a4,1
    80000aa8:	171e                	sll	a4,a4,0x27
    80000aaa:	8fd9                	or	a5,a5,a4
            CSRW(mstatus, temp);
    80000aac:	30079073          	csrw	mstatus,a5
        break;
    80000ab0:	8082                	ret
            if(priv == PRIV_VS || priv == PRIV_HS) temp |= (1ULL << 11);    //mpp   
    80000ab2:	6705                	lui	a4,0x1
    80000ab4:	80070713          	add	a4,a4,-2048 # 800 <_test_table_size+0x7ff>
            if(priv == PRIV_VU || priv == PRIV_VS) temp |= (1ULL << 39);     //mpv
    80000ab8:	4689                	li	a3,2
            if(priv == PRIV_VS || priv == PRIV_HS) temp |= (1ULL << 11);    //mpp   
    80000aba:	8fd9                	or	a5,a5,a4
            if(priv == PRIV_VU || priv == PRIV_VS) temp |= (1ULL << 39);     //mpv
    80000abc:	fed518e3          	bne	a0,a3,80000aac <set_prev_priv+0xaa>
    80000ac0:	b7dd                	j	80000aa6 <set_prev_priv+0xa4>
            if(priv == PRIV_HS || priv == PRIV_VS) temp |= (0x1ULL << 8);   //spp
    80000ac2:	1007e793          	or	a5,a5,256
            CSRW(sstatus, temp);
    80000ac6:	10079073          	csrw	sstatus,a5
            temp = CSRR(CSR_HSTATUS);   //p101
    80000aca:	600027f3          	csrr	a5,hstatus
            if(priv == PRIV_VS) temp |= (1ULL << 8);        //spvp
    80000ace:	4709                	li	a4,2
            temp &= ~(0x3ULL << 7);
    80000ad0:	e7f7f793          	and	a5,a5,-385
            if(priv == PRIV_VS) temp |= (1ULL << 8);        //spvp
    80000ad4:	fae512e3          	bne	a0,a4,80000a78 <set_prev_priv+0x76>
    80000ad8:	1007e793          	or	a5,a5,256
            if(priv == PRIV_VU || priv == PRIV_VS) temp |= (0x1ULL << 7);       //spv
    80000adc:	bf61                	j	80000a74 <set_prev_priv+0x72>

0000000080000ade <goto_priv>:
    curr_priv = priv;

}


void goto_priv(int target_priv){
    80000ade:	7179                	add	sp,sp,-48
    80000ae0:	f022                	sd	s0,32(sp)
    80000ae2:	ec26                	sd	s1,24(sp)
    80000ae4:	f406                	sd	ra,40(sp)
    80000ae6:	e84a                	sd	s2,16(sp)
    80000ae8:	e44e                	sd	s3,8(sp)

    static bool on_going = false;

    DEBUG("goto_priv: real = %s, target = %s, curr = %s",  priv_strs[real_priv], priv_strs[target_priv], priv_strs[curr_priv]);

    if(is_user(target_priv) && is_user(curr_priv)) {
    80000aea:	4785                	li	a5,1
void goto_priv(int target_priv){
    80000aec:	842a                	mv	s0,a0
    return priv == PRIV_VU || priv == PRIV_HU;
    80000aee:	0005049b          	sext.w	s1,a0
    if(is_user(target_priv) && is_user(curr_priv)) {
    80000af2:	06a7fd63          	bgeu	a5,a0,80000b6c <goto_priv+0x8e>
        goto_priv(PRIV_M);
    }

    if(real_priv == target_priv || target_priv >= PRIV_MAX){
    80000af6:	00025997          	auipc	s3,0x25
    80000afa:	aea98993          	add	s3,s3,-1302 # 800255e0 <real_priv>
    80000afe:	0009a783          	lw	a5,0(s3)
    80000b02:	00025917          	auipc	s2,0x25
    80000b06:	ae290913          	add	s2,s2,-1310 # 800255e4 <curr_priv>
    80000b0a:	00978963          	beq	a5,s1,80000b1c <goto_priv+0x3e>
    80000b0e:	4791                	li	a5,4
    80000b10:	00025917          	auipc	s2,0x25
    80000b14:	ad490913          	add	s2,s2,-1324 # 800255e4 <curr_priv>
    80000b18:	02a7d663          	bge	a5,a0,80000b44 <goto_priv+0x66>
    curr_priv = priv;
    80000b1c:	00992023          	sw	s1,0(s2)
        VERBOSE("...entered %s mode", priv_strs[target_priv]);
        on_going = false;
        lower_priv(target_priv);
    }

}
    80000b20:	70a2                	ld	ra,40(sp)
    80000b22:	7402                	ld	s0,32(sp)
    80000b24:	64e2                	ld	s1,24(sp)
    80000b26:	6942                	ld	s2,16(sp)
    80000b28:	69a2                	ld	s3,8(sp)
    80000b2a:	6145                	add	sp,sp,48
    80000b2c:	8082                	ret
        goto_priv(PRIV_M);
    80000b2e:	4511                	li	a0,4
    if(real_priv == target_priv || target_priv >= PRIV_MAX){
    80000b30:	00025997          	auipc	s3,0x25
    80000b34:	ab098993          	add	s3,s3,-1360 # 800255e0 <real_priv>
        goto_priv(PRIV_M);
    80000b38:	fa7ff0ef          	jal	80000ade <goto_priv>
    if(real_priv == target_priv || target_priv >= PRIV_MAX){
    80000b3c:	0009a783          	lw	a5,0(s3)
    80000b40:	fc978ee3          	beq	a5,s1,80000b1c <goto_priv+0x3e>
    if(target_priv > curr_priv){
    80000b44:	00092703          	lw	a4,0(s2)
    80000b48:	0a977d63          	bgeu	a4,s1,80000c02 <goto_priv+0x124>
    ecall_args[0] = a0;
    80000b4c:	0003c797          	auipc	a5,0x3c
    80000b50:	4b478793          	add	a5,a5,1204 # 8003d000 <ecall_args>
    80000b54:	4705                	li	a4,1
    80000b56:	e398                	sd	a4,0(a5)
        ecall(ECALL_GOTO_PRIV, target_priv);
    80000b58:	e780                	sd	s0,8(a5)
    asm volatile("ecall" ::: "memory");
    80000b5a:	00000073          	ecall
}
    80000b5e:	70a2                	ld	ra,40(sp)
    80000b60:	7402                	ld	s0,32(sp)
    80000b62:	64e2                	ld	s1,24(sp)
    80000b64:	6942                	ld	s2,16(sp)
    80000b66:	69a2                	ld	s3,8(sp)
    80000b68:	6145                	add	sp,sp,48
    80000b6a:	8082                	ret
    if(is_user(target_priv) && is_user(curr_priv)) {
    80000b6c:	00025917          	auipc	s2,0x25
    80000b70:	a7890913          	add	s2,s2,-1416 # 800255e4 <curr_priv>
    80000b74:	00092703          	lw	a4,0(s2)
    80000b78:	fae7fbe3          	bgeu	a5,a4,80000b2e <goto_priv+0x50>
    if(real_priv == target_priv || target_priv >= PRIV_MAX){
    80000b7c:	00025997          	auipc	s3,0x25
    80000b80:	a6498993          	add	s3,s3,-1436 # 800255e0 <real_priv>
    80000b84:	0009a783          	lw	a5,0(s3)
    80000b88:	f8978ae3          	beq	a5,s1,80000b1c <goto_priv+0x3e>
    if(curr_priv == PRIV_VS && priv == PRIV_HU){
    80000b8c:	4789                	li	a5,2
    80000b8e:	02f71a63          	bne	a4,a5,80000bc2 <goto_priv+0xe4>
    80000b92:	4785                	li	a5,1
    80000b94:	02f49763          	bne	s1,a5,80000bc2 <goto_priv+0xe4>
        ERROR("trying to go from vs to hu");
    80000b98:	0001c517          	auipc	a0,0x1c
    80000b9c:	60050513          	add	a0,a0,1536 # 8001d198 <__func__.1+0x508>
    80000ba0:	02b1a0ef          	jal	8001b3ca <printf>
    80000ba4:	04b00613          	li	a2,75
        ERROR("cant lower priv from u");
    80000ba8:	0001b597          	auipc	a1,0x1b
    80000bac:	cd058593          	add	a1,a1,-816 # 8001b878 <__func__.4>
    80000bb0:	0001c517          	auipc	a0,0x1c
    80000bb4:	55050513          	add	a0,a0,1360 # 8001d100 <__func__.1+0x470>
    80000bb8:	0131a0ef          	jal	8001b3ca <printf>
    80000bbc:	4501                	li	a0,0
    80000bbe:	4aa1a0ef          	jal	8001b068 <exit>
    set_prev_priv(priv);
    80000bc2:	8522                	mv	a0,s0
    80000bc4:	e3fff0ef          	jal	80000a02 <set_prev_priv>
    if(curr_priv == PRIV_M) {
    80000bc8:	00092783          	lw	a5,0(s2)
    real_priv = priv;
    80000bcc:	0099a023          	sw	s1,0(s3)
    if(curr_priv == PRIV_M) {
    80000bd0:	4711                	li	a4,4
    80000bd2:	02e78b63          	beq	a5,a4,80000c08 <goto_priv+0x12a>
    } else if(curr_priv == PRIV_VS || curr_priv == PRIV_HS){
    80000bd6:	37f9                	addw	a5,a5,-2
    80000bd8:	4705                	li	a4,1
    80000bda:	00f76b63          	bltu	a4,a5,80000bf0 <goto_priv+0x112>
        asm volatile(
    80000bde:	00000297          	auipc	t0,0x0
    80000be2:	01028293          	add	t0,t0,16 # 80000bee <goto_priv+0x110>
    80000be6:	14129073          	csrw	sepc,t0
    80000bea:	10200073          	sret
    80000bee:	b73d                	j	80000b1c <goto_priv+0x3e>
        ERROR("cant lower priv from u");
    80000bf0:	0001c517          	auipc	a0,0x1c
    80000bf4:	5d850513          	add	a0,a0,1496 # 8001d1c8 <__func__.1+0x538>
    80000bf8:	7d21a0ef          	jal	8001b3ca <printf>
    80000bfc:	06300613          	li	a2,99
    80000c00:	b765                	j	80000ba8 <goto_priv+0xca>
    if(priv == curr_priv) 
    80000c02:	f0970fe3          	beq	a4,s1,80000b20 <goto_priv+0x42>
    80000c06:	b759                	j	80000b8c <goto_priv+0xae>
        asm volatile(
    80000c08:	00000297          	auipc	t0,0x0
    80000c0c:	01028293          	add	t0,t0,16 # 80000c18 <goto_priv+0x13a>
    80000c10:	34129073          	csrw	mepc,t0
    80000c14:	30200073          	mret
    80000c18:	b711                	j	80000b1c <goto_priv+0x3e>

0000000080000c1a <mhandler>:
        break;\
    }\
    return from_priv;\
}

uint64_t mhandler(){
    80000c1a:	715d                	add	sp,sp,-80
    80000c1c:	f84a                	sd	s2,48(sp)
    80000c1e:	e486                	sd	ra,72(sp)
    80000c20:	e0a2                	sd	s0,64(sp)
    80000c22:	fc26                	sd	s1,56(sp)
    80000c24:	f44e                	sd	s3,40(sp)
    80000c26:	f052                	sd	s4,32(sp)
    80000c28:	ec56                	sd	s5,24(sp)
    80000c2a:	e85a                	sd	s6,16(sp)
    80000c2c:	e45e                	sd	s7,8(sp)

    real_priv = PRIV_M;
    80000c2e:	00025917          	auipc	s2,0x25
    80000c32:	9b290913          	add	s2,s2,-1614 # 800255e0 <real_priv>
    80000c36:	4791                	li	a5,4
    80000c38:	00f92023          	sw	a5,0(s2)

    uint64_t cause = CSRR(mcause);
    80000c3c:	342024f3          	csrr	s1,mcause
    uint64_t epc = CSRR(mepc);
    80000c40:	341029f3          	csrr	s3,mepc
    80000c44:	8a4e                	mv	s4,s3
    uint64_t tval = CSRR(mtval);
    80000c46:	34302bf3          	csrr	s7,mtval
    uint64_t tval2 = CSRR(CSR_MTVAL2);
    80000c4a:	34b02af3          	csrr	s5,0x34b
    uint64_t tinst= CSRR(CSR_MTINST);
    80000c4e:	34a02b73          	csrr	s6,0x34a
    if(!(cause == CAUSE_ECU || cause == CAUSE_ECS || 
    80000c52:	478d                	li	a5,3
    80000c54:	ff848713          	add	a4,s1,-8
    DEBUG("mpv = 0x%lx", (CSRR(mstatus) >> 39) & 0x1);
    DEBUG("gva = 0x%lx", (CSRR(mstatus) >> MSTATUS_GVA_OFF) & 0x1);
    
    if(is_ecall(cause) && ecall_args[0] == ECALL_GOTO_PRIV){
        goto_priv(ecall_args[1]); 
    } else if(!excpt.testing){
    80000c58:	0003c417          	auipc	s0,0x3c
    80000c5c:	3a840413          	add	s0,s0,936 # 8003d000 <ecall_args>
    if(!(cause == CAUSE_ECU || cause == CAUSE_ECS || 
    80000c60:	12e7ec63          	bltu	a5,a4,80000d98 <mhandler+0x17e>
    if(is_ecall(cause) && ecall_args[0] == ECALL_GOTO_PRIV){
    80000c64:	6018                	ld	a4,0(s0)
    80000c66:	4785                	li	a5,1
    80000c68:	1af70463          	beq	a4,a5,80000e10 <mhandler+0x1f6>
    } else if(!excpt.testing){
    80000c6c:	01044783          	lbu	a5,16(s0)
    80000c70:	c3f5                	beqz	a5,80000d54 <mhandler+0x13a>

    if(cause & (1ULL << 63)){
        CSRC(mip, 1ULL << (cause &  ~(1ULL << 63)));
    }

    excpt.triggered = true;
    80000c72:	4785                	li	a5,1
    80000c74:	00f408a3          	sb	a5,17(s0)
    excpt.priv = PRIV_M;
    80000c78:	4791                	li	a5,4
    80000c7a:	c85c                	sw	a5,20(s0)
    excpt.cause = cause;
    80000c7c:	ec04                	sd	s1,24(s0)
    excpt.epc = epc;
    80000c7e:	03343023          	sd	s3,32(s0)
    excpt.tval = tval;
    80000c82:	03743423          	sd	s7,40(s0)
    excpt.tinst = tinst;
    80000c86:	03643823          	sd	s6,48(s0)
    excpt.tval2 = tval2;
    80000c8a:	03543c23          	sd	s5,56(s0)
    excpt.gva = !!((CSRR(mstatus) >> MSTATUS_GVA_OFF) & 0x1);
    80000c8e:	300027f3          	csrr	a5,mstatus
    80000c92:	9399                	srl	a5,a5,0x26
    80000c94:	8b85                	and	a5,a5,1
    80000c96:	04f40023          	sb	a5,64(s0)
    excpt.xpv = !!((CSRR(mstatus) >> 39) & 0x1);
    80000c9a:	300027f3          	csrr	a5,mstatus
    80000c9e:	939d                	srl	a5,a5,0x27
    80000ca0:	8b85                	and	a5,a5,1
    80000ca2:	04f400a3          	sb	a5,65(s0)
    excpt.testing = false;
    80000ca6:	0003c797          	auipc	a5,0x3c
    80000caa:	36078523          	sb	zero,874(a5) # 8003d010 <excpt>
    if(is_inst_fault(cause)){
    80000cae:	47d1                	li	a5,20
    80000cb0:	0097e963          	bltu	a5,s1,80000cc2 <mhandler+0xa8>
    80000cb4:	001017b7          	lui	a5,0x101
    80000cb8:	078d                	add	a5,a5,3 # 101003 <STACK_SIZE+0x1003>
    80000cba:	0097d7b3          	srl	a5,a5,s1
    80000cbe:	8b85                	and	a5,a5,1
    80000cc0:	efdd                	bnez	a5,80000d7e <mhandler+0x164>
            ERROR("instruction fault without return address");
    }
    excpt.fault_inst = 0;

    unsigned temp_priv = real_priv;
    real_priv = curr_priv;
    80000cc2:	00025797          	auipc	a5,0x25
    80000cc6:	92278793          	add	a5,a5,-1758 # 800255e4 <curr_priv>
    80000cca:	4398                	lw	a4,0(a5)
    unsigned temp_priv = real_priv;
    80000ccc:	00092503          	lw	a0,0(s2)
    excpt.fault_inst = 0;
    80000cd0:	0003c697          	auipc	a3,0x3c
    80000cd4:	3606bc23          	sd	zero,888(a3) # 8003d048 <excpt+0x38>
    real_priv = curr_priv;
    80000cd8:	00e92023          	sw	a4,0(s2)
    return_from_exception(temp_priv, curr_priv, cause, epc);
    80000cdc:	470d                	li	a4,3
    80000cde:	02e50563          	beq	a0,a4,80000d08 <mhandler+0xee>
    80000ce2:	4711                	li	a4,4
    80000ce4:	0ce50563          	beq	a0,a4,80000dae <mhandler+0x194>
    80000ce8:	4709                	li	a4,2
    80000cea:	02e50a63          	beq	a0,a4,80000d1e <mhandler+0x104>
}
    80000cee:	60a6                	ld	ra,72(sp)
    80000cf0:	6406                	ld	s0,64(sp)
    80000cf2:	1502                	sll	a0,a0,0x20
    80000cf4:	74e2                	ld	s1,56(sp)
    80000cf6:	7942                	ld	s2,48(sp)
    80000cf8:	79a2                	ld	s3,40(sp)
    80000cfa:	7a02                	ld	s4,32(sp)
    80000cfc:	6ae2                	ld	s5,24(sp)
    80000cfe:	6b42                	ld	s6,16(sp)
    80000d00:	6ba2                	ld	s7,8(sp)
    80000d02:	9101                	srl	a0,a0,0x20
    80000d04:	6161                	add	sp,sp,80
    80000d06:	8082                	ret
    return_from_exception(temp_priv, curr_priv, cause, epc);
    80000d08:	60002773          	csrr	a4,hstatus
    80000d0c:	4394                	lw	a3,0(a5)
    80000d0e:	f7f77713          	and	a4,a4,-129
    80000d12:	9af5                	and	a3,a3,-3
    80000d14:	e299                	bnez	a3,80000d1a <mhandler+0x100>
    80000d16:	08076713          	or	a4,a4,128
    80000d1a:	60071073          	csrw	hstatus,a4
    80000d1e:	10002773          	csrr	a4,sstatus
    80000d22:	4394                	lw	a3,0(a5)
    80000d24:	4605                	li	a2,1
    80000d26:	edf77793          	and	a5,a4,-289
    80000d2a:	ffe6871b          	addw	a4,a3,-2
    80000d2e:	0ce67a63          	bgeu	a2,a4,80000e02 <mhandler+0x1e8>
    80000d32:	10079073          	csrw	sstatus,a5
    80000d36:	fa04cce3          	bltz	s1,80000cee <mhandler+0xd4>
    if(((*(uint16_t*)epc) & 0b11) == 0b11) return epc + 4;
    80000d3a:	000a5783          	lhu	a5,0(s4)
    80000d3e:	468d                	li	a3,3
    else return epc + 2;
    80000d40:	002a0713          	add	a4,s4,2
    if(((*(uint16_t*)epc) & 0b11) == 0b11) return epc + 4;
    80000d44:	8b8d                	and	a5,a5,3
    80000d46:	00d79463          	bne	a5,a3,80000d4e <mhandler+0x134>
    80000d4a:	004a0713          	add	a4,s4,4
    return_from_exception(temp_priv, curr_priv, cause, epc);
    80000d4e:	14171073          	csrw	sepc,a4
    80000d52:	bf71                	j	80000cee <mhandler+0xd4>
        ERROR("untested exception!");
    80000d54:	0001c517          	auipc	a0,0x1c
    80000d58:	49c50513          	add	a0,a0,1180 # 8001d1f0 <__func__.1+0x560>
    80000d5c:	66e1a0ef          	jal	8001b3ca <printf>
    80000d60:	0d700613          	li	a2,215
            ERROR("instruction fault without return address");
    80000d64:	0001b597          	auipc	a1,0x1b
    80000d68:	b2458593          	add	a1,a1,-1244 # 8001b888 <__func__.3>
    80000d6c:	0001c517          	auipc	a0,0x1c
    80000d70:	39450513          	add	a0,a0,916 # 8001d100 <__func__.1+0x470>
    80000d74:	6561a0ef          	jal	8001b3ca <printf>
    80000d78:	4501                	li	a0,0
    80000d7a:	2ee1a0ef          	jal	8001b068 <exit>
        if(excpt.fault_inst != 0){ 
    80000d7e:	04843a03          	ld	s4,72(s0)
    80000d82:	f40a10e3          	bnez	s4,80000cc2 <mhandler+0xa8>
            ERROR("instruction fault without return address");
    80000d86:	0001c517          	auipc	a0,0x1c
    80000d8a:	49250513          	add	a0,a0,1170 # 8001d218 <__func__.1+0x588>
    80000d8e:	63c1a0ef          	jal	8001b3ca <printf>
    80000d92:	0ed00613          	li	a2,237
    80000d96:	b7f9                	j	80000d64 <mhandler+0x14a>
    } else if(!excpt.testing){
    80000d98:	01044783          	lbu	a5,16(s0)
    80000d9c:	dfc5                	beqz	a5,80000d54 <mhandler+0x13a>
    if(cause & (1ULL << 63)){
    80000d9e:	ec04dae3          	bgez	s1,80000c72 <mhandler+0x58>
        CSRC(mip, 1ULL << (cause &  ~(1ULL << 63)));
    80000da2:	4785                	li	a5,1
    80000da4:	009797b3          	sll	a5,a5,s1
    80000da8:	3447b073          	csrc	mip,a5
    80000dac:	b5d9                	j	80000c72 <mhandler+0x58>
    return_from_exception(temp_priv, curr_priv, cause, epc);
    80000dae:	30002773          	csrr	a4,mstatus
    80000db2:	4394                	lw	a3,0(a5)
    80000db4:	00022797          	auipc	a5,0x22
    80000db8:	7ec7b783          	ld	a5,2028(a5) # 800235a0 <__func__.1+0x6910>
    80000dbc:	8ff9                	and	a5,a5,a4
    80000dbe:	04a68d63          	beq	a3,a0,80000e18 <mhandler+0x1fe>
    80000dc2:	ffe6871b          	addw	a4,a3,-2
    80000dc6:	4605                	li	a2,1
    80000dc8:	04e66d63          	bltu	a2,a4,80000e22 <mhandler+0x208>
    80000dcc:	6705                	lui	a4,0x1
    80000dce:	80070713          	add	a4,a4,-2048 # 800 <_test_table_size+0x7ff>
    80000dd2:	4609                	li	a2,2
    80000dd4:	8fd9                	or	a5,a5,a4
    80000dd6:	00c69563          	bne	a3,a2,80000de0 <mhandler+0x1c6>
    80000dda:	4705                	li	a4,1
    80000ddc:	171e                	sll	a4,a4,0x27
    80000dde:	8fd9                	or	a5,a5,a4
    80000de0:	30079073          	csrw	mstatus,a5
    80000de4:	f004c5e3          	bltz	s1,80000cee <mhandler+0xd4>
    if(((*(uint16_t*)epc) & 0b11) == 0b11) return epc + 4;
    80000de8:	000a5783          	lhu	a5,0(s4)
    80000dec:	468d                	li	a3,3
    else return epc + 2;
    80000dee:	002a0713          	add	a4,s4,2
    if(((*(uint16_t*)epc) & 0b11) == 0b11) return epc + 4;
    80000df2:	8b8d                	and	a5,a5,3
    80000df4:	00d79463          	bne	a5,a3,80000dfc <mhandler+0x1e2>
    80000df8:	004a0713          	add	a4,s4,4
    return_from_exception(temp_priv, curr_priv, cause, epc);
    80000dfc:	34171073          	csrw	mepc,a4
    80000e00:	b5fd                	j	80000cee <mhandler+0xd4>
    80000e02:	1007e793          	or	a5,a5,256
    80000e06:	10079073          	csrw	sstatus,a5
    80000e0a:	f204d8e3          	bgez	s1,80000d3a <mhandler+0x120>
    80000e0e:	b5c5                	j	80000cee <mhandler+0xd4>
        goto_priv(ecall_args[1]); 
    80000e10:	4408                	lw	a0,8(s0)
    80000e12:	ccdff0ef          	jal	80000ade <goto_priv>
    if(cause & (1ULL << 63)){
    80000e16:	bdb1                	j	80000c72 <mhandler+0x58>
    return_from_exception(temp_priv, curr_priv, cause, epc);
    80000e18:	6709                	lui	a4,0x2
    80000e1a:	80070713          	add	a4,a4,-2048 # 1800 <_test_table_size+0x17ff>
    80000e1e:	8fd9                	or	a5,a5,a4
    80000e20:	b7c1                	j	80000de0 <mhandler+0x1c6>
    80000e22:	dec5                	beqz	a3,80000dda <mhandler+0x1c0>
    80000e24:	bf75                	j	80000de0 <mhandler+0x1c6>

0000000080000e26 <hshandler>:

uint64_t hshandler(){
    80000e26:	715d                	add	sp,sp,-80
    80000e28:	f84a                	sd	s2,48(sp)
    80000e2a:	e486                	sd	ra,72(sp)
    80000e2c:	e0a2                	sd	s0,64(sp)
    80000e2e:	fc26                	sd	s1,56(sp)
    80000e30:	f44e                	sd	s3,40(sp)
    80000e32:	f052                	sd	s4,32(sp)
    80000e34:	ec56                	sd	s5,24(sp)
    80000e36:	e85a                	sd	s6,16(sp)
    80000e38:	e45e                	sd	s7,8(sp)

    real_priv = PRIV_HS;
    80000e3a:	00024917          	auipc	s2,0x24
    80000e3e:	7a690913          	add	s2,s2,1958 # 800255e0 <real_priv>
    80000e42:	478d                	li	a5,3
    80000e44:	00f92023          	sw	a5,0(s2)

    uint64_t cause = CSRR(scause);
    80000e48:	142024f3          	csrr	s1,scause
    uint64_t epc = CSRR(sepc);
    80000e4c:	141029f3          	csrr	s3,sepc
    80000e50:	8a4e                	mv	s4,s3
    uint64_t tval = CSRR(stval);
    80000e52:	14302bf3          	csrr	s7,stval
    uint64_t htval = CSRR(CSR_HTVAL);
    80000e56:	64302af3          	csrr	s5,htval
    uint64_t htinst = CSRR(CSR_HTINST);
    80000e5a:	64a02b73          	csrr	s6,htinst
    if(!(cause == CAUSE_ECU || cause == CAUSE_ECS || 
    80000e5e:	ff848713          	add	a4,s1,-8
    if(is_ecall(cause) && ecall_args[0] == ECALL_GOTO_PRIV){
        goto_priv(ecall_args[1]); 
    } else if(is_ecall(cause)) {
        printf("\n270\n%d\n\n",ecall_args[0]);
        ERROR("unknown ecall"); 
    } else if(!excpt.testing){
    80000e62:	0003c417          	auipc	s0,0x3c
    80000e66:	19e40413          	add	s0,s0,414 # 8003d000 <ecall_args>
    if(!(cause == CAUSE_ECU || cause == CAUSE_ECS || 
    80000e6a:	04e7e163          	bltu	a5,a4,80000eac <hshandler+0x86>
    if(is_ecall(cause) && ecall_args[0] == ECALL_GOTO_PRIV){
    80000e6e:	600c                	ld	a1,0(s0)
    80000e70:	4785                	li	a5,1
    80000e72:	10f58a63          	beq	a1,a5,80000f86 <hshandler+0x160>
        printf("\n270\n%d\n\n",ecall_args[0]);
    80000e76:	0001c517          	auipc	a0,0x1c
    80000e7a:	3e250513          	add	a0,a0,994 # 8001d258 <__func__.1+0x5c8>
    80000e7e:	54c1a0ef          	jal	8001b3ca <printf>
        ERROR("unknown ecall"); 
    80000e82:	0001c517          	auipc	a0,0x1c
    80000e86:	3e650513          	add	a0,a0,998 # 8001d268 <__func__.1+0x5d8>
    80000e8a:	5401a0ef          	jal	8001b3ca <printf>
    80000e8e:	10f00613          	li	a2,271
        ERROR("untested exception!");
    80000e92:	0001b597          	auipc	a1,0x1b
    80000e96:	a0658593          	add	a1,a1,-1530 # 8001b898 <__func__.2>
    80000e9a:	0001c517          	auipc	a0,0x1c
    80000e9e:	26650513          	add	a0,a0,614 # 8001d100 <__func__.1+0x470>
    80000ea2:	5281a0ef          	jal	8001b3ca <printf>
    80000ea6:	4501                	li	a0,0
    80000ea8:	1c01a0ef          	jal	8001b068 <exit>
    } else if(!excpt.testing){
    80000eac:	01044783          	lbu	a5,16(s0)
    80000eb0:	c7cd                	beqz	a5,80000f5a <hshandler+0x134>
    }
    
    if(cause & (1ULL << 63)){
    80000eb2:	0004d963          	bgez	s1,80000ec4 <hshandler+0x9e>
        CSRC(sip, 1ULL << (cause &  ~(1ULL << 63)));
    80000eb6:	4785                	li	a5,1
    80000eb8:	009797b3          	sll	a5,a5,s1
    80000ebc:	1447b073          	csrc	sip,a5
        //CSRC(CSR_HVIP, 1ULL << (cause &  ~(1ULL << 63)));
        CSRC(CSR_HIP, 1ULL << (cause &  ~(1ULL << 63)));
    80000ec0:	6447b073          	csrc	hip,a5
    }

    excpt.triggered = true;
    80000ec4:	4785                	li	a5,1
    80000ec6:	00f408a3          	sb	a5,17(s0)
    excpt.priv = PRIV_HS;
    80000eca:	478d                	li	a5,3
    80000ecc:	c85c                	sw	a5,20(s0)
    excpt.cause = cause;
    80000ece:	ec04                	sd	s1,24(s0)
    excpt.epc = epc;
    80000ed0:	03343023          	sd	s3,32(s0)
    excpt.tval = tval;
    80000ed4:	03743423          	sd	s7,40(s0)
    excpt.tinst = htinst;
    80000ed8:	03643823          	sd	s6,48(s0)
    excpt.tval2 = htval;
    80000edc:	03543c23          	sd	s5,56(s0)
    excpt.gva = !!((CSRR(CSR_HSTATUS) >> HSTATUS_GVA_OFF) & 0x1);
    80000ee0:	600027f3          	csrr	a5,hstatus
    80000ee4:	8399                	srl	a5,a5,0x6
    80000ee6:	8b85                	and	a5,a5,1
    80000ee8:	04f40023          	sb	a5,64(s0)
    excpt.xpv = !!((CSRR(CSR_HSTATUS) >> 7) & 0x1);
    80000eec:	600027f3          	csrr	a5,hstatus
    80000ef0:	839d                	srl	a5,a5,0x7
    80000ef2:	8b85                	and	a5,a5,1
    80000ef4:	04f400a3          	sb	a5,65(s0)
    excpt.testing = false;
    80000ef8:	0003c797          	auipc	a5,0x3c
    80000efc:	10078c23          	sb	zero,280(a5) # 8003d010 <excpt>
    if(is_inst_fault(cause)){
    80000f00:	47d1                	li	a5,20
    80000f02:	0097e963          	bltu	a5,s1,80000f14 <hshandler+0xee>
    80000f06:	001017b7          	lui	a5,0x101
    80000f0a:	078d                	add	a5,a5,3 # 101003 <STACK_SIZE+0x1003>
    80000f0c:	0097d7b3          	srl	a5,a5,s1
    80000f10:	8b85                	and	a5,a5,1
    80000f12:	efa9                	bnez	a5,80000f6c <hshandler+0x146>
            ERROR("instruction fault without return address");
    }
    excpt.fault_inst = 0;

    unsigned temp_priv = real_priv;
    real_priv = curr_priv;
    80000f14:	00024797          	auipc	a5,0x24
    80000f18:	6d078793          	add	a5,a5,1744 # 800255e4 <curr_priv>
    80000f1c:	4398                	lw	a4,0(a5)
    unsigned temp_priv = real_priv;
    80000f1e:	00092503          	lw	a0,0(s2)
    excpt.fault_inst = 0;
    80000f22:	0003c697          	auipc	a3,0x3c
    80000f26:	1206b323          	sd	zero,294(a3) # 8003d048 <excpt+0x38>
    real_priv = curr_priv;
    80000f2a:	00e92023          	sw	a4,0(s2)
    return_from_exception(temp_priv, curr_priv, cause, epc);
    80000f2e:	470d                	li	a4,3
    80000f30:	04e50f63          	beq	a0,a4,80000f8e <hshandler+0x168>
    80000f34:	4711                	li	a4,4
    80000f36:	0ae50463          	beq	a0,a4,80000fde <hshandler+0x1b8>
    80000f3a:	4709                	li	a4,2
    80000f3c:	06e50463          	beq	a0,a4,80000fa4 <hshandler+0x17e>
}
    80000f40:	60a6                	ld	ra,72(sp)
    80000f42:	6406                	ld	s0,64(sp)
    80000f44:	1502                	sll	a0,a0,0x20
    80000f46:	74e2                	ld	s1,56(sp)
    80000f48:	7942                	ld	s2,48(sp)
    80000f4a:	79a2                	ld	s3,40(sp)
    80000f4c:	7a02                	ld	s4,32(sp)
    80000f4e:	6ae2                	ld	s5,24(sp)
    80000f50:	6b42                	ld	s6,16(sp)
    80000f52:	6ba2                	ld	s7,8(sp)
    80000f54:	9101                	srl	a0,a0,0x20
    80000f56:	6161                	add	sp,sp,80
    80000f58:	8082                	ret
        ERROR("untested exception!");
    80000f5a:	0001c517          	auipc	a0,0x1c
    80000f5e:	29650513          	add	a0,a0,662 # 8001d1f0 <__func__.1+0x560>
    80000f62:	4681a0ef          	jal	8001b3ca <printf>
    80000f66:	11100613          	li	a2,273
    80000f6a:	b725                	j	80000e92 <hshandler+0x6c>
        if(excpt.fault_inst != 0){ 
    80000f6c:	04843a03          	ld	s4,72(s0)
    80000f70:	fa0a12e3          	bnez	s4,80000f14 <hshandler+0xee>
            ERROR("instruction fault without return address");
    80000f74:	0001c517          	auipc	a0,0x1c
    80000f78:	2a450513          	add	a0,a0,676 # 8001d218 <__func__.1+0x588>
    80000f7c:	44e1a0ef          	jal	8001b3ca <printf>
    80000f80:	12900613          	li	a2,297
    80000f84:	b739                	j	80000e92 <hshandler+0x6c>
        goto_priv(ecall_args[1]); 
    80000f86:	4408                	lw	a0,8(s0)
    80000f88:	b57ff0ef          	jal	80000ade <goto_priv>
    if(cause & (1ULL << 63)){
    80000f8c:	bf25                	j	80000ec4 <hshandler+0x9e>
    return_from_exception(temp_priv, curr_priv, cause, epc);
    80000f8e:	60002773          	csrr	a4,hstatus
    80000f92:	4394                	lw	a3,0(a5)
    80000f94:	f7f77713          	and	a4,a4,-129
    80000f98:	9af5                	and	a3,a3,-3
    80000f9a:	e299                	bnez	a3,80000fa0 <hshandler+0x17a>
    80000f9c:	08076713          	or	a4,a4,128
    80000fa0:	60071073          	csrw	hstatus,a4
    80000fa4:	10002773          	csrr	a4,sstatus
    80000fa8:	4394                	lw	a3,0(a5)
    80000faa:	4605                	li	a2,1
    80000fac:	edf77793          	and	a5,a4,-289
    80000fb0:	ffe6871b          	addw	a4,a3,-2
    80000fb4:	00e66463          	bltu	a2,a4,80000fbc <hshandler+0x196>
    80000fb8:	1007e793          	or	a5,a5,256
    80000fbc:	10079073          	csrw	sstatus,a5
    80000fc0:	f804c0e3          	bltz	s1,80000f40 <hshandler+0x11a>
    if(((*(uint16_t*)epc) & 0b11) == 0b11) return epc + 4;
    80000fc4:	000a5783          	lhu	a5,0(s4)
    80000fc8:	468d                	li	a3,3
    else return epc + 2;
    80000fca:	002a0713          	add	a4,s4,2
    if(((*(uint16_t*)epc) & 0b11) == 0b11) return epc + 4;
    80000fce:	8b8d                	and	a5,a5,3
    80000fd0:	00d79463          	bne	a5,a3,80000fd8 <hshandler+0x1b2>
    80000fd4:	004a0713          	add	a4,s4,4
    return_from_exception(temp_priv, curr_priv, cause, epc);
    80000fd8:	14171073          	csrw	sepc,a4
    80000fdc:	b795                	j	80000f40 <hshandler+0x11a>
    80000fde:	30002773          	csrr	a4,mstatus
    80000fe2:	4394                	lw	a3,0(a5)
    80000fe4:	00022797          	auipc	a5,0x22
    80000fe8:	5bc7b783          	ld	a5,1468(a5) # 800235a0 <__func__.1+0x6910>
    80000fec:	8ff9                	and	a5,a5,a4
    80000fee:	04a68263          	beq	a3,a0,80001032 <hshandler+0x20c>
    80000ff2:	ffe6871b          	addw	a4,a3,-2
    80000ff6:	4605                	li	a2,1
    80000ff8:	04e66263          	bltu	a2,a4,8000103c <hshandler+0x216>
    80000ffc:	6705                	lui	a4,0x1
    80000ffe:	80070713          	add	a4,a4,-2048 # 800 <_test_table_size+0x7ff>
    80001002:	4609                	li	a2,2
    80001004:	8fd9                	or	a5,a5,a4
    80001006:	00c69563          	bne	a3,a2,80001010 <hshandler+0x1ea>
    8000100a:	4705                	li	a4,1
    8000100c:	171e                	sll	a4,a4,0x27
    8000100e:	8fd9                	or	a5,a5,a4
    80001010:	30079073          	csrw	mstatus,a5
    80001014:	f204c6e3          	bltz	s1,80000f40 <hshandler+0x11a>
    if(((*(uint16_t*)epc) & 0b11) == 0b11) return epc + 4;
    80001018:	000a5783          	lhu	a5,0(s4)
    8000101c:	468d                	li	a3,3
    else return epc + 2;
    8000101e:	002a0713          	add	a4,s4,2
    if(((*(uint16_t*)epc) & 0b11) == 0b11) return epc + 4;
    80001022:	8b8d                	and	a5,a5,3
    80001024:	00d79463          	bne	a5,a3,8000102c <hshandler+0x206>
    80001028:	004a0713          	add	a4,s4,4
    return_from_exception(temp_priv, curr_priv, cause, epc);
    8000102c:	34171073          	csrw	mepc,a4
    80001030:	bf01                	j	80000f40 <hshandler+0x11a>
    80001032:	6709                	lui	a4,0x2
    80001034:	80070713          	add	a4,a4,-2048 # 1800 <_test_table_size+0x17ff>
    80001038:	8fd9                	or	a5,a5,a4
    8000103a:	bfd9                	j	80001010 <hshandler+0x1ea>
    8000103c:	d6f9                	beqz	a3,8000100a <hshandler+0x1e4>
    8000103e:	bfc9                	j	80001010 <hshandler+0x1ea>

0000000080001040 <vshandler>:

uint64_t vshandler(){
    80001040:	7139                	add	sp,sp,-64
    80001042:	f426                	sd	s1,40(sp)
    80001044:	fc06                	sd	ra,56(sp)
    80001046:	f822                	sd	s0,48(sp)
    80001048:	f04a                	sd	s2,32(sp)
    8000104a:	ec4e                	sd	s3,24(sp)
    8000104c:	e852                	sd	s4,16(sp)
    8000104e:	e456                	sd	s5,8(sp)

    real_priv = PRIV_VS;
    80001050:	00024497          	auipc	s1,0x24
    80001054:	59048493          	add	s1,s1,1424 # 800255e0 <real_priv>
    80001058:	4709                	li	a4,2
    8000105a:	c098                	sw	a4,0(s1)

    uint64_t cause = CSRR(scause);
    8000105c:	14202473          	csrr	s0,scause
    uint64_t epc = CSRR(sepc);
    80001060:	141029f3          	csrr	s3,sepc
    80001064:	894e                	mv	s2,s3
    uint64_t tval = CSRR(stval);
    80001066:	14302af3          	csrr	s5,stval
    if(!(cause == CAUSE_ECU || cause == CAUSE_ECS || 
    8000106a:	478d                	li	a5,3
    8000106c:	ff840693          	add	a3,s0,-8
    80001070:	04d7e463          	bltu	a5,a3,800010b8 <vshandler+0x78>
    VERBOSE("virtual supervisor handler (scause = 0x%llx)", cause);
    DEBUG("scause = 0x%llx", cause);
    DEBUG("sepc = 0x%lx", epc);
    DEBUG("stval = 0x%lx", tval);
    
    if(is_ecall(cause) && ecall_args[0] ==ECALL_GOTO_PRIV ){
    80001074:	0003ca17          	auipc	s4,0x3c
    80001078:	f8ca0a13          	add	s4,s4,-116 # 8003d000 <ecall_args>
    8000107c:	000a3703          	ld	a4,0(s4)
    80001080:	4785                	li	a5,1
    80001082:	18f70a63          	beq	a4,a5,80001216 <vshandler+0x1d6>
        goto_priv(ecall_args[1]); 
    } else if(!excpt.testing){
    80001086:	010a4783          	lbu	a5,16(s4)
    8000108a:	18079a63          	bnez	a5,8000121e <vshandler+0x1de>
        ERROR("untested exception!");
    8000108e:	0001c517          	auipc	a0,0x1c
    80001092:	16250513          	add	a0,a0,354 # 8001d1f0 <__func__.1+0x560>
    80001096:	3341a0ef          	jal	8001b3ca <printf>
    8000109a:	14200613          	li	a2,322
    excpt.epc = epc;
    excpt.tval = tval;
    excpt.testing = false;
    if(is_inst_fault(cause)){
        if(excpt.fault_inst != 0) epc = excpt.fault_inst;
        else ERROR("instruction fault without return address");
    8000109e:	0001b597          	auipc	a1,0x1b
    800010a2:	80a58593          	add	a1,a1,-2038 # 8001b8a8 <__func__.1>
    800010a6:	0001c517          	auipc	a0,0x1c
    800010aa:	05a50513          	add	a0,a0,90 # 8001d100 <__func__.1+0x470>
    800010ae:	31c1a0ef          	jal	8001b3ca <printf>
    800010b2:	4501                	li	a0,0
    800010b4:	7b5190ef          	jal	8001b068 <exit>
    } else if(!excpt.testing){
    800010b8:	0003c797          	auipc	a5,0x3c
    800010bc:	f4878793          	add	a5,a5,-184 # 8003d000 <ecall_args>
    800010c0:	0107c683          	lbu	a3,16(a5)
    800010c4:	d6e9                	beqz	a3,8000108e <vshandler+0x4e>
    if(cause & (1ULL << 63)){
    800010c6:	06045063          	bgez	s0,80001126 <vshandler+0xe6>
        CSRC(sip, 1ULL << (cause &  ~(1ULL << 63)));
    800010ca:	4685                	li	a3,1
    800010cc:	008696b3          	sll	a3,a3,s0
    800010d0:	1446b073          	csrc	sip,a3
    excpt.priv = PRIV_VS;
    800010d4:	cbd8                	sw	a4,20(a5)
    excpt.testing = false;
    800010d6:	10000713          	li	a4,256
    excpt.cause = cause;
    800010da:	ef80                	sd	s0,24(a5)
    excpt.epc = epc;
    800010dc:	0337b023          	sd	s3,32(a5)
    excpt.tval = tval;
    800010e0:	0357b423          	sd	s5,40(a5)
    excpt.testing = false;
    800010e4:	00e79823          	sh	a4,16(a5)
    }
    excpt.fault_inst = 0;

    unsigned temp_priv = real_priv;
    real_priv = curr_priv;
    800010e8:	00024797          	auipc	a5,0x24
    800010ec:	4fc78793          	add	a5,a5,1276 # 800255e4 <curr_priv>
    800010f0:	4398                	lw	a4,0(a5)
    unsigned temp_priv = real_priv;
    800010f2:	4088                	lw	a0,0(s1)
    excpt.fault_inst = 0;
    800010f4:	0003c697          	auipc	a3,0x3c
    800010f8:	f406ba23          	sd	zero,-172(a3) # 8003d048 <excpt+0x38>
    real_priv = curr_priv;
    800010fc:	c098                	sw	a4,0(s1)
    return_from_exception(temp_priv, curr_priv, cause, epc);
    800010fe:	470d                	li	a4,3
    80001100:	06e50463          	beq	a0,a4,80001168 <vshandler+0x128>
    80001104:	4711                	li	a4,4
    80001106:	0ae50e63          	beq	a0,a4,800011c2 <vshandler+0x182>
    8000110a:	4709                	li	a4,2
    8000110c:	06e50963          	beq	a0,a4,8000117e <vshandler+0x13e>
}
    80001110:	70e2                	ld	ra,56(sp)
    80001112:	7442                	ld	s0,48(sp)
    return_from_exception(temp_priv, curr_priv, cause, epc);
    80001114:	1502                	sll	a0,a0,0x20
}
    80001116:	74a2                	ld	s1,40(sp)
    80001118:	7902                	ld	s2,32(sp)
    8000111a:	69e2                	ld	s3,24(sp)
    8000111c:	6a42                	ld	s4,16(sp)
    8000111e:	6aa2                	ld	s5,8(sp)
    return_from_exception(temp_priv, curr_priv, cause, epc);
    80001120:	9101                	srl	a0,a0,0x20
}
    80001122:	6121                	add	sp,sp,64
    80001124:	8082                	ret
    excpt.priv = PRIV_VS;
    80001126:	cbd8                	sw	a4,20(a5)
    excpt.testing = false;
    80001128:	10000713          	li	a4,256
    8000112c:	00e79823          	sh	a4,16(a5)
    excpt.cause = cause;
    80001130:	ef80                	sd	s0,24(a5)
    excpt.epc = epc;
    80001132:	0337b023          	sd	s3,32(a5)
    excpt.tval = tval;
    80001136:	0357b423          	sd	s5,40(a5)
    if(is_inst_fault(cause)){
    8000113a:	4751                	li	a4,20
    8000113c:	fa8766e3          	bltu	a4,s0,800010e8 <vshandler+0xa8>
    80001140:	00101737          	lui	a4,0x101
    80001144:	070d                	add	a4,a4,3 # 101003 <STACK_SIZE+0x1003>
    80001146:	00875733          	srl	a4,a4,s0
    8000114a:	8b05                	and	a4,a4,1
    8000114c:	df51                	beqz	a4,800010e8 <vshandler+0xa8>
        if(excpt.fault_inst != 0) epc = excpt.fault_inst;
    8000114e:	0487b903          	ld	s2,72(a5)
    80001152:	f8091be3          	bnez	s2,800010e8 <vshandler+0xa8>
        else ERROR("instruction fault without return address");
    80001156:	0001c517          	auipc	a0,0x1c
    8000115a:	0c250513          	add	a0,a0,194 # 8001d218 <__func__.1+0x588>
    8000115e:	26c1a0ef          	jal	8001b3ca <printf>
    80001162:	15100613          	li	a2,337
    80001166:	bf25                	j	8000109e <vshandler+0x5e>
    return_from_exception(temp_priv, curr_priv, cause, epc);
    80001168:	60002773          	csrr	a4,hstatus
    8000116c:	4394                	lw	a3,0(a5)
    8000116e:	f7f77713          	and	a4,a4,-129
    80001172:	9af5                	and	a3,a3,-3
    80001174:	e299                	bnez	a3,8000117a <vshandler+0x13a>
    80001176:	08076713          	or	a4,a4,128
    8000117a:	60071073          	csrw	hstatus,a4
    8000117e:	10002773          	csrr	a4,sstatus
    80001182:	4394                	lw	a3,0(a5)
    80001184:	4605                	li	a2,1
    80001186:	edf77793          	and	a5,a4,-289
    8000118a:	ffe6871b          	addw	a4,a3,-2
    8000118e:	02e67363          	bgeu	a2,a4,800011b4 <vshandler+0x174>
    80001192:	10079073          	csrw	sstatus,a5
    80001196:	f6044de3          	bltz	s0,80001110 <vshandler+0xd0>
    if(((*(uint16_t*)epc) & 0b11) == 0b11) return epc + 4;
    8000119a:	00095783          	lhu	a5,0(s2)
    8000119e:	468d                	li	a3,3
    else return epc + 2;
    800011a0:	00290713          	add	a4,s2,2
    if(((*(uint16_t*)epc) & 0b11) == 0b11) return epc + 4;
    800011a4:	8b8d                	and	a5,a5,3
    800011a6:	00d79463          	bne	a5,a3,800011ae <vshandler+0x16e>
    800011aa:	00490713          	add	a4,s2,4
    return_from_exception(temp_priv, curr_priv, cause, epc);
    800011ae:	14171073          	csrw	sepc,a4
    800011b2:	bfb9                	j	80001110 <vshandler+0xd0>
    800011b4:	1007e793          	or	a5,a5,256
    800011b8:	10079073          	csrw	sstatus,a5
    800011bc:	fc045fe3          	bgez	s0,8000119a <vshandler+0x15a>
    800011c0:	bf81                	j	80001110 <vshandler+0xd0>
    800011c2:	30002773          	csrr	a4,mstatus
    800011c6:	4394                	lw	a3,0(a5)
    800011c8:	00022797          	auipc	a5,0x22
    800011cc:	3d87b783          	ld	a5,984(a5) # 800235a0 <__func__.1+0x6910>
    800011d0:	8ff9                	and	a5,a5,a4
    800011d2:	06a68463          	beq	a3,a0,8000123a <vshandler+0x1fa>
    800011d6:	ffe6871b          	addw	a4,a3,-2
    800011da:	4605                	li	a2,1
    800011dc:	06e66463          	bltu	a2,a4,80001244 <vshandler+0x204>
    800011e0:	6705                	lui	a4,0x1
    800011e2:	80070713          	add	a4,a4,-2048 # 800 <_test_table_size+0x7ff>
    800011e6:	4609                	li	a2,2
    800011e8:	8fd9                	or	a5,a5,a4
    800011ea:	00c69563          	bne	a3,a2,800011f4 <vshandler+0x1b4>
    800011ee:	4705                	li	a4,1
    800011f0:	171e                	sll	a4,a4,0x27
    800011f2:	8fd9                	or	a5,a5,a4
    800011f4:	30079073          	csrw	mstatus,a5
    800011f8:	f0044ce3          	bltz	s0,80001110 <vshandler+0xd0>
    if(((*(uint16_t*)epc) & 0b11) == 0b11) return epc + 4;
    800011fc:	00095783          	lhu	a5,0(s2)
    80001200:	468d                	li	a3,3
    else return epc + 2;
    80001202:	00290713          	add	a4,s2,2
    if(((*(uint16_t*)epc) & 0b11) == 0b11) return epc + 4;
    80001206:	8b8d                	and	a5,a5,3
    80001208:	00d79463          	bne	a5,a3,80001210 <vshandler+0x1d0>
    8000120c:	00490713          	add	a4,s2,4
    return_from_exception(temp_priv, curr_priv, cause, epc);
    80001210:	34171073          	csrw	mepc,a4
    80001214:	bdf5                	j	80001110 <vshandler+0xd0>
        goto_priv(ecall_args[1]); 
    80001216:	008a2503          	lw	a0,8(s4)
    8000121a:	8c5ff0ef          	jal	80000ade <goto_priv>
    excpt.priv = PRIV_VS;
    8000121e:	4789                	li	a5,2
    80001220:	00fa2a23          	sw	a5,20(s4)
    excpt.testing = false;
    80001224:	10000793          	li	a5,256
    excpt.cause = cause;
    80001228:	008a3c23          	sd	s0,24(s4)
    excpt.epc = epc;
    8000122c:	033a3023          	sd	s3,32(s4)
    excpt.tval = tval;
    80001230:	035a3423          	sd	s5,40(s4)
    excpt.testing = false;
    80001234:	00fa1823          	sh	a5,16(s4)
    if(is_inst_fault(cause)){
    80001238:	bd45                	j	800010e8 <vshandler+0xa8>
    return_from_exception(temp_priv, curr_priv, cause, epc);
    8000123a:	6709                	lui	a4,0x2
    8000123c:	80070713          	add	a4,a4,-2048 # 1800 <_test_table_size+0x17ff>
    80001240:	8fd9                	or	a5,a5,a4
    80001242:	bf4d                	j	800011f4 <vshandler+0x1b4>
    80001244:	d6cd                	beqz	a3,800011ee <vshandler+0x1ae>
    80001246:	b77d                	j	800011f4 <vshandler+0x1b4>

0000000080001248 <expand_compressed_instruction>:

uint32_t expand_compressed_instruction(uint16_t ins) {
    80001248:	1141                	add	sp,sp,-16
    8000124a:	e406                	sd	ra,8(sp)

    if(!INS_COMPRESSED(ins)) {
    8000124c:	00357713          	and	a4,a0,3
    80001250:	478d                	li	a5,3
    80001252:	04f70763          	beq	a4,a5,800012a0 <expand_compressed_instruction+0x58>
        ERROR("trying to expand non-compressed instruction");
    }

    if(INS_MATCH_C_LW(ins) || INS_MATCH_C_LD(ins) || INS_MATCH_C_SW(ins) || INS_MATCH_C_SD(ins)){
    80001256:	77f9                	lui	a5,0xffffe
    80001258:	078d                	add	a5,a5,3 # ffffffffffffe003 <__stack_top+0xffffffff7fcff003>
    8000125a:	8fe9                	and	a5,a5,a0
    8000125c:	6711                	lui	a4,0x4
    8000125e:	85aa                	mv	a1,a0
    80001260:	08e78863          	beq	a5,a4,800012f0 <expand_compressed_instruction+0xa8>
    80001264:	6719                	lui	a4,0x6
    80001266:	04e78663          	beq	a5,a4,800012b2 <expand_compressed_instruction+0x6a>
    8000126a:	6731                	lui	a4,0xc
    8000126c:	0ae78863          	beq	a5,a4,8000131c <expand_compressed_instruction+0xd4>
    80001270:	6739                	lui	a4,0xe
    80001272:	0ae78063          	beq	a5,a4,80001312 <expand_compressed_instruction+0xca>
            ((ins & INS_C_IMM0_MASK)  >> INS_C_IMM0_OFF) & 0x1 << 6 |
            ((ins & INS_C_IMM0_MASK)  >> INS_C_IMM0_OFF) >> 1 & 0x1 << 2;
        return opcode_funct3 | rd_rs2 << (is_load ? 7 : 20) | 
            rs1 << 15 | (imm & 0x1f) << 7 | (imm >> 5) << 25;
    } else {
        ERROR("expansion not implemented for target compressed instruction: 0x%x", ins);
    80001276:	0001c517          	auipc	a0,0x1c
    8000127a:	05250513          	add	a0,a0,82 # 8001d2c8 <__func__.1+0x638>
    8000127e:	14c1a0ef          	jal	8001b3ca <printf>
    80001282:	17000613          	li	a2,368
    80001286:	0001a597          	auipc	a1,0x1a
    8000128a:	63258593          	add	a1,a1,1586 # 8001b8b8 <__func__.0>
    8000128e:	0001c517          	auipc	a0,0x1c
    80001292:	e7250513          	add	a0,a0,-398 # 8001d100 <__func__.1+0x470>
    80001296:	1341a0ef          	jal	8001b3ca <printf>
    8000129a:	4501                	li	a0,0
    8000129c:	5cd190ef          	jal	8001b068 <exit>
        ERROR("trying to expand non-compressed instruction");
    800012a0:	0001c517          	auipc	a0,0x1c
    800012a4:	fe850513          	add	a0,a0,-24 # 8001d288 <__func__.1+0x5f8>
    800012a8:	1221a0ef          	jal	8001b3ca <printf>
    800012ac:	15d00613          	li	a2,349
    800012b0:	bfd9                	j	80001286 <expand_compressed_instruction+0x3e>
            (is_load ? MATCH_LD : MATCH_SD):
    800012b2:	650d                	lui	a0,0x3
        bool is_load = INS_MATCH_C_LW(ins) || INS_MATCH_C_LD(ins); 
    800012b4:	4805                	li	a6,1
            (is_load ? MATCH_LD : MATCH_SD):
    800012b6:	050d                	add	a0,a0,3 # 3003 <_test_table_size+0x3002>
        uint32_t rd_rs2 =  ((ins & INS_C_RDRS2_MASK) >> INS_C_RDRS2_OFF) + 8;
    800012b8:	0025d713          	srl	a4,a1,0x2
        uint32_t rs1 = ((ins & INS_C_RS1_MASK) >> INS_C_RS1_OFF) + 8;
    800012bc:	0075d793          	srl	a5,a1,0x7
        uint32_t rd_rs2 =  ((ins & INS_C_RDRS2_MASK) >> INS_C_RDRS2_OFF) + 8;
    800012c0:	8b1d                	and	a4,a4,7
        uint32_t rs1 = ((ins & INS_C_RS1_MASK) >> INS_C_RS1_OFF) + 8;
    800012c2:	8b9d                	and	a5,a5,7
        uint32_t rd_rs2 =  ((ins & INS_C_RDRS2_MASK) >> INS_C_RDRS2_OFF) + 8;
    800012c4:	0721                	add	a4,a4,8 # e008 <_test_table_size+0xe007>
        uint32_t rs1 = ((ins & INS_C_RS1_MASK) >> INS_C_RS1_OFF) + 8;
    800012c6:	07a1                	add	a5,a5,8
            rs1 << 15 | (imm & 0x1f) << 7 | (imm >> 5) << 25;
    800012c8:	01559613          	sll	a2,a1,0x15
    800012cc:	0c0006b7          	lui	a3,0xc000
    800012d0:	8e75                	and	a2,a2,a3
        return opcode_funct3 | rd_rs2 << (is_load ? 7 : 20) | 
    800012d2:	46d1                	li	a3,20
    800012d4:	00080363          	beqz	a6,800012da <expand_compressed_instruction+0x92>
    800012d8:	469d                	li	a3,7
    }

}
    800012da:	60a2                	ld	ra,8(sp)
            rs1 << 15 | (imm & 0x1f) << 7 | (imm >> 5) << 25;
    800012dc:	00f7979b          	sllw	a5,a5,0xf
    800012e0:	8d51                	or	a0,a0,a2
    800012e2:	8d5d                	or	a0,a0,a5
        return opcode_funct3 | rd_rs2 << (is_load ? 7 : 20) | 
    800012e4:	00d7173b          	sllw	a4,a4,a3
            rs1 << 15 | (imm & 0x1f) << 7 | (imm >> 5) << 25;
    800012e8:	8d59                	or	a0,a0,a4
    800012ea:	2501                	sext.w	a0,a0
}
    800012ec:	0141                	add	sp,sp,16
    800012ee:	8082                	ret
            (is_load ? MATCH_LD : MATCH_SD):
    800012f0:	6509                	lui	a0,0x2
        bool is_load = INS_MATCH_C_LW(ins) || INS_MATCH_C_LD(ins); 
    800012f2:	4805                	li	a6,1
            (is_load ? MATCH_LD : MATCH_SD):
    800012f4:	050d                	add	a0,a0,3 # 2003 <_test_table_size+0x2002>
        uint32_t rs1 = ((ins & INS_C_RS1_MASK) >> INS_C_RS1_OFF) + 8;
    800012f6:	0075d793          	srl	a5,a1,0x7
        uint32_t imm = ((ins & INS_C_IMM1_MASK)  >> INS_C_IMM1_OFF) << 3 |
    800012fa:	86be                	mv	a3,a5
        uint32_t rd_rs2 =  ((ins & INS_C_RDRS2_MASK) >> INS_C_RDRS2_OFF) + 8;
    800012fc:	0025d713          	srl	a4,a1,0x2
    80001300:	8b1d                	and	a4,a4,7
        uint32_t rs1 = ((ins & INS_C_RS1_MASK) >> INS_C_RS1_OFF) + 8;
    80001302:	8b9d                	and	a5,a5,7
        uint32_t imm = ((ins & INS_C_IMM1_MASK)  >> INS_C_IMM1_OFF) << 3 |
    80001304:	0386f693          	and	a3,a3,56
        uint32_t rd_rs2 =  ((ins & INS_C_RDRS2_MASK) >> INS_C_RDRS2_OFF) + 8;
    80001308:	0721                	add	a4,a4,8
        uint32_t rs1 = ((ins & INS_C_RS1_MASK) >> INS_C_RS1_OFF) + 8;
    8000130a:	07a1                	add	a5,a5,8
        uint32_t imm = ((ins & INS_C_IMM1_MASK)  >> INS_C_IMM1_OFF) << 3 |
    8000130c:	4601                	li	a2,0
    8000130e:	d2f1                	beqz	a3,800012d2 <expand_compressed_instruction+0x8a>
    80001310:	bf65                	j	800012c8 <expand_compressed_instruction+0x80>
            (is_load ? MATCH_LD : MATCH_SD):
    80001312:	650d                	lui	a0,0x3
    80001314:	4801                	li	a6,0
    80001316:	02350513          	add	a0,a0,35 # 3023 <_test_table_size+0x3022>
    8000131a:	bf79                	j	800012b8 <expand_compressed_instruction+0x70>
    8000131c:	6509                	lui	a0,0x2
    8000131e:	4801                	li	a6,0
    80001320:	02350513          	add	a0,a0,35 # 2023 <_test_table_size+0x2022>
    80001324:	bfc9                	j	800012f6 <expand_compressed_instruction+0xae>

0000000080001326 <reset_state>:

extern void hshandler_entry();
extern void mhandler_entry();
extern void vshandler_entry();
    
void reset_state(){
    80001326:	1141                	add	sp,sp,-16

    goto_priv(PRIV_M);
    80001328:	4511                	li	a0,4
void reset_state(){
    8000132a:	e406                	sd	ra,8(sp)
    goto_priv(PRIV_M);
    8000132c:	fb2ff0ef          	jal	80000ade <goto_priv>
    CSRW(mstatus, 0ULL);
    80001330:	30005073          	csrw	mstatus,0
    //CSRW(mtvec, 0ULL);
    CSRW(medeleg, 0ULL);
    80001334:	30205073          	csrw	medeleg,0
    CSRW(mideleg, 0ULL);
    80001338:	30305073          	csrw	mideleg,0
    CSRW(mip, 0ULL);
    8000133c:	34405073          	csrw	mip,0
    CSRW(mie, 0ULL);
    80001340:	30405073          	csrw	mie,0
    //CSRW(mtime, 0ULL); 
    //CSRW(mtimecmp, 0ULL); 
    CSRW(mscratch, 0ULL);
    80001344:	34005073          	csrw	mscratch,0
    CSRW(mepc, 0ULL);
    80001348:	34105073          	csrw	mepc,0
    CSRW(mtval, 0ULL);
    8000134c:	34305073          	csrw	mtval,0
    CSRW(CSR_MTINST, 0ULL);
    80001350:	34a05073          	csrw	0x34a,0
    CSRW(CSR_MTVAL2, 0ULL);
    80001354:	34b05073          	csrw	0x34b,0
    //what about pmp register?
    CSRW(sstatus, 0ULL);
    80001358:	10005073          	csrw	sstatus,0
    //CSRW(stvec, 0ULL);
    CSRW(sip, 0ULL);
    8000135c:	14405073          	csrw	sip,0
    CSRW(sie, 0ULL);
    80001360:	10405073          	csrw	sie,0
    CSRW(sscratch, 0ULL);
    80001364:	14005073          	csrw	sscratch,0
    CSRW(sepc, 0ULL);
    80001368:	14105073          	csrw	sepc,0
    CSRW(scause, 0ULL);
    8000136c:	14205073          	csrw	scause,0
    CSRW(stval, 0ULL);
    80001370:	14305073          	csrw	stval,0
    CSRW(satp, 0ULL);
    80001374:	18005073          	csrw	satp,0
    CSRW(CSR_HSTATUS, 0ULL);
    80001378:	60005073          	csrw	hstatus,0
    CSRW(CSR_HIDELEG, 0ULL);
    8000137c:	60305073          	csrw	hideleg,0
    CSRW(CSR_HEDELEG, 0ULL);
    80001380:	60205073          	csrw	hedeleg,0
    CSRW(CSR_HVIP, 0ULL);
    80001384:	64505073          	csrw	hvip,0
    CSRW(CSR_HIP, 0ULL);
    80001388:	64405073          	csrw	hip,0
    CSRW(CSR_HIE, 0ULL);  
    8000138c:	60405073          	csrw	hie,0
    CSRW(CSR_HTVAL, 0ULL);
    80001390:	64305073          	csrw	htval,0
    CSRW(CSR_HTINST, 0ULL);
    80001394:	64a05073          	csrw	htinst,0
    CSRW(CSR_HGATP, 0ULL);
    80001398:	68005073          	csrw	hgatp,0
    CSRW(CSR_VSSTATUS, 0ULL);
    8000139c:	20005073          	csrw	vsstatus,0
    CSRW(CSR_VSIP, 0ULL);
    800013a0:	24405073          	csrw	vsip,0
    CSRW(CSR_VSIE, 0ULL);
    800013a4:	20405073          	csrw	vsie,0
    //CSRW(CSR_VSTVEC, 0ULL);
    CSRW(CSR_VSSCRATCH, 0ULL);
    800013a8:	24005073          	csrw	vsscratch,0
    CSRW(CSR_VSEPC, 0ULL);
    800013ac:	24105073          	csrw	vsepc,0
    CSRW(CSR_VSCAUSE, 0ULL);
    800013b0:	24205073          	csrw	vscause,0
    CSRW(CSR_VSTVAL, 0ULL);
    800013b4:	24305073          	csrw	vstval,0
    CSRW(CSR_VSATP, 0ULL);  
    800013b8:	28005073          	csrw	vsatp,0

    CSRW(mtvec, mhandler_entry);
    800013bc:	0001a797          	auipc	a5,0x1a
    800013c0:	25478793          	add	a5,a5,596 # 8001b610 <mhandler_entry>
    800013c4:	30579073          	csrw	mtvec,a5
    CSRS(medeleg, (1ULL << 8) | (1ULL << 10));
    800013c8:	50000793          	li	a5,1280
    800013cc:	3027a073          	csrs	medeleg,a5
    // full access to physical memory to other modes
    CSRW(pmpcfg0, 0xf);
    800013d0:	3a07d073          	csrw	pmpcfg0,15
    CSRW(pmpaddr0, (uint64_t) -1);
    800013d4:	57fd                	li	a5,-1
    800013d6:	3b079073          	csrw	pmpaddr0,a5

    CSRW(stvec, hshandler_entry);
    800013da:	0001a797          	auipc	a5,0x1a
    800013de:	27e78793          	add	a5,a5,638 # 8001b658 <hshandler_entry>
    800013e2:	10579073          	csrw	stvec,a5
    CSRS(CSR_HEDELEG, (1ULL << 8));
    800013e6:	10000793          	li	a5,256
    800013ea:	6027a073          	csrs	hedeleg,a5

    CSRW(CSR_VSTVEC, vshandler_entry);
    800013ee:	0001a797          	auipc	a5,0x1a
    800013f2:	2b278793          	add	a5,a5,690 # 8001b6a0 <vshandler_entry>
    800013f6:	20579073          	csrw	vstvec,a5
// }



static inline void sfence(){
    asm volatile ("sfence.vma \n\t");
    800013fa:	12000073          	sfence.vma
        ".insn r 0x73, 0x0, 0x31, x0, x0, x0\n\t"
        ::: "memory");
}

static inline void hfence_vvma() {
    asm volatile(
    800013fe:	22000073          	.4byte	0x22000073
    asm volatile(
    80001402:	62000073          	.4byte	0x62000073

    sfence();
    hfence();
}
    80001406:	60a2                	ld	ra,8(sp)
    80001408:	0141                	add	sp,sp,16
    8000140a:	8082                	ret

000000008000140c <check_xip_regs_1>:
#include <rvh_test.h>

bool check_xip_regs_1(){
    8000140c:	7179                	add	sp,sp,-48

    TEST_START();
    8000140e:	0001a597          	auipc	a1,0x1a
    80001412:	4ca58593          	add	a1,a1,1226 # 8001b8d8 <__func__.3>
    80001416:	0001c517          	auipc	a0,0x1c
    8000141a:	b6250513          	add	a0,a0,-1182 # 8001cf78 <__func__.1+0x2e8>
bool check_xip_regs_1(){
    8000141e:	f406                	sd	ra,40(sp)
    80001420:	f022                	sd	s0,32(sp)
    80001422:	ec26                	sd	s1,24(sp)
    80001424:	e84a                	sd	s2,16(sp)
    80001426:	e44e                	sd	s3,8(sp)
    TEST_START();
    80001428:	7a3190ef          	jal	8001b3ca <printf>
    8000142c:	4529                	li	a0,10
    8000142e:	66f180ef          	jal	8001a29c <putchar>

    CSRW(mideleg, 0);
    80001432:	30305073          	csrw	mideleg,0

    int64_t mtime_mask = ~((int64_t)0x80);

    CSRW(mideleg, (uint64_t)-1);
    80001436:	57fd                	li	a5,-1
    80001438:	30379073          	csrw	mideleg,a5
    VERBOSE("setting mideleg and hideleg\n");
    CSRW(CSR_HIDELEG, (uint64_t)-1);
    8000143c:	60379073          	csrw	hideleg,a5
    check_csr_wrrd("vsip", CSR_VSIP, (uint64_t) -1, 0x2);
    80001440:	244024f3          	csrr	s1,vsip
    80001444:	24479073          	csrw	vsip,a5
    80001448:	24402473          	csrr	s0,vsip
    8000144c:	0001c617          	auipc	a2,0x1c
    80001450:	ed460613          	add	a2,a2,-300 # 8001d320 <__func__.1+0x690>
    80001454:	08200593          	li	a1,130
    80001458:	0001c517          	auipc	a0,0x1c
    8000145c:	b3850513          	add	a0,a0,-1224 # 8001cf90 <__func__.1+0x300>
    80001460:	76b190ef          	jal	8001b3ca <printf>
    80001464:	4789                	li	a5,2
    80001466:	10f40e63          	beq	s0,a5,80001582 <check_xip_regs_1+0x176>
    8000146a:	0001c597          	auipc	a1,0x1c
    8000146e:	afe58593          	add	a1,a1,-1282 # 8001cf68 <__func__.1+0x2d8>
    80001472:	0001c517          	auipc	a0,0x1c
    80001476:	b3650513          	add	a0,a0,-1226 # 8001cfa8 <__func__.1+0x318>
    8000147a:	751190ef          	jal	8001b3ca <printf>
    8000147e:	0001c517          	auipc	a0,0x1c
    80001482:	b3250513          	add	a0,a0,-1230 # 8001cfb0 <__func__.1+0x320>
    80001486:	745190ef          	jal	8001b3ca <printf>
    8000148a:	4689                	li	a3,2
    8000148c:	8622                	mv	a2,s0
    8000148e:	55fd                	li	a1,-1
    80001490:	0001c517          	auipc	a0,0x1c
    80001494:	b2850513          	add	a0,a0,-1240 # 8001cfb8 <__func__.1+0x328>
    80001498:	733190ef          	jal	8001b3ca <printf>
    8000149c:	02900513          	li	a0,41
    800014a0:	5fd180ef          	jal	8001a29c <putchar>
    800014a4:	4529                	li	a0,10
    800014a6:	5f7180ef          	jal	8001a29c <putchar>
    800014aa:	4981                	li	s3,0
    800014ac:	24449073          	csrw	vsip,s1
    check_csr_wrrd("vsie", CSR_VSIE, (uint64_t) -1, 0x2222);        //Shlcofideleg 2222222
    800014b0:	20402973          	csrr	s2,vsie
    800014b4:	57fd                	li	a5,-1
    800014b6:	20479073          	csrw	vsie,a5
    800014ba:	204024f3          	csrr	s1,vsie
    800014be:	6409                	lui	s0,0x2
    800014c0:	0001c617          	auipc	a2,0x1c
    800014c4:	e6860613          	add	a2,a2,-408 # 8001d328 <__func__.1+0x698>
    800014c8:	08200593          	li	a1,130
    800014cc:	0001c517          	auipc	a0,0x1c
    800014d0:	ac450513          	add	a0,a0,-1340 # 8001cf90 <__func__.1+0x300>
    800014d4:	22240413          	add	s0,s0,546 # 2222 <_test_table_size+0x2221>
    800014d8:	6f3190ef          	jal	8001b3ca <printf>
    800014dc:	06848c63          	beq	s1,s0,80001554 <check_xip_regs_1+0x148>
    800014e0:	0001c597          	auipc	a1,0x1c
    800014e4:	a8858593          	add	a1,a1,-1400 # 8001cf68 <__func__.1+0x2d8>
    800014e8:	0001c517          	auipc	a0,0x1c
    800014ec:	ac050513          	add	a0,a0,-1344 # 8001cfa8 <__func__.1+0x318>
    800014f0:	6db190ef          	jal	8001b3ca <printf>
    800014f4:	0001c517          	auipc	a0,0x1c
    800014f8:	abc50513          	add	a0,a0,-1348 # 8001cfb0 <__func__.1+0x320>
    800014fc:	6cf190ef          	jal	8001b3ca <printf>
    80001500:	86a2                	mv	a3,s0
    80001502:	8626                	mv	a2,s1
    80001504:	55fd                	li	a1,-1
    80001506:	0001c517          	auipc	a0,0x1c
    8000150a:	ab250513          	add	a0,a0,-1358 # 8001cfb8 <__func__.1+0x328>
    8000150e:	6bd190ef          	jal	8001b3ca <printf>
    80001512:	02900513          	li	a0,41
    80001516:	587180ef          	jal	8001a29c <putchar>
    8000151a:	4529                	li	a0,10
    8000151c:	581180ef          	jal	8001a29c <putchar>
    80001520:	20491073          	csrw	vsie,s2
    80001524:	4401                	li	s0,0
    
    TEST_END();
    80001526:	0001c597          	auipc	a1,0x1c
    8000152a:	a4258593          	add	a1,a1,-1470 # 8001cf68 <__func__.1+0x2d8>
    8000152e:	0001c517          	auipc	a0,0x1c
    80001532:	ae250513          	add	a0,a0,-1310 # 8001d010 <__func__.1+0x380>
    80001536:	695190ef          	jal	8001b3ca <printf>
    8000153a:	4511                	li	a0,4
    8000153c:	da2ff0ef          	jal	80000ade <goto_priv>
    80001540:	de7ff0ef          	jal	80001326 <reset_state>
}
    80001544:	70a2                	ld	ra,40(sp)
    80001546:	8522                	mv	a0,s0
    80001548:	7402                	ld	s0,32(sp)
    8000154a:	64e2                	ld	s1,24(sp)
    8000154c:	6942                	ld	s2,16(sp)
    8000154e:	69a2                	ld	s3,8(sp)
    80001550:	6145                	add	sp,sp,48
    80001552:	8082                	ret
    check_csr_wrrd("vsie", CSR_VSIE, (uint64_t) -1, 0x2222);        //Shlcofideleg 2222222
    80001554:	0001c597          	auipc	a1,0x1c
    80001558:	a0458593          	add	a1,a1,-1532 # 8001cf58 <__func__.1+0x2c8>
    8000155c:	0001c517          	auipc	a0,0x1c
    80001560:	a4c50513          	add	a0,a0,-1460 # 8001cfa8 <__func__.1+0x318>
    80001564:	667190ef          	jal	8001b3ca <printf>
    80001568:	4529                	li	a0,10
    8000156a:	533180ef          	jal	8001a29c <putchar>
    8000156e:	fa0989e3          	beqz	s3,80001520 <check_xip_regs_1+0x114>
    80001572:	20491073          	csrw	vsie,s2
    80001576:	4405                	li	s0,1
    TEST_END();
    80001578:	0001c597          	auipc	a1,0x1c
    8000157c:	9e058593          	add	a1,a1,-1568 # 8001cf58 <__func__.1+0x2c8>
    80001580:	b77d                	j	8000152e <check_xip_regs_1+0x122>
    check_csr_wrrd("vsip", CSR_VSIP, (uint64_t) -1, 0x2);
    80001582:	0001c597          	auipc	a1,0x1c
    80001586:	9d658593          	add	a1,a1,-1578 # 8001cf58 <__func__.1+0x2c8>
    8000158a:	0001c517          	auipc	a0,0x1c
    8000158e:	a1e50513          	add	a0,a0,-1506 # 8001cfa8 <__func__.1+0x318>
    80001592:	639190ef          	jal	8001b3ca <printf>
    80001596:	4529                	li	a0,10
    80001598:	505180ef          	jal	8001a29c <putchar>
    8000159c:	4985                	li	s3,1
    8000159e:	b739                	j	800014ac <check_xip_regs_1+0xa0>

00000000800015a0 <check_xip_regs_2>:

bool check_xip_regs_2(){
    800015a0:	1101                	add	sp,sp,-32

    TEST_START();
    800015a2:	0001a597          	auipc	a1,0x1a
    800015a6:	34e58593          	add	a1,a1,846 # 8001b8f0 <__func__.2>
    800015aa:	0001c517          	auipc	a0,0x1c
    800015ae:	9ce50513          	add	a0,a0,-1586 # 8001cf78 <__func__.1+0x2e8>
bool check_xip_regs_2(){
    800015b2:	ec06                	sd	ra,24(sp)
    800015b4:	e822                	sd	s0,16(sp)
    800015b6:	e426                	sd	s1,8(sp)
    TEST_START();
    800015b8:	613190ef          	jal	8001b3ca <printf>
    800015bc:	4529                	li	a0,10
    800015be:	4df180ef          	jal	8001a29c <putchar>

    CSRW(CSR_MENVCFG,0);                    //menvcfg.mtce=0,mipstip1
    800015c2:	30a05073          	csrw	0x30a,0


    CSRW(mideleg, (uint64_t)-1);
    800015c6:	57fd                	li	a5,-1
    800015c8:	30379073          	csrw	mideleg,a5
    VERBOSE("setting mideleg and hideleg\n");
    
    CSRW(CSR_HIDELEG, (uint64_t)-1);
    800015cc:	60379073          	csrw	hideleg,a5

    VERBOSE("setting all in mip\n");
    CSRW(mip, (uint64_t)-1);
    800015d0:	34479073          	csrw	mip,a5
    check_csr_rd("hip", CSR_HIP, 0x4);
    800015d4:	64402473          	csrr	s0,hip
    800015d8:	0001c617          	auipc	a2,0x1c
    800015dc:	d5860613          	add	a2,a2,-680 # 8001d330 <__func__.1+0x6a0>
    800015e0:	08200593          	li	a1,130
    800015e4:	0001c517          	auipc	a0,0x1c
    800015e8:	9ac50513          	add	a0,a0,-1620 # 8001cf90 <__func__.1+0x300>
    800015ec:	5df190ef          	jal	8001b3ca <printf>
    800015f0:	4791                	li	a5,4
    800015f2:	46f40463          	beq	s0,a5,80001a5a <check_xip_regs_2+0x4ba>
    800015f6:	0001c597          	auipc	a1,0x1c
    800015fa:	97258593          	add	a1,a1,-1678 # 8001cf68 <__func__.1+0x2d8>
    800015fe:	0001c517          	auipc	a0,0x1c
    80001602:	9aa50513          	add	a0,a0,-1622 # 8001cfa8 <__func__.1+0x318>
    80001606:	5c5190ef          	jal	8001b3ca <printf>
    8000160a:	0001c517          	auipc	a0,0x1c
    8000160e:	9a650513          	add	a0,a0,-1626 # 8001cfb0 <__func__.1+0x320>
    80001612:	5b9190ef          	jal	8001b3ca <printf>
    80001616:	8622                	mv	a2,s0
    80001618:	4691                	li	a3,4
    8000161a:	02d00593          	li	a1,45
    8000161e:	0001c517          	auipc	a0,0x1c
    80001622:	d1a50513          	add	a0,a0,-742 # 8001d338 <__func__.1+0x6a8>
    80001626:	5a5190ef          	jal	8001b3ca <printf>
    8000162a:	02900513          	li	a0,41
    8000162e:	46f180ef          	jal	8001a29c <putchar>
    80001632:	4529                	li	a0,10
    80001634:	469180ef          	jal	8001a29c <putchar>
    80001638:	4401                	li	s0,0
    check_csr_rd("sip", sip, 0x222);    
    8000163a:	144024f3          	csrr	s1,sip
    8000163e:	0001c617          	auipc	a2,0x1c
    80001642:	d1260613          	add	a2,a2,-750 # 8001d350 <__func__.1+0x6c0>
    80001646:	08200593          	li	a1,130
    8000164a:	0001c517          	auipc	a0,0x1c
    8000164e:	94650513          	add	a0,a0,-1722 # 8001cf90 <__func__.1+0x300>
    80001652:	579190ef          	jal	8001b3ca <printf>
    80001656:	22200793          	li	a5,546
    8000165a:	3af48663          	beq	s1,a5,80001a06 <check_xip_regs_2+0x466>
    8000165e:	0001c597          	auipc	a1,0x1c
    80001662:	90a58593          	add	a1,a1,-1782 # 8001cf68 <__func__.1+0x2d8>
    80001666:	0001c517          	auipc	a0,0x1c
    8000166a:	94250513          	add	a0,a0,-1726 # 8001cfa8 <__func__.1+0x318>
    8000166e:	55d190ef          	jal	8001b3ca <printf>
    80001672:	0001c517          	auipc	a0,0x1c
    80001676:	93e50513          	add	a0,a0,-1730 # 8001cfb0 <__func__.1+0x320>
    8000167a:	551190ef          	jal	8001b3ca <printf>
    8000167e:	22200693          	li	a3,546
    80001682:	8626                	mv	a2,s1
    80001684:	02d00593          	li	a1,45
    80001688:	0001c517          	auipc	a0,0x1c
    8000168c:	cb050513          	add	a0,a0,-848 # 8001d338 <__func__.1+0x6a8>
    80001690:	53b190ef          	jal	8001b3ca <printf>
    80001694:	02900513          	li	a0,41
    80001698:	405180ef          	jal	8001a29c <putchar>
    8000169c:	4529                	li	a0,10
    8000169e:	3ff180ef          	jal	8001a29c <putchar>
    800016a2:	4401                	li	s0,0

    // check_csr_rd_mask("mip", mip, 0x226, mtime_mask); // only test when nemu don't use difftest because spike, as ref, shut up time interrupt
    check_csr_rd("vsip", CSR_VSIP, 0x2);
    800016a4:	244024f3          	csrr	s1,vsip
    800016a8:	0001c617          	auipc	a2,0x1c
    800016ac:	c7860613          	add	a2,a2,-904 # 8001d320 <__func__.1+0x690>
    800016b0:	08200593          	li	a1,130
    800016b4:	0001c517          	auipc	a0,0x1c
    800016b8:	8dc50513          	add	a0,a0,-1828 # 8001cf90 <__func__.1+0x300>
    800016bc:	50f190ef          	jal	8001b3ca <printf>
    800016c0:	4789                	li	a5,2
    800016c2:	36f48e63          	beq	s1,a5,80001a3e <check_xip_regs_2+0x49e>
    800016c6:	0001c597          	auipc	a1,0x1c
    800016ca:	8a258593          	add	a1,a1,-1886 # 8001cf68 <__func__.1+0x2d8>
    800016ce:	0001c517          	auipc	a0,0x1c
    800016d2:	8da50513          	add	a0,a0,-1830 # 8001cfa8 <__func__.1+0x318>
    800016d6:	4f5190ef          	jal	8001b3ca <printf>
    800016da:	0001c517          	auipc	a0,0x1c
    800016de:	8d650513          	add	a0,a0,-1834 # 8001cfb0 <__func__.1+0x320>
    800016e2:	4e9190ef          	jal	8001b3ca <printf>
    800016e6:	4689                	li	a3,2
    800016e8:	8626                	mv	a2,s1
    800016ea:	02d00593          	li	a1,45
    800016ee:	0001c517          	auipc	a0,0x1c
    800016f2:	c4a50513          	add	a0,a0,-950 # 8001d338 <__func__.1+0x6a8>
    800016f6:	4d5190ef          	jal	8001b3ca <printf>
    800016fa:	02900513          	li	a0,41
    800016fe:	39f180ef          	jal	8001a29c <putchar>
    80001702:	4529                	li	a0,10
    80001704:	399180ef          	jal	8001a29c <putchar>
    80001708:	4401                	li	s0,0
    goto_priv(PRIV_VS);
    8000170a:	4509                	li	a0,2
    8000170c:	bd2ff0ef          	jal	80000ade <goto_priv>
    check_csr_rd("sip (vs perspective)", sip, 0x2);
    80001710:	144024f3          	csrr	s1,sip
    80001714:	0001c617          	auipc	a2,0x1c
    80001718:	c4460613          	add	a2,a2,-956 # 8001d358 <__func__.1+0x6c8>
    8000171c:	08200593          	li	a1,130
    80001720:	0001c517          	auipc	a0,0x1c
    80001724:	87050513          	add	a0,a0,-1936 # 8001cf90 <__func__.1+0x300>
    80001728:	4a3190ef          	jal	8001b3ca <printf>
    8000172c:	4789                	li	a5,2
    8000172e:	2ef48a63          	beq	s1,a5,80001a22 <check_xip_regs_2+0x482>
    80001732:	0001c597          	auipc	a1,0x1c
    80001736:	83658593          	add	a1,a1,-1994 # 8001cf68 <__func__.1+0x2d8>
    8000173a:	0001c517          	auipc	a0,0x1c
    8000173e:	86e50513          	add	a0,a0,-1938 # 8001cfa8 <__func__.1+0x318>
    80001742:	489190ef          	jal	8001b3ca <printf>
    80001746:	0001c517          	auipc	a0,0x1c
    8000174a:	86a50513          	add	a0,a0,-1942 # 8001cfb0 <__func__.1+0x320>
    8000174e:	47d190ef          	jal	8001b3ca <printf>
    80001752:	4689                	li	a3,2
    80001754:	8626                	mv	a2,s1
    80001756:	02d00593          	li	a1,45
    8000175a:	0001c517          	auipc	a0,0x1c
    8000175e:	bde50513          	add	a0,a0,-1058 # 8001d338 <__func__.1+0x6a8>
    80001762:	469190ef          	jal	8001b3ca <printf>
    80001766:	02900513          	li	a0,41
    8000176a:	333180ef          	jal	8001a29c <putchar>
    8000176e:	4529                	li	a0,10
    80001770:	32d180ef          	jal	8001a29c <putchar>
    80001774:	4401                	li	s0,0
    goto_priv(PRIV_M);
    80001776:	4511                	li	a0,4
    80001778:	b66ff0ef          	jal	80000ade <goto_priv>

    VERBOSE("clearing all in mip\n");
    CSRW(mip, (uint64_t)0);
    8000177c:	34405073          	csrw	mip,0
    check_csr_rd("hip", CSR_HIP, 0x0);
    80001780:	644024f3          	csrr	s1,hip
    80001784:	0001c617          	auipc	a2,0x1c
    80001788:	bac60613          	add	a2,a2,-1108 # 8001d330 <__func__.1+0x6a0>
    8000178c:	08200593          	li	a1,130
    80001790:	0001c517          	auipc	a0,0x1c
    80001794:	80050513          	add	a0,a0,-2048 # 8001cf90 <__func__.1+0x300>
    80001798:	433190ef          	jal	8001b3ca <printf>
    8000179c:	1a048563          	beqz	s1,80001946 <check_xip_regs_2+0x3a6>
    800017a0:	0001b597          	auipc	a1,0x1b
    800017a4:	7c858593          	add	a1,a1,1992 # 8001cf68 <__func__.1+0x2d8>
    800017a8:	0001c517          	auipc	a0,0x1c
    800017ac:	80050513          	add	a0,a0,-2048 # 8001cfa8 <__func__.1+0x318>
    800017b0:	41b190ef          	jal	8001b3ca <printf>
    800017b4:	0001b517          	auipc	a0,0x1b
    800017b8:	7fc50513          	add	a0,a0,2044 # 8001cfb0 <__func__.1+0x320>
    800017bc:	40f190ef          	jal	8001b3ca <printf>
    800017c0:	4681                	li	a3,0
    800017c2:	8626                	mv	a2,s1
    800017c4:	02d00593          	li	a1,45
    800017c8:	0001c517          	auipc	a0,0x1c
    800017cc:	b7050513          	add	a0,a0,-1168 # 8001d338 <__func__.1+0x6a8>
    800017d0:	3fb190ef          	jal	8001b3ca <printf>
    800017d4:	02900513          	li	a0,41
    800017d8:	2c5180ef          	jal	8001a29c <putchar>
    800017dc:	4529                	li	a0,10
    800017de:	2bf180ef          	jal	8001a29c <putchar>
    800017e2:	4401                	li	s0,0
    check_csr_rd("sip", sip, 0x0);
    800017e4:	144024f3          	csrr	s1,sip
    800017e8:	0001c617          	auipc	a2,0x1c
    800017ec:	b6860613          	add	a2,a2,-1176 # 8001d350 <__func__.1+0x6c0>
    800017f0:	08200593          	li	a1,130
    800017f4:	0001b517          	auipc	a0,0x1b
    800017f8:	79c50513          	add	a0,a0,1948 # 8001cf90 <__func__.1+0x300>
    800017fc:	3cf190ef          	jal	8001b3ca <printf>
    80001800:	18048063          	beqz	s1,80001980 <check_xip_regs_2+0x3e0>
    80001804:	0001b597          	auipc	a1,0x1b
    80001808:	76458593          	add	a1,a1,1892 # 8001cf68 <__func__.1+0x2d8>
    8000180c:	0001b517          	auipc	a0,0x1b
    80001810:	79c50513          	add	a0,a0,1948 # 8001cfa8 <__func__.1+0x318>
    80001814:	3b7190ef          	jal	8001b3ca <printf>
    80001818:	0001b517          	auipc	a0,0x1b
    8000181c:	79850513          	add	a0,a0,1944 # 8001cfb0 <__func__.1+0x320>
    80001820:	3ab190ef          	jal	8001b3ca <printf>
    80001824:	4681                	li	a3,0
    80001826:	8626                	mv	a2,s1
    80001828:	02d00593          	li	a1,45
    8000182c:	0001c517          	auipc	a0,0x1c
    80001830:	b0c50513          	add	a0,a0,-1268 # 8001d338 <__func__.1+0x6a8>
    80001834:	397190ef          	jal	8001b3ca <printf>
    80001838:	02900513          	li	a0,41
    8000183c:	261180ef          	jal	8001a29c <putchar>
    80001840:	4529                	li	a0,10
    80001842:	25b180ef          	jal	8001a29c <putchar>
    80001846:	4401                	li	s0,0
    // check_csr_rd_mask("mip", mip, 0x000, mtime_mask);
    check_csr_rd("vsip", CSR_VSIP, 0x0);
    80001848:	244024f3          	csrr	s1,vsip
    8000184c:	0001c617          	auipc	a2,0x1c
    80001850:	ad460613          	add	a2,a2,-1324 # 8001d320 <__func__.1+0x690>
    80001854:	08200593          	li	a1,130
    80001858:	0001b517          	auipc	a0,0x1b
    8000185c:	73850513          	add	a0,a0,1848 # 8001cf90 <__func__.1+0x300>
    80001860:	36b190ef          	jal	8001b3ca <printf>
    80001864:	14048b63          	beqz	s1,800019ba <check_xip_regs_2+0x41a>
    80001868:	0001b597          	auipc	a1,0x1b
    8000186c:	70058593          	add	a1,a1,1792 # 8001cf68 <__func__.1+0x2d8>
    80001870:	0001b517          	auipc	a0,0x1b
    80001874:	73850513          	add	a0,a0,1848 # 8001cfa8 <__func__.1+0x318>
    80001878:	353190ef          	jal	8001b3ca <printf>
    8000187c:	0001b517          	auipc	a0,0x1b
    80001880:	73450513          	add	a0,a0,1844 # 8001cfb0 <__func__.1+0x320>
    80001884:	347190ef          	jal	8001b3ca <printf>
    80001888:	4681                	li	a3,0
    8000188a:	8626                	mv	a2,s1
    8000188c:	02d00593          	li	a1,45
    80001890:	0001c517          	auipc	a0,0x1c
    80001894:	aa850513          	add	a0,a0,-1368 # 8001d338 <__func__.1+0x6a8>
    80001898:	333190ef          	jal	8001b3ca <printf>
    8000189c:	02900513          	li	a0,41
    800018a0:	1fd180ef          	jal	8001a29c <putchar>
    800018a4:	4529                	li	a0,10
    800018a6:	1f7180ef          	jal	8001a29c <putchar>
    800018aa:	4401                	li	s0,0
    goto_priv(PRIV_VS);
    800018ac:	4509                	li	a0,2
    800018ae:	a30ff0ef          	jal	80000ade <goto_priv>
    check_csr_rd("sip (vs perspective)", sip, 0x0);
    800018b2:	144024f3          	csrr	s1,sip
    800018b6:	0001c617          	auipc	a2,0x1c
    800018ba:	aa260613          	add	a2,a2,-1374 # 8001d358 <__func__.1+0x6c8>
    800018be:	08200593          	li	a1,130
    800018c2:	0001b517          	auipc	a0,0x1b
    800018c6:	6ce50513          	add	a0,a0,1742 # 8001cf90 <__func__.1+0x300>
    800018ca:	301190ef          	jal	8001b3ca <printf>
    800018ce:	10048463          	beqz	s1,800019d6 <check_xip_regs_2+0x436>
    800018d2:	0001b597          	auipc	a1,0x1b
    800018d6:	69658593          	add	a1,a1,1686 # 8001cf68 <__func__.1+0x2d8>
    800018da:	0001b517          	auipc	a0,0x1b
    800018de:	6ce50513          	add	a0,a0,1742 # 8001cfa8 <__func__.1+0x318>
    800018e2:	2e9190ef          	jal	8001b3ca <printf>
    800018e6:	0001b517          	auipc	a0,0x1b
    800018ea:	6ca50513          	add	a0,a0,1738 # 8001cfb0 <__func__.1+0x320>
    800018ee:	2dd190ef          	jal	8001b3ca <printf>
    800018f2:	4681                	li	a3,0
    800018f4:	8626                	mv	a2,s1
    800018f6:	02d00593          	li	a1,45
    800018fa:	0001c517          	auipc	a0,0x1c
    800018fe:	a3e50513          	add	a0,a0,-1474 # 8001d338 <__func__.1+0x6a8>
    80001902:	2c9190ef          	jal	8001b3ca <printf>
    80001906:	02900513          	li	a0,41
    8000190a:	193180ef          	jal	8001a29c <putchar>
    8000190e:	4529                	li	a0,10
    80001910:	18d180ef          	jal	8001a29c <putchar>
    goto_priv(PRIV_M);   
    80001914:	4511                	li	a0,4
    80001916:	9c8ff0ef          	jal	80000ade <goto_priv>
    check_csr_rd("sip (vs perspective)", sip, 0x0);
    8000191a:	4401                	li	s0,0

    TEST_END();
    8000191c:	0001b597          	auipc	a1,0x1b
    80001920:	64c58593          	add	a1,a1,1612 # 8001cf68 <__func__.1+0x2d8>
    80001924:	0001b517          	auipc	a0,0x1b
    80001928:	6ec50513          	add	a0,a0,1772 # 8001d010 <__func__.1+0x380>
    8000192c:	29f190ef          	jal	8001b3ca <printf>
    80001930:	4511                	li	a0,4
    80001932:	9acff0ef          	jal	80000ade <goto_priv>
    80001936:	9f1ff0ef          	jal	80001326 <reset_state>
}
    8000193a:	60e2                	ld	ra,24(sp)
    8000193c:	8522                	mv	a0,s0
    8000193e:	6442                	ld	s0,16(sp)
    80001940:	64a2                	ld	s1,8(sp)
    80001942:	6105                	add	sp,sp,32
    80001944:	8082                	ret
    check_csr_rd("hip", CSR_HIP, 0x0);
    80001946:	0001b597          	auipc	a1,0x1b
    8000194a:	61258593          	add	a1,a1,1554 # 8001cf58 <__func__.1+0x2c8>
    8000194e:	0001b517          	auipc	a0,0x1b
    80001952:	65a50513          	add	a0,a0,1626 # 8001cfa8 <__func__.1+0x318>
    80001956:	275190ef          	jal	8001b3ca <printf>
    8000195a:	4529                	li	a0,10
    8000195c:	141180ef          	jal	8001a29c <putchar>
    check_csr_rd("sip", sip, 0x0);
    80001960:	144024f3          	csrr	s1,sip
    80001964:	0001c617          	auipc	a2,0x1c
    80001968:	9ec60613          	add	a2,a2,-1556 # 8001d350 <__func__.1+0x6c0>
    8000196c:	08200593          	li	a1,130
    80001970:	0001b517          	auipc	a0,0x1b
    80001974:	62050513          	add	a0,a0,1568 # 8001cf90 <__func__.1+0x300>
    80001978:	253190ef          	jal	8001b3ca <printf>
    8000197c:	e80494e3          	bnez	s1,80001804 <check_xip_regs_2+0x264>
    80001980:	0001b597          	auipc	a1,0x1b
    80001984:	5d858593          	add	a1,a1,1496 # 8001cf58 <__func__.1+0x2c8>
    80001988:	0001b517          	auipc	a0,0x1b
    8000198c:	62050513          	add	a0,a0,1568 # 8001cfa8 <__func__.1+0x318>
    80001990:	23b190ef          	jal	8001b3ca <printf>
    80001994:	4529                	li	a0,10
    80001996:	107180ef          	jal	8001a29c <putchar>
    check_csr_rd("vsip", CSR_VSIP, 0x0);
    8000199a:	244024f3          	csrr	s1,vsip
    8000199e:	0001c617          	auipc	a2,0x1c
    800019a2:	98260613          	add	a2,a2,-1662 # 8001d320 <__func__.1+0x690>
    800019a6:	08200593          	li	a1,130
    800019aa:	0001b517          	auipc	a0,0x1b
    800019ae:	5e650513          	add	a0,a0,1510 # 8001cf90 <__func__.1+0x300>
    800019b2:	219190ef          	jal	8001b3ca <printf>
    800019b6:	ea0499e3          	bnez	s1,80001868 <check_xip_regs_2+0x2c8>
    800019ba:	0001b597          	auipc	a1,0x1b
    800019be:	59e58593          	add	a1,a1,1438 # 8001cf58 <__func__.1+0x2c8>
    800019c2:	0001b517          	auipc	a0,0x1b
    800019c6:	5e650513          	add	a0,a0,1510 # 8001cfa8 <__func__.1+0x318>
    800019ca:	201190ef          	jal	8001b3ca <printf>
    800019ce:	4529                	li	a0,10
    800019d0:	0cd180ef          	jal	8001a29c <putchar>
    800019d4:	bde1                	j	800018ac <check_xip_regs_2+0x30c>
    check_csr_rd("sip (vs perspective)", sip, 0x0);
    800019d6:	0001b597          	auipc	a1,0x1b
    800019da:	58258593          	add	a1,a1,1410 # 8001cf58 <__func__.1+0x2c8>
    800019de:	0001b517          	auipc	a0,0x1b
    800019e2:	5ca50513          	add	a0,a0,1482 # 8001cfa8 <__func__.1+0x318>
    800019e6:	1e5190ef          	jal	8001b3ca <printf>
    800019ea:	4529                	li	a0,10
    800019ec:	0b1180ef          	jal	8001a29c <putchar>
    800019f0:	f20402e3          	beqz	s0,80001914 <check_xip_regs_2+0x374>
    goto_priv(PRIV_M);   
    800019f4:	4511                	li	a0,4
    800019f6:	8e8ff0ef          	jal	80000ade <goto_priv>
    check_csr_rd("sip (vs perspective)", sip, 0x0);
    800019fa:	4405                	li	s0,1
    TEST_END();
    800019fc:	0001b597          	auipc	a1,0x1b
    80001a00:	55c58593          	add	a1,a1,1372 # 8001cf58 <__func__.1+0x2c8>
    80001a04:	b705                	j	80001924 <check_xip_regs_2+0x384>
    check_csr_rd("sip", sip, 0x222);    
    80001a06:	0001b597          	auipc	a1,0x1b
    80001a0a:	55258593          	add	a1,a1,1362 # 8001cf58 <__func__.1+0x2c8>
    80001a0e:	0001b517          	auipc	a0,0x1b
    80001a12:	59a50513          	add	a0,a0,1434 # 8001cfa8 <__func__.1+0x318>
    80001a16:	1b5190ef          	jal	8001b3ca <printf>
    80001a1a:	4529                	li	a0,10
    80001a1c:	081180ef          	jal	8001a29c <putchar>
    80001a20:	b151                	j	800016a4 <check_xip_regs_2+0x104>
    check_csr_rd("sip (vs perspective)", sip, 0x2);
    80001a22:	0001b597          	auipc	a1,0x1b
    80001a26:	53658593          	add	a1,a1,1334 # 8001cf58 <__func__.1+0x2c8>
    80001a2a:	0001b517          	auipc	a0,0x1b
    80001a2e:	57e50513          	add	a0,a0,1406 # 8001cfa8 <__func__.1+0x318>
    80001a32:	199190ef          	jal	8001b3ca <printf>
    80001a36:	4529                	li	a0,10
    80001a38:	065180ef          	jal	8001a29c <putchar>
    80001a3c:	bb2d                	j	80001776 <check_xip_regs_2+0x1d6>
    check_csr_rd("vsip", CSR_VSIP, 0x2);
    80001a3e:	0001b597          	auipc	a1,0x1b
    80001a42:	51a58593          	add	a1,a1,1306 # 8001cf58 <__func__.1+0x2c8>
    80001a46:	0001b517          	auipc	a0,0x1b
    80001a4a:	56250513          	add	a0,a0,1378 # 8001cfa8 <__func__.1+0x318>
    80001a4e:	17d190ef          	jal	8001b3ca <printf>
    80001a52:	4529                	li	a0,10
    80001a54:	049180ef          	jal	8001a29c <putchar>
    80001a58:	b94d                	j	8000170a <check_xip_regs_2+0x16a>
    check_csr_rd("hip", CSR_HIP, 0x4);
    80001a5a:	0001b597          	auipc	a1,0x1b
    80001a5e:	4fe58593          	add	a1,a1,1278 # 8001cf58 <__func__.1+0x2c8>
    80001a62:	0001b517          	auipc	a0,0x1b
    80001a66:	54650513          	add	a0,a0,1350 # 8001cfa8 <__func__.1+0x318>
    80001a6a:	161190ef          	jal	8001b3ca <printf>
    80001a6e:	4529                	li	a0,10
    80001a70:	02d180ef          	jal	8001a29c <putchar>
    80001a74:	4405                	li	s0,1
    80001a76:	b6d1                	j	8000163a <check_xip_regs_2+0x9a>

0000000080001a78 <check_xip_regs_3>:

bool check_xip_regs_3(){
    80001a78:	1101                	add	sp,sp,-32

    TEST_START();
    80001a7a:	0001a597          	auipc	a1,0x1a
    80001a7e:	e8e58593          	add	a1,a1,-370 # 8001b908 <__func__.1>
    80001a82:	0001b517          	auipc	a0,0x1b
    80001a86:	4f650513          	add	a0,a0,1270 # 8001cf78 <__func__.1+0x2e8>
bool check_xip_regs_3(){
    80001a8a:	ec06                	sd	ra,24(sp)
    80001a8c:	e822                	sd	s0,16(sp)
    80001a8e:	e426                	sd	s1,8(sp)
    TEST_START();
    80001a90:	13b190ef          	jal	8001b3ca <printf>
    80001a94:	4529                	li	a0,10
    80001a96:	007180ef          	jal	8001a29c <putchar>

    CSRW(mideleg, (uint64_t)-1);
    80001a9a:	57fd                	li	a5,-1
    80001a9c:	30379073          	csrw	mideleg,a5
    VERBOSE("setting mideleg and hideleg\n");
    CSRW(CSR_HIDELEG, (uint64_t)-1);
    80001aa0:	60379073          	csrw	hideleg,a5

    VERBOSE("setting all in hvip\n");
    CSRW(CSR_HVIP, (uint64_t)-1);
    80001aa4:	64579073          	csrw	hvip,a5
    printf("hvip=%llx\n",CSRR(CSR_HVIP));
    80001aa8:	645025f3          	csrr	a1,hvip
    80001aac:	0001c517          	auipc	a0,0x1c
    80001ab0:	8c450513          	add	a0,a0,-1852 # 8001d370 <__func__.1+0x6e0>
    80001ab4:	117190ef          	jal	8001b3ca <printf>
    check_csr_rd("hvip", CSR_HVIP, 0xffffffffffffe444);
    80001ab8:	645024f3          	csrr	s1,hvip
    80001abc:	7479                	lui	s0,0xffffe
    80001abe:	0001c617          	auipc	a2,0x1c
    80001ac2:	8c260613          	add	a2,a2,-1854 # 8001d380 <__func__.1+0x6f0>
    80001ac6:	08200593          	li	a1,130
    80001aca:	0001b517          	auipc	a0,0x1b
    80001ace:	4c650513          	add	a0,a0,1222 # 8001cf90 <__func__.1+0x300>
    80001ad2:	44440413          	add	s0,s0,1092 # ffffffffffffe444 <__stack_top+0xffffffff7fcff444>
    80001ad6:	0f5190ef          	jal	8001b3ca <printf>
    80001ada:	4a848863          	beq	s1,s0,80001f8a <check_xip_regs_3+0x512>
    80001ade:	0001b597          	auipc	a1,0x1b
    80001ae2:	48a58593          	add	a1,a1,1162 # 8001cf68 <__func__.1+0x2d8>
    80001ae6:	0001b517          	auipc	a0,0x1b
    80001aea:	4c250513          	add	a0,a0,1218 # 8001cfa8 <__func__.1+0x318>
    80001aee:	0dd190ef          	jal	8001b3ca <printf>
    80001af2:	0001b517          	auipc	a0,0x1b
    80001af6:	4be50513          	add	a0,a0,1214 # 8001cfb0 <__func__.1+0x320>
    80001afa:	0d1190ef          	jal	8001b3ca <printf>
    80001afe:	86a2                	mv	a3,s0
    80001b00:	8626                	mv	a2,s1
    80001b02:	02d00593          	li	a1,45
    80001b06:	0001c517          	auipc	a0,0x1c
    80001b0a:	83250513          	add	a0,a0,-1998 # 8001d338 <__func__.1+0x6a8>
    80001b0e:	0bd190ef          	jal	8001b3ca <printf>
    80001b12:	02900513          	li	a0,41
    80001b16:	786180ef          	jal	8001a29c <putchar>
    80001b1a:	4529                	li	a0,10
    80001b1c:	780180ef          	jal	8001a29c <putchar>
    80001b20:	4401                	li	s0,0
    check_csr_rd("hip", CSR_HIP, 0x444);
    80001b22:	644024f3          	csrr	s1,hip
    80001b26:	0001c617          	auipc	a2,0x1c
    80001b2a:	80a60613          	add	a2,a2,-2038 # 8001d330 <__func__.1+0x6a0>
    80001b2e:	08200593          	li	a1,130
    80001b32:	0001b517          	auipc	a0,0x1b
    80001b36:	45e50513          	add	a0,a0,1118 # 8001cf90 <__func__.1+0x300>
    80001b3a:	091190ef          	jal	8001b3ca <printf>
    80001b3e:	44400793          	li	a5,1092
    80001b42:	3ef48a63          	beq	s1,a5,80001f36 <check_xip_regs_3+0x4be>
    80001b46:	0001b597          	auipc	a1,0x1b
    80001b4a:	42258593          	add	a1,a1,1058 # 8001cf68 <__func__.1+0x2d8>
    80001b4e:	0001b517          	auipc	a0,0x1b
    80001b52:	45a50513          	add	a0,a0,1114 # 8001cfa8 <__func__.1+0x318>
    80001b56:	075190ef          	jal	8001b3ca <printf>
    80001b5a:	0001b517          	auipc	a0,0x1b
    80001b5e:	45650513          	add	a0,a0,1110 # 8001cfb0 <__func__.1+0x320>
    80001b62:	069190ef          	jal	8001b3ca <printf>
    80001b66:	44400693          	li	a3,1092
    80001b6a:	8626                	mv	a2,s1
    80001b6c:	02d00593          	li	a1,45
    80001b70:	0001b517          	auipc	a0,0x1b
    80001b74:	7c850513          	add	a0,a0,1992 # 8001d338 <__func__.1+0x6a8>
    80001b78:	053190ef          	jal	8001b3ca <printf>
    80001b7c:	02900513          	li	a0,41
    80001b80:	71c180ef          	jal	8001a29c <putchar>
    80001b84:	4529                	li	a0,10
    80001b86:	716180ef          	jal	8001a29c <putchar>
    80001b8a:	4401                	li	s0,0
    check_csr_rd("sip", sip, 0x0);
    80001b8c:	144024f3          	csrr	s1,sip
    80001b90:	0001b617          	auipc	a2,0x1b
    80001b94:	7c060613          	add	a2,a2,1984 # 8001d350 <__func__.1+0x6c0>
    80001b98:	08200593          	li	a1,130
    80001b9c:	0001b517          	auipc	a0,0x1b
    80001ba0:	3f450513          	add	a0,a0,1012 # 8001cf90 <__func__.1+0x300>
    80001ba4:	027190ef          	jal	8001b3ca <printf>
    80001ba8:	2e048863          	beqz	s1,80001e98 <check_xip_regs_3+0x420>
    80001bac:	0001b597          	auipc	a1,0x1b
    80001bb0:	3bc58593          	add	a1,a1,956 # 8001cf68 <__func__.1+0x2d8>
    80001bb4:	0001b517          	auipc	a0,0x1b
    80001bb8:	3f450513          	add	a0,a0,1012 # 8001cfa8 <__func__.1+0x318>
    80001bbc:	00f190ef          	jal	8001b3ca <printf>
    80001bc0:	0001b517          	auipc	a0,0x1b
    80001bc4:	3f050513          	add	a0,a0,1008 # 8001cfb0 <__func__.1+0x320>
    80001bc8:	003190ef          	jal	8001b3ca <printf>
    80001bcc:	4681                	li	a3,0
    80001bce:	8626                	mv	a2,s1
    80001bd0:	02d00593          	li	a1,45
    80001bd4:	0001b517          	auipc	a0,0x1b
    80001bd8:	76450513          	add	a0,a0,1892 # 8001d338 <__func__.1+0x6a8>
    80001bdc:	7ee190ef          	jal	8001b3ca <printf>
    80001be0:	02900513          	li	a0,41
    80001be4:	6b8180ef          	jal	8001a29c <putchar>
    80001be8:	4529                	li	a0,10
    80001bea:	6b2180ef          	jal	8001a29c <putchar>
    80001bee:	4401                	li	s0,0
    // check_csr_rd_mask("mip", mip, 0x444, mtime_mask);
    check_csr_rd("vsip", CSR_VSIP, 0x222);
    80001bf0:	244024f3          	csrr	s1,vsip
    80001bf4:	0001b617          	auipc	a2,0x1b
    80001bf8:	72c60613          	add	a2,a2,1836 # 8001d320 <__func__.1+0x690>
    80001bfc:	08200593          	li	a1,130
    80001c00:	0001b517          	auipc	a0,0x1b
    80001c04:	39050513          	add	a0,a0,912 # 8001cf90 <__func__.1+0x300>
    80001c08:	7c2190ef          	jal	8001b3ca <printf>
    80001c0c:	22200793          	li	a5,546
    80001c10:	34f48f63          	beq	s1,a5,80001f6e <check_xip_regs_3+0x4f6>
    80001c14:	0001b597          	auipc	a1,0x1b
    80001c18:	35458593          	add	a1,a1,852 # 8001cf68 <__func__.1+0x2d8>
    80001c1c:	0001b517          	auipc	a0,0x1b
    80001c20:	38c50513          	add	a0,a0,908 # 8001cfa8 <__func__.1+0x318>
    80001c24:	7a6190ef          	jal	8001b3ca <printf>
    80001c28:	0001b517          	auipc	a0,0x1b
    80001c2c:	38850513          	add	a0,a0,904 # 8001cfb0 <__func__.1+0x320>
    80001c30:	79a190ef          	jal	8001b3ca <printf>
    80001c34:	22200693          	li	a3,546
    80001c38:	8626                	mv	a2,s1
    80001c3a:	02d00593          	li	a1,45
    80001c3e:	0001b517          	auipc	a0,0x1b
    80001c42:	6fa50513          	add	a0,a0,1786 # 8001d338 <__func__.1+0x6a8>
    80001c46:	784190ef          	jal	8001b3ca <printf>
    80001c4a:	02900513          	li	a0,41
    80001c4e:	64e180ef          	jal	8001a29c <putchar>
    80001c52:	4529                	li	a0,10
    80001c54:	648180ef          	jal	8001a29c <putchar>
    80001c58:	4401                	li	s0,0
    goto_priv(PRIV_VS);
    80001c5a:	4509                	li	a0,2
    80001c5c:	e83fe0ef          	jal	80000ade <goto_priv>
    check_csr_rd("sip (vs perspective)", sip, 0x222);
    80001c60:	144024f3          	csrr	s1,sip
    80001c64:	0001b617          	auipc	a2,0x1b
    80001c68:	6f460613          	add	a2,a2,1780 # 8001d358 <__func__.1+0x6c8>
    80001c6c:	08200593          	li	a1,130
    80001c70:	0001b517          	auipc	a0,0x1b
    80001c74:	32050513          	add	a0,a0,800 # 8001cf90 <__func__.1+0x300>
    80001c78:	752190ef          	jal	8001b3ca <printf>
    80001c7c:	22200793          	li	a5,546
    80001c80:	2cf48963          	beq	s1,a5,80001f52 <check_xip_regs_3+0x4da>
    80001c84:	0001b597          	auipc	a1,0x1b
    80001c88:	2e458593          	add	a1,a1,740 # 8001cf68 <__func__.1+0x2d8>
    80001c8c:	0001b517          	auipc	a0,0x1b
    80001c90:	31c50513          	add	a0,a0,796 # 8001cfa8 <__func__.1+0x318>
    80001c94:	736190ef          	jal	8001b3ca <printf>
    80001c98:	0001b517          	auipc	a0,0x1b
    80001c9c:	31850513          	add	a0,a0,792 # 8001cfb0 <__func__.1+0x320>
    80001ca0:	72a190ef          	jal	8001b3ca <printf>
    80001ca4:	22200693          	li	a3,546
    80001ca8:	8626                	mv	a2,s1
    80001caa:	02d00593          	li	a1,45
    80001cae:	0001b517          	auipc	a0,0x1b
    80001cb2:	68a50513          	add	a0,a0,1674 # 8001d338 <__func__.1+0x6a8>
    80001cb6:	714190ef          	jal	8001b3ca <printf>
    80001cba:	02900513          	li	a0,41
    80001cbe:	5de180ef          	jal	8001a29c <putchar>
    80001cc2:	4529                	li	a0,10
    80001cc4:	5d8180ef          	jal	8001a29c <putchar>
    80001cc8:	4401                	li	s0,0
    goto_priv(PRIV_M);
    80001cca:	4511                	li	a0,4
    80001ccc:	e13fe0ef          	jal	80000ade <goto_priv>

    VERBOSE("clearing all in hvip\n");
    CSRW(CSR_HVIP, (uint64_t)0);
    80001cd0:	64505073          	csrw	hvip,0
    check_csr_rd("hip", CSR_HIP, 0x0);
    80001cd4:	644024f3          	csrr	s1,hip
    80001cd8:	0001b617          	auipc	a2,0x1b
    80001cdc:	65860613          	add	a2,a2,1624 # 8001d330 <__func__.1+0x6a0>
    80001ce0:	08200593          	li	a1,130
    80001ce4:	0001b517          	auipc	a0,0x1b
    80001ce8:	2ac50513          	add	a0,a0,684 # 8001cf90 <__func__.1+0x300>
    80001cec:	6de190ef          	jal	8001b3ca <printf>
    80001cf0:	22048563          	beqz	s1,80001f1a <check_xip_regs_3+0x4a2>
    80001cf4:	0001b597          	auipc	a1,0x1b
    80001cf8:	27458593          	add	a1,a1,628 # 8001cf68 <__func__.1+0x2d8>
    80001cfc:	0001b517          	auipc	a0,0x1b
    80001d00:	2ac50513          	add	a0,a0,684 # 8001cfa8 <__func__.1+0x318>
    80001d04:	6c6190ef          	jal	8001b3ca <printf>
    80001d08:	0001b517          	auipc	a0,0x1b
    80001d0c:	2a850513          	add	a0,a0,680 # 8001cfb0 <__func__.1+0x320>
    80001d10:	6ba190ef          	jal	8001b3ca <printf>
    80001d14:	4681                	li	a3,0
    80001d16:	8626                	mv	a2,s1
    80001d18:	02d00593          	li	a1,45
    80001d1c:	0001b517          	auipc	a0,0x1b
    80001d20:	61c50513          	add	a0,a0,1564 # 8001d338 <__func__.1+0x6a8>
    80001d24:	6a6190ef          	jal	8001b3ca <printf>
    80001d28:	02900513          	li	a0,41
    80001d2c:	570180ef          	jal	8001a29c <putchar>
    80001d30:	4529                	li	a0,10
    80001d32:	56a180ef          	jal	8001a29c <putchar>
    80001d36:	4401                	li	s0,0
    check_csr_rd("sip", sip, 0x0);
    80001d38:	144024f3          	csrr	s1,sip
    80001d3c:	0001b617          	auipc	a2,0x1b
    80001d40:	61460613          	add	a2,a2,1556 # 8001d350 <__func__.1+0x6c0>
    80001d44:	08200593          	li	a1,130
    80001d48:	0001b517          	auipc	a0,0x1b
    80001d4c:	24850513          	add	a0,a0,584 # 8001cf90 <__func__.1+0x300>
    80001d50:	67a190ef          	jal	8001b3ca <printf>
    80001d54:	1a048563          	beqz	s1,80001efe <check_xip_regs_3+0x486>
    80001d58:	0001b597          	auipc	a1,0x1b
    80001d5c:	21058593          	add	a1,a1,528 # 8001cf68 <__func__.1+0x2d8>
    80001d60:	0001b517          	auipc	a0,0x1b
    80001d64:	24850513          	add	a0,a0,584 # 8001cfa8 <__func__.1+0x318>
    80001d68:	662190ef          	jal	8001b3ca <printf>
    80001d6c:	0001b517          	auipc	a0,0x1b
    80001d70:	24450513          	add	a0,a0,580 # 8001cfb0 <__func__.1+0x320>
    80001d74:	656190ef          	jal	8001b3ca <printf>
    80001d78:	4681                	li	a3,0
    80001d7a:	8626                	mv	a2,s1
    80001d7c:	02d00593          	li	a1,45
    80001d80:	0001b517          	auipc	a0,0x1b
    80001d84:	5b850513          	add	a0,a0,1464 # 8001d338 <__func__.1+0x6a8>
    80001d88:	642190ef          	jal	8001b3ca <printf>
    80001d8c:	02900513          	li	a0,41
    80001d90:	50c180ef          	jal	8001a29c <putchar>
    80001d94:	4529                	li	a0,10
    80001d96:	506180ef          	jal	8001a29c <putchar>
    80001d9a:	4401                	li	s0,0
    // check_csr_rd_mask("mip", mip, 0x000, mtime_mask);
    check_csr_rd("vsip", CSR_VSIP, 0x0);
    80001d9c:	244024f3          	csrr	s1,vsip
    80001da0:	0001b617          	auipc	a2,0x1b
    80001da4:	58060613          	add	a2,a2,1408 # 8001d320 <__func__.1+0x690>
    80001da8:	08200593          	li	a1,130
    80001dac:	0001b517          	auipc	a0,0x1b
    80001db0:	1e450513          	add	a0,a0,484 # 8001cf90 <__func__.1+0x300>
    80001db4:	616190ef          	jal	8001b3ca <printf>
    80001db8:	12048563          	beqz	s1,80001ee2 <check_xip_regs_3+0x46a>
    80001dbc:	0001b597          	auipc	a1,0x1b
    80001dc0:	1ac58593          	add	a1,a1,428 # 8001cf68 <__func__.1+0x2d8>
    80001dc4:	0001b517          	auipc	a0,0x1b
    80001dc8:	1e450513          	add	a0,a0,484 # 8001cfa8 <__func__.1+0x318>
    80001dcc:	5fe190ef          	jal	8001b3ca <printf>
    80001dd0:	0001b517          	auipc	a0,0x1b
    80001dd4:	1e050513          	add	a0,a0,480 # 8001cfb0 <__func__.1+0x320>
    80001dd8:	5f2190ef          	jal	8001b3ca <printf>
    80001ddc:	4681                	li	a3,0
    80001dde:	8626                	mv	a2,s1
    80001de0:	02d00593          	li	a1,45
    80001de4:	0001b517          	auipc	a0,0x1b
    80001de8:	55450513          	add	a0,a0,1364 # 8001d338 <__func__.1+0x6a8>
    80001dec:	5de190ef          	jal	8001b3ca <printf>
    80001df0:	02900513          	li	a0,41
    80001df4:	4a8180ef          	jal	8001a29c <putchar>
    80001df8:	4529                	li	a0,10
    80001dfa:	4a2180ef          	jal	8001a29c <putchar>
    80001dfe:	4401                	li	s0,0
    goto_priv(PRIV_VS);
    80001e00:	4509                	li	a0,2
    80001e02:	cddfe0ef          	jal	80000ade <goto_priv>
    check_csr_rd("sip (vs perspective)", sip, 0x0);
    80001e06:	144024f3          	csrr	s1,sip
    80001e0a:	0001b617          	auipc	a2,0x1b
    80001e0e:	54e60613          	add	a2,a2,1358 # 8001d358 <__func__.1+0x6c8>
    80001e12:	08200593          	li	a1,130
    80001e16:	0001b517          	auipc	a0,0x1b
    80001e1a:	17a50513          	add	a0,a0,378 # 8001cf90 <__func__.1+0x300>
    80001e1e:	5ac190ef          	jal	8001b3ca <printf>
    80001e22:	c8c9                	beqz	s1,80001eb4 <check_xip_regs_3+0x43c>
    80001e24:	0001b597          	auipc	a1,0x1b
    80001e28:	14458593          	add	a1,a1,324 # 8001cf68 <__func__.1+0x2d8>
    80001e2c:	0001b517          	auipc	a0,0x1b
    80001e30:	17c50513          	add	a0,a0,380 # 8001cfa8 <__func__.1+0x318>
    80001e34:	596190ef          	jal	8001b3ca <printf>
    80001e38:	0001b517          	auipc	a0,0x1b
    80001e3c:	17850513          	add	a0,a0,376 # 8001cfb0 <__func__.1+0x320>
    80001e40:	58a190ef          	jal	8001b3ca <printf>
    80001e44:	4681                	li	a3,0
    80001e46:	8626                	mv	a2,s1
    80001e48:	02d00593          	li	a1,45
    80001e4c:	0001b517          	auipc	a0,0x1b
    80001e50:	4ec50513          	add	a0,a0,1260 # 8001d338 <__func__.1+0x6a8>
    80001e54:	576190ef          	jal	8001b3ca <printf>
    80001e58:	02900513          	li	a0,41
    80001e5c:	440180ef          	jal	8001a29c <putchar>
    80001e60:	4529                	li	a0,10
    80001e62:	43a180ef          	jal	8001a29c <putchar>
    goto_priv(PRIV_M);
    80001e66:	4511                	li	a0,4
    80001e68:	c77fe0ef          	jal	80000ade <goto_priv>
    check_csr_rd("sip (vs perspective)", sip, 0x0);
    80001e6c:	4401                	li	s0,0

    TEST_END();
    80001e6e:	0001b597          	auipc	a1,0x1b
    80001e72:	0fa58593          	add	a1,a1,250 # 8001cf68 <__func__.1+0x2d8>
    80001e76:	0001b517          	auipc	a0,0x1b
    80001e7a:	19a50513          	add	a0,a0,410 # 8001d010 <__func__.1+0x380>
    80001e7e:	54c190ef          	jal	8001b3ca <printf>
    80001e82:	4511                	li	a0,4
    80001e84:	c5bfe0ef          	jal	80000ade <goto_priv>
    80001e88:	c9eff0ef          	jal	80001326 <reset_state>
}
    80001e8c:	60e2                	ld	ra,24(sp)
    80001e8e:	8522                	mv	a0,s0
    80001e90:	6442                	ld	s0,16(sp)
    80001e92:	64a2                	ld	s1,8(sp)
    80001e94:	6105                	add	sp,sp,32
    80001e96:	8082                	ret
    check_csr_rd("sip", sip, 0x0);
    80001e98:	0001b597          	auipc	a1,0x1b
    80001e9c:	0c058593          	add	a1,a1,192 # 8001cf58 <__func__.1+0x2c8>
    80001ea0:	0001b517          	auipc	a0,0x1b
    80001ea4:	10850513          	add	a0,a0,264 # 8001cfa8 <__func__.1+0x318>
    80001ea8:	522190ef          	jal	8001b3ca <printf>
    80001eac:	4529                	li	a0,10
    80001eae:	3ee180ef          	jal	8001a29c <putchar>
    80001eb2:	bb3d                	j	80001bf0 <check_xip_regs_3+0x178>
    check_csr_rd("sip (vs perspective)", sip, 0x0);
    80001eb4:	0001b597          	auipc	a1,0x1b
    80001eb8:	0a458593          	add	a1,a1,164 # 8001cf58 <__func__.1+0x2c8>
    80001ebc:	0001b517          	auipc	a0,0x1b
    80001ec0:	0ec50513          	add	a0,a0,236 # 8001cfa8 <__func__.1+0x318>
    80001ec4:	506190ef          	jal	8001b3ca <printf>
    80001ec8:	4529                	li	a0,10
    80001eca:	3d2180ef          	jal	8001a29c <putchar>
    80001ece:	dc41                	beqz	s0,80001e66 <check_xip_regs_3+0x3ee>
    goto_priv(PRIV_M);
    80001ed0:	4511                	li	a0,4
    80001ed2:	c0dfe0ef          	jal	80000ade <goto_priv>
    check_csr_rd("sip (vs perspective)", sip, 0x0);
    80001ed6:	4405                	li	s0,1
    TEST_END();
    80001ed8:	0001b597          	auipc	a1,0x1b
    80001edc:	08058593          	add	a1,a1,128 # 8001cf58 <__func__.1+0x2c8>
    80001ee0:	bf59                	j	80001e76 <check_xip_regs_3+0x3fe>
    check_csr_rd("vsip", CSR_VSIP, 0x0);
    80001ee2:	0001b597          	auipc	a1,0x1b
    80001ee6:	07658593          	add	a1,a1,118 # 8001cf58 <__func__.1+0x2c8>
    80001eea:	0001b517          	auipc	a0,0x1b
    80001eee:	0be50513          	add	a0,a0,190 # 8001cfa8 <__func__.1+0x318>
    80001ef2:	4d8190ef          	jal	8001b3ca <printf>
    80001ef6:	4529                	li	a0,10
    80001ef8:	3a4180ef          	jal	8001a29c <putchar>
    80001efc:	b711                	j	80001e00 <check_xip_regs_3+0x388>
    check_csr_rd("sip", sip, 0x0);
    80001efe:	0001b597          	auipc	a1,0x1b
    80001f02:	05a58593          	add	a1,a1,90 # 8001cf58 <__func__.1+0x2c8>
    80001f06:	0001b517          	auipc	a0,0x1b
    80001f0a:	0a250513          	add	a0,a0,162 # 8001cfa8 <__func__.1+0x318>
    80001f0e:	4bc190ef          	jal	8001b3ca <printf>
    80001f12:	4529                	li	a0,10
    80001f14:	388180ef          	jal	8001a29c <putchar>
    80001f18:	b551                	j	80001d9c <check_xip_regs_3+0x324>
    check_csr_rd("hip", CSR_HIP, 0x0);
    80001f1a:	0001b597          	auipc	a1,0x1b
    80001f1e:	03e58593          	add	a1,a1,62 # 8001cf58 <__func__.1+0x2c8>
    80001f22:	0001b517          	auipc	a0,0x1b
    80001f26:	08650513          	add	a0,a0,134 # 8001cfa8 <__func__.1+0x318>
    80001f2a:	4a0190ef          	jal	8001b3ca <printf>
    80001f2e:	4529                	li	a0,10
    80001f30:	36c180ef          	jal	8001a29c <putchar>
    80001f34:	b511                	j	80001d38 <check_xip_regs_3+0x2c0>
    check_csr_rd("hip", CSR_HIP, 0x444);
    80001f36:	0001b597          	auipc	a1,0x1b
    80001f3a:	02258593          	add	a1,a1,34 # 8001cf58 <__func__.1+0x2c8>
    80001f3e:	0001b517          	auipc	a0,0x1b
    80001f42:	06a50513          	add	a0,a0,106 # 8001cfa8 <__func__.1+0x318>
    80001f46:	484190ef          	jal	8001b3ca <printf>
    80001f4a:	4529                	li	a0,10
    80001f4c:	350180ef          	jal	8001a29c <putchar>
    80001f50:	b935                	j	80001b8c <check_xip_regs_3+0x114>
    check_csr_rd("sip (vs perspective)", sip, 0x222);
    80001f52:	0001b597          	auipc	a1,0x1b
    80001f56:	00658593          	add	a1,a1,6 # 8001cf58 <__func__.1+0x2c8>
    80001f5a:	0001b517          	auipc	a0,0x1b
    80001f5e:	04e50513          	add	a0,a0,78 # 8001cfa8 <__func__.1+0x318>
    80001f62:	468190ef          	jal	8001b3ca <printf>
    80001f66:	4529                	li	a0,10
    80001f68:	334180ef          	jal	8001a29c <putchar>
    80001f6c:	bbb9                	j	80001cca <check_xip_regs_3+0x252>
    check_csr_rd("vsip", CSR_VSIP, 0x222);
    80001f6e:	0001b597          	auipc	a1,0x1b
    80001f72:	fea58593          	add	a1,a1,-22 # 8001cf58 <__func__.1+0x2c8>
    80001f76:	0001b517          	auipc	a0,0x1b
    80001f7a:	03250513          	add	a0,a0,50 # 8001cfa8 <__func__.1+0x318>
    80001f7e:	44c190ef          	jal	8001b3ca <printf>
    80001f82:	4529                	li	a0,10
    80001f84:	318180ef          	jal	8001a29c <putchar>
    80001f88:	b9c9                	j	80001c5a <check_xip_regs_3+0x1e2>
    check_csr_rd("hvip", CSR_HVIP, 0xffffffffffffe444);
    80001f8a:	0001b597          	auipc	a1,0x1b
    80001f8e:	fce58593          	add	a1,a1,-50 # 8001cf58 <__func__.1+0x2c8>
    80001f92:	0001b517          	auipc	a0,0x1b
    80001f96:	01650513          	add	a0,a0,22 # 8001cfa8 <__func__.1+0x318>
    80001f9a:	430190ef          	jal	8001b3ca <printf>
    80001f9e:	4529                	li	a0,10
    80001fa0:	2fc180ef          	jal	8001a29c <putchar>
    80001fa4:	4405                	li	s0,1
    80001fa6:	beb5                	j	80001b22 <check_xip_regs_3+0xaa>

0000000080001fa8 <interrupt_tests>:

bool interrupt_tests(){
    80001fa8:	1101                	add	sp,sp,-32

    TEST_START();
    80001faa:	0001a597          	auipc	a1,0x1a
    80001fae:	97658593          	add	a1,a1,-1674 # 8001b920 <__func__.0>
    80001fb2:	0001b517          	auipc	a0,0x1b
    80001fb6:	fc650513          	add	a0,a0,-58 # 8001cf78 <__func__.1+0x2e8>
bool interrupt_tests(){
    80001fba:	ec06                	sd	ra,24(sp)
    80001fbc:	e822                	sd	s0,16(sp)
    80001fbe:	e426                	sd	s1,8(sp)
    TEST_START();
    80001fc0:	40a190ef          	jal	8001b3ca <printf>
    80001fc4:	4529                	li	a0,10
    80001fc6:	2d6180ef          	jal	8001a29c <putchar>
    /**
     * Test trigerring VSSI without delegating it. 
     * It assumes it is already delegated in miedeleg (it should be hardwired)
     */
    
    goto_priv(PRIV_HS);
    80001fca:	450d                	li	a0,3
    80001fcc:	b13fe0ef          	jal	80000ade <goto_priv>
    CSRC(sstatus, SSTATUS_SPIE_BIT | SSTATUS_SIE_BIT); 
    80001fd0:	02200793          	li	a5,34
    80001fd4:	1007b073          	csrc	sstatus,a5
    CSRS(CSR_HIE, 0x4);
    80001fd8:	60426073          	csrs	hie,4
    CSRS(CSR_HIP, 0x4);
    80001fdc:	64426073          	csrs	hip,4
    TEST_SETUP_EXCEPT();
    80001fe0:	0ff0000f          	fence
    80001fe4:	4785                	li	a5,1
    80001fe6:	0003b417          	auipc	s0,0x3b
    80001fea:	02a40413          	add	s0,s0,42 # 8003d010 <excpt>
    80001fee:	00f41023          	sh	a5,0(s0)
    80001ff2:	0003b797          	auipc	a5,0x3b
    80001ff6:	0407bb23          	sd	zero,86(a5) # 8003d048 <excpt+0x38>
    80001ffa:	0ff0000f          	fence
    goto_priv(PRIV_VS);
    80001ffe:	4509                	li	a0,2
    80002000:	adffe0ef          	jal	80000ade <goto_priv>
    //CSRS(sstatus, SSTATUS_SIE_BIT);
    TEST_ASSERT("vs sw irq with no delegation", 
    80002004:	08200593          	li	a1,130
    80002008:	0001b617          	auipc	a2,0x1b
    8000200c:	38060613          	add	a2,a2,896 # 8001d388 <__func__.1+0x6f8>
    80002010:	0001b517          	auipc	a0,0x1b
    80002014:	f8050513          	add	a0,a0,-128 # 8001cf90 <__func__.1+0x300>
    80002018:	3b2190ef          	jal	8001b3ca <printf>
    8000201c:	00144783          	lbu	a5,1(s0)
    80002020:	0001b597          	auipc	a1,0x1b
    80002024:	f4858593          	add	a1,a1,-184 # 8001cf68 <__func__.1+0x2d8>
    80002028:	c799                	beqz	a5,80002036 <interrupt_tests+0x8e>
    8000202a:	57fd                	li	a5,-1
    8000202c:	6418                	ld	a4,8(s0)
    8000202e:	17fe                	sll	a5,a5,0x3f
    80002030:	0789                	add	a5,a5,2
    80002032:	14f70663          	beq	a4,a5,8000217e <interrupt_tests+0x1d6>
    80002036:	0001b517          	auipc	a0,0x1b
    8000203a:	f7250513          	add	a0,a0,-142 # 8001cfa8 <__func__.1+0x318>
    8000203e:	38c190ef          	jal	8001b3ca <printf>
    80002042:	00144783          	lbu	a5,1(s0)
    80002046:	c799                	beqz	a5,80002054 <interrupt_tests+0xac>
    80002048:	57fd                	li	a5,-1
    8000204a:	6418                	ld	a4,8(s0)
    8000204c:	17fe                	sll	a5,a5,0x3f
    8000204e:	0789                	add	a5,a5,2
    80002050:	12f70263          	beq	a4,a5,80002174 <interrupt_tests+0x1cc>
    80002054:	0001b517          	auipc	a0,0x1b
    80002058:	f5c50513          	add	a0,a0,-164 # 8001cfb0 <__func__.1+0x320>
    8000205c:	36e190ef          	jal	8001b3ca <printf>
    80002060:	02900513          	li	a0,41
    80002064:	238180ef          	jal	8001a29c <putchar>
    80002068:	4529                	li	a0,10
    8000206a:	232180ef          	jal	8001a29c <putchar>
    8000206e:	00144783          	lbu	a5,1(s0)
    80002072:	4481                	li	s1,0
    80002074:	c799                	beqz	a5,80002082 <interrupt_tests+0xda>
    80002076:	57fd                	li	a5,-1
    80002078:	6418                	ld	a4,8(s0)
    8000207a:	17fe                	sll	a5,a5,0x3f
    8000207c:	0789                	add	a5,a5,2
    8000207e:	10f70963          	beq	a4,a5,80002190 <interrupt_tests+0x1e8>
   
    /**
     * Test trigerring VSSI and delegating it. Should trap to VS with cause SSI.
     * It assumes it is already delegated in miedeleg (it should be hardwired)
     */
    goto_priv(PRIV_HS);
    80002082:	450d                	li	a0,3
    80002084:	a5bfe0ef          	jal	80000ade <goto_priv>
    CSRS(CSR_HIDELEG, 0x4);
    80002088:	60326073          	csrs	hideleg,4
    CSRS(CSR_HIP, 0x4);
    8000208c:	64426073          	csrs	hip,4
    TEST_SETUP_EXCEPT();
    80002090:	0ff0000f          	fence
    80002094:	4785                	li	a5,1
    80002096:	00f41023          	sh	a5,0(s0)
    8000209a:	0003b797          	auipc	a5,0x3b
    8000209e:	fa07b723          	sd	zero,-82(a5) # 8003d048 <excpt+0x38>
    800020a2:	0ff0000f          	fence
    goto_priv(PRIV_VS);
    800020a6:	4509                	li	a0,2
    800020a8:	a37fe0ef          	jal	80000ade <goto_priv>
    CSRS(sie, 0x2);
    800020ac:	10416073          	csrs	sie,2
    CSRS(sstatus, 0x2);
    800020b0:	10016073          	csrs	sstatus,2
    TEST_ASSERT("vs sw irq with delegation", 
    800020b4:	08200593          	li	a1,130
    800020b8:	0001b617          	auipc	a2,0x1b
    800020bc:	2f060613          	add	a2,a2,752 # 8001d3a8 <__func__.1+0x718>
    800020c0:	0001b517          	auipc	a0,0x1b
    800020c4:	ed050513          	add	a0,a0,-304 # 8001cf90 <__func__.1+0x300>
    800020c8:	302190ef          	jal	8001b3ca <printf>
    800020cc:	00144783          	lbu	a5,1(s0)
    800020d0:	0001b597          	auipc	a1,0x1b
    800020d4:	e9858593          	add	a1,a1,-360 # 8001cf68 <__func__.1+0x2d8>
    800020d8:	c799                	beqz	a5,800020e6 <interrupt_tests+0x13e>
    800020da:	57fd                	li	a5,-1
    800020dc:	6418                	ld	a4,8(s0)
    800020de:	17fe                	sll	a5,a5,0x3f
    800020e0:	0785                	add	a5,a5,1
    800020e2:	0af70c63          	beq	a4,a5,8000219a <interrupt_tests+0x1f2>
    800020e6:	0001b517          	auipc	a0,0x1b
    800020ea:	ec250513          	add	a0,a0,-318 # 8001cfa8 <__func__.1+0x318>
    800020ee:	2dc190ef          	jal	8001b3ca <printf>
    800020f2:	00144783          	lbu	a5,1(s0)
    800020f6:	c799                	beqz	a5,80002104 <interrupt_tests+0x15c>
    800020f8:	57fd                	li	a5,-1
    800020fa:	6418                	ld	a4,8(s0)
    800020fc:	17fe                	sll	a5,a5,0x3f
    800020fe:	0785                	add	a5,a5,1
    80002100:	06f70563          	beq	a4,a5,8000216a <interrupt_tests+0x1c2>
    80002104:	0001b517          	auipc	a0,0x1b
    80002108:	eac50513          	add	a0,a0,-340 # 8001cfb0 <__func__.1+0x320>
    8000210c:	2be190ef          	jal	8001b3ca <printf>
    80002110:	02900513          	li	a0,41
    80002114:	188180ef          	jal	8001a29c <putchar>
    80002118:	4529                	li	a0,10
    8000211a:	182180ef          	jal	8001a29c <putchar>
    8000211e:	c0a1                	beqz	s1,8000215e <interrupt_tests+0x1b6>
    80002120:	00144483          	lbu	s1,1(s0)


    //Mbitmstatus.mie=1mipmieMEIPMEIE
    

    TEST_END();
    80002124:	0001b597          	auipc	a1,0x1b
    80002128:	e4458593          	add	a1,a1,-444 # 8001cf68 <__func__.1+0x2d8>
    TEST_ASSERT("vs sw irq with delegation", 
    8000212c:	c881                	beqz	s1,8000213c <interrupt_tests+0x194>
    8000212e:	57fd                	li	a5,-1
    80002130:	6418                	ld	a4,8(s0)
    80002132:	17fe                	sll	a5,a5,0x3f
    80002134:	0785                	add	a5,a5,1
    80002136:	06f70b63          	beq	a4,a5,800021ac <interrupt_tests+0x204>
    8000213a:	4481                	li	s1,0
    TEST_END();
    8000213c:	0001b517          	auipc	a0,0x1b
    80002140:	ed450513          	add	a0,a0,-300 # 8001d010 <__func__.1+0x380>
    80002144:	286190ef          	jal	8001b3ca <printf>
    80002148:	4511                	li	a0,4
    8000214a:	995fe0ef          	jal	80000ade <goto_priv>
    8000214e:	9d8ff0ef          	jal	80001326 <reset_state>
}
    80002152:	60e2                	ld	ra,24(sp)
    80002154:	6442                	ld	s0,16(sp)
    80002156:	8526                	mv	a0,s1
    80002158:	64a2                	ld	s1,8(sp)
    8000215a:	6105                	add	sp,sp,32
    8000215c:	8082                	ret
    TEST_ASSERT("vs sw irq with delegation", 
    8000215e:	4481                	li	s1,0
    TEST_END();
    80002160:	0001b597          	auipc	a1,0x1b
    80002164:	e0858593          	add	a1,a1,-504 # 8001cf68 <__func__.1+0x2d8>
    80002168:	bfd1                	j	8000213c <interrupt_tests+0x194>
    TEST_ASSERT("vs sw irq with delegation", 
    8000216a:	4058                	lw	a4,4(s0)
    8000216c:	4789                	li	a5,2
    8000216e:	f8f71be3          	bne	a4,a5,80002104 <interrupt_tests+0x15c>
    80002172:	b75d                	j	80002118 <interrupt_tests+0x170>
    TEST_ASSERT("vs sw irq with no delegation", 
    80002174:	4058                	lw	a4,4(s0)
    80002176:	478d                	li	a5,3
    80002178:	ecf71ee3          	bne	a4,a5,80002054 <interrupt_tests+0xac>
    8000217c:	b5f5                	j	80002068 <interrupt_tests+0xc0>
    8000217e:	4058                	lw	a4,4(s0)
    80002180:	478d                	li	a5,3
    80002182:	eaf71ae3          	bne	a4,a5,80002036 <interrupt_tests+0x8e>
    80002186:	0001b597          	auipc	a1,0x1b
    8000218a:	dd258593          	add	a1,a1,-558 # 8001cf58 <__func__.1+0x2c8>
    8000218e:	b565                	j	80002036 <interrupt_tests+0x8e>
    80002190:	4044                	lw	s1,4(s0)
    80002192:	14f5                	add	s1,s1,-3
    80002194:	0014b493          	seqz	s1,s1
    80002198:	b5ed                	j	80002082 <interrupt_tests+0xda>
    TEST_ASSERT("vs sw irq with delegation", 
    8000219a:	4058                	lw	a4,4(s0)
    8000219c:	4789                	li	a5,2
    8000219e:	f4f714e3          	bne	a4,a5,800020e6 <interrupt_tests+0x13e>
    800021a2:	0001b597          	auipc	a1,0x1b
    800021a6:	db658593          	add	a1,a1,-586 # 8001cf58 <__func__.1+0x2c8>
    800021aa:	bf35                	j	800020e6 <interrupt_tests+0x13e>
    800021ac:	4058                	lw	a4,4(s0)
    800021ae:	4789                	li	a5,2
    800021b0:	f8f715e3          	bne	a4,a5,8000213a <interrupt_tests+0x192>
    TEST_END();
    800021b4:	0001b597          	auipc	a1,0x1b
    800021b8:	da458593          	add	a1,a1,-604 # 8001cf58 <__func__.1+0x2c8>
    800021bc:	b741                	j	8000213c <interrupt_tests+0x194>

00000000800021be <two_stage_translation_1>:

static inline void touch(uintptr_t addr){
    touchwrite(addr);
}

bool two_stage_translation_1(){
    800021be:	7139                	add	sp,sp,-64
    
    TEST_START();
    800021c0:	00019597          	auipc	a1,0x19
    800021c4:	77058593          	add	a1,a1,1904 # 8001b930 <__func__.20>
    800021c8:	0001b517          	auipc	a0,0x1b
    800021cc:	db050513          	add	a0,a0,-592 # 8001cf78 <__func__.1+0x2e8>
bool two_stage_translation_1(){
    800021d0:	fc06                	sd	ra,56(sp)
    800021d2:	f822                	sd	s0,48(sp)
    800021d4:	f426                	sd	s1,40(sp)
    800021d6:	f04a                	sd	s2,32(sp)
    800021d8:	ec4e                	sd	s3,24(sp)
    TEST_START();
    800021da:	1f0190ef          	jal	8001b3ca <printf>
    800021de:	4529                	li	a0,10
    800021e0:	0bc180ef          	jal	8001a29c <putchar>
static inline uint8_t read8(uintptr_t addr){
    return *((volatile uint8_t*) addr);    
}

static inline void write64(uintptr_t addr, uint64_t val){
    *((volatile uint64_t*) addr) = val;
    800021e4:	000887b7          	lui	a5,0x88
    800021e8:	2201b737          	lui	a4,0x2201b
    800021ec:	070a                	sll	a4,a4,0x2
    800021ee:	44c5                	li	s1,17
    800021f0:	06d78793          	add	a5,a5,109 # 8806d <_test_table_size+0x8806c>
    800021f4:	07b2                	sll	a5,a5,0xc
    800021f6:	e304                	sd	s1,0(a4)
    800021f8:	02200913          	li	s2,34
    800021fc:	0127b023          	sd	s2,0(a5)
    write64(addr2, 0x22);

    /**
     * Setup hyp page_tables.
     */
    goto_priv(PRIV_HS);
    80002200:	450d                	li	a0,3
    80002202:	8ddfe0ef          	jal	80000ade <goto_priv>
    hspt_init();
    80002206:	bdafe0ef          	jal	800005e0 <hspt_init>
    hpt_init();
    8000220a:	e1cfe0ef          	jal	80000826 <hpt_init>

    /**
     * Setup guest page tables.
     */
    goto_priv(PRIV_VS);
    8000220e:	4509                	li	a0,2
    80002210:	8cffe0ef          	jal	80000ade <goto_priv>
    vspt_init();
    80002214:	ca0fe0ef          	jal	800006b4 <vspt_init>
    return *((volatile uint64_t*) addr);
    80002218:	4001b7b7          	lui	a5,0x4001b
    8000221c:	078a                	sll	a5,a5,0x2
    8000221e:	0007b983          	ld	s3,0(a5) # 4001b000 <STACK_SIZE+0x3ff1b000>
    80002222:	001007b7          	lui	a5,0x100
    80002226:	06d78793          	add	a5,a5,109 # 10006d <STACK_SIZE+0x6d>
    8000222a:	07b2                	sll	a5,a5,0xc

    bool check1 = read64(vaddr1) == 0x11;
    bool check2 = read64(vaddr2) == 0x22;
    TEST_ASSERT("vs gets right values", check1 && check2);
    8000222c:	0001b617          	auipc	a2,0x1b
    80002230:	19c60613          	add	a2,a2,412 # 8001d3c8 <__func__.1+0x738>
    80002234:	08200593          	li	a1,130
    80002238:	0001b517          	auipc	a0,0x1b
    8000223c:	d5850513          	add	a0,a0,-680 # 8001cf90 <__func__.1+0x300>
    80002240:	6380                	ld	s0,0(a5)
    80002242:	188190ef          	jal	8001b3ca <printf>
    80002246:	3a998263          	beq	s3,s1,800025ea <two_stage_translation_1+0x42c>
    8000224a:	0001b597          	auipc	a1,0x1b
    8000224e:	d1e58593          	add	a1,a1,-738 # 8001cf68 <__func__.1+0x2d8>
    80002252:	0001b517          	auipc	a0,0x1b
    80002256:	d5650513          	add	a0,a0,-682 # 8001cfa8 <__func__.1+0x318>
    8000225a:	170190ef          	jal	8001b3ca <printf>
    8000225e:	0001b517          	auipc	a0,0x1b
    80002262:	d5250513          	add	a0,a0,-686 # 8001cfb0 <__func__.1+0x320>
    80002266:	164190ef          	jal	8001b3ca <printf>
    8000226a:	02900513          	li	a0,41
    8000226e:	02e180ef          	jal	8001a29c <putchar>
    80002272:	4529                	li	a0,10
    80002274:	028180ef          	jal	8001a29c <putchar>
    80002278:	4401                	li	s0,0
    
    goto_priv(PRIV_HS);
    8000227a:	450d                	li	a0,3
    8000227c:	863fe0ef          	jal	80000ade <goto_priv>
    hpt_switch();
    80002280:	f54fe0ef          	jal	800009d4 <hpt_switch>
    asm volatile(
    80002284:	22000073          	.4byte	0x22000073
    asm volatile(
    80002288:	62000073          	.4byte	0x62000073
    hfence();
    goto_priv(PRIV_VS);
    8000228c:	4509                	li	a0,2
    8000228e:	851fe0ef          	jal	80000ade <goto_priv>
    80002292:	4001b7b7          	lui	a5,0x4001b
    80002296:	078a                	sll	a5,a5,0x2
    80002298:	0007b903          	ld	s2,0(a5) # 4001b000 <STACK_SIZE+0x3ff1b000>
    8000229c:	001007b7          	lui	a5,0x100
    800022a0:	06d78793          	add	a5,a5,109 # 10006d <STACK_SIZE+0x6d>
    800022a4:	07b2                	sll	a5,a5,0xc
    check1 = read64(vaddr1) == 0x22;
    check2 = read64(vaddr2) == 0x11;   
    // INFO("0%lx 0x%lx", read64(vaddr1), read64(vaddr2));
    TEST_ASSERT("vs gets right values after changing 2nd stage pt", check1 && check2);
    800022a6:	0001b617          	auipc	a2,0x1b
    800022aa:	13a60613          	add	a2,a2,314 # 8001d3e0 <__func__.1+0x750>
    800022ae:	08200593          	li	a1,130
    800022b2:	0001b517          	auipc	a0,0x1b
    800022b6:	cde50513          	add	a0,a0,-802 # 8001cf90 <__func__.1+0x300>
    800022ba:	6384                	ld	s1,0(a5)
    800022bc:	10e190ef          	jal	8001b3ca <printf>
    800022c0:	02200793          	li	a5,34
    800022c4:	2ef90363          	beq	s2,a5,800025aa <two_stage_translation_1+0x3ec>
    800022c8:	0001b597          	auipc	a1,0x1b
    800022cc:	ca058593          	add	a1,a1,-864 # 8001cf68 <__func__.1+0x2d8>
    800022d0:	0001b517          	auipc	a0,0x1b
    800022d4:	cd850513          	add	a0,a0,-808 # 8001cfa8 <__func__.1+0x318>
    800022d8:	0f2190ef          	jal	8001b3ca <printf>
    800022dc:	0001b517          	auipc	a0,0x1b
    800022e0:	cd450513          	add	a0,a0,-812 # 8001cfb0 <__func__.1+0x320>
    800022e4:	0e6190ef          	jal	8001b3ca <printf>
    800022e8:	02900513          	li	a0,41
    800022ec:	7b1170ef          	jal	8001a29c <putchar>
    800022f0:	4529                	li	a0,10
    800022f2:	7ab170ef          	jal	8001a29c <putchar>
    800022f6:	4401                	li	s0,0

    vspt_switch();
    800022f8:	ec2fe0ef          	jal	800009ba <vspt_switch>
    asm volatile ("sfence.vma \n\t");
    800022fc:	12000073          	sfence.vma
    80002300:	4001b7b7          	lui	a5,0x4001b
    80002304:	078a                	sll	a5,a5,0x2
    80002306:	0007b903          	ld	s2,0(a5) # 4001b000 <STACK_SIZE+0x3ff1b000>
    8000230a:	001007b7          	lui	a5,0x100
    8000230e:	06d78793          	add	a5,a5,109 # 10006d <STACK_SIZE+0x6d>
    80002312:	07b2                	sll	a5,a5,0xc
    sfence();
    check1 = read64(vaddr1) == 0x11;
    check2 = read64(vaddr2) == 0x22;   
    TEST_ASSERT("vs gets right values after changing 1st stage pt", check1 && check2);
    80002314:	0001b617          	auipc	a2,0x1b
    80002318:	10460613          	add	a2,a2,260 # 8001d418 <__func__.1+0x788>
    8000231c:	08200593          	li	a1,130
    80002320:	0001b517          	auipc	a0,0x1b
    80002324:	c7050513          	add	a0,a0,-912 # 8001cf90 <__func__.1+0x300>
    80002328:	6384                	ld	s1,0(a5)
    8000232a:	0a0190ef          	jal	8001b3ca <printf>
    8000232e:	47c5                	li	a5,17
    80002330:	30f90963          	beq	s2,a5,80002642 <two_stage_translation_1+0x484>
    80002334:	0001b597          	auipc	a1,0x1b
    80002338:	c3458593          	add	a1,a1,-972 # 8001cf68 <__func__.1+0x2d8>
    8000233c:	0001b517          	auipc	a0,0x1b
    80002340:	c6c50513          	add	a0,a0,-916 # 8001cfa8 <__func__.1+0x318>
    80002344:	086190ef          	jal	8001b3ca <printf>
    80002348:	0001b517          	auipc	a0,0x1b
    8000234c:	c6850513          	add	a0,a0,-920 # 8001cfb0 <__func__.1+0x320>
    80002350:	07a190ef          	jal	8001b3ca <printf>
    80002354:	02900513          	li	a0,41
    80002358:	745170ef          	jal	8001a29c <putchar>
    8000235c:	4529                	li	a0,10
    8000235e:	73f170ef          	jal	8001a29c <putchar>
    80002362:	4481                	li	s1,0

    goto_priv(PRIV_M); 
    80002364:	4511                	li	a0,4
    80002366:	f78fe0ef          	jal	80000ade <goto_priv>
    CSRS(medeleg, 1ull << CAUSE_LGPF);
    8000236a:	002007b7          	lui	a5,0x200
    8000236e:	3027a073          	csrs	medeleg,a5
    goto_priv(PRIV_VS);
    80002372:	4509                	li	a0,2
    80002374:	f6afe0ef          	jal	80000ade <goto_priv>
    TEST_SETUP_EXCEPT();
    80002378:	0ff0000f          	fence
    8000237c:	4785                	li	a5,1
    8000237e:	0003b417          	auipc	s0,0x3b
    80002382:	c9240413          	add	s0,s0,-878 # 8003d010 <excpt>
    80002386:	00f41023          	sh	a5,0(s0)
    8000238a:	0003b797          	auipc	a5,0x3b
    8000238e:	ca07bf23          	sd	zero,-834(a5) # 8003d048 <excpt+0x38>
    80002392:	0ff0000f          	fence
    80002396:	001007b7          	lui	a5,0x100
    8000239a:	06578793          	add	a5,a5,101 # 100065 <STACK_SIZE+0x65>
    8000239e:	07b2                	sll	a5,a5,0xc
    800023a0:	639c                	ld	a5,0(a5)
    read64(vs_page_base(VSRWX_GI));    
    TEST_ASSERT(
    800023a2:	08200593          	li	a1,130
    800023a6:	0001b617          	auipc	a2,0x1b
    800023aa:	0aa60613          	add	a2,a2,170 # 8001d450 <__func__.1+0x7c0>
    800023ae:	0001b517          	auipc	a0,0x1b
    800023b2:	be250513          	add	a0,a0,-1054 # 8001cf90 <__func__.1+0x300>
    800023b6:	014190ef          	jal	8001b3ca <printf>
    800023ba:	00144783          	lbu	a5,1(s0)
    800023be:	0001b597          	auipc	a1,0x1b
    800023c2:	baa58593          	add	a1,a1,-1110 # 8001cf68 <__func__.1+0x2d8>
    800023c6:	c789                	beqz	a5,800023d0 <two_stage_translation_1+0x212>
    800023c8:	6418                	ld	a4,8(s0)
    800023ca:	47d5                	li	a5,21
    800023cc:	3af70f63          	beq	a4,a5,8000278a <two_stage_translation_1+0x5cc>
    800023d0:	0001b517          	auipc	a0,0x1b
    800023d4:	bd850513          	add	a0,a0,-1064 # 8001cfa8 <__func__.1+0x318>
    800023d8:	7f3180ef          	jal	8001b3ca <printf>
    800023dc:	00144783          	lbu	a5,1(s0)
    800023e0:	c789                	beqz	a5,800023ea <two_stage_translation_1+0x22c>
    800023e2:	6418                	ld	a4,8(s0)
    800023e4:	47d5                	li	a5,21
    800023e6:	2af70063          	beq	a4,a5,80002686 <two_stage_translation_1+0x4c8>
    800023ea:	0001b517          	auipc	a0,0x1b
    800023ee:	bc650513          	add	a0,a0,-1082 # 8001cfb0 <__func__.1+0x320>
    800023f2:	7d9180ef          	jal	8001b3ca <printf>
    800023f6:	02900513          	li	a0,41
    800023fa:	6a3170ef          	jal	8001a29c <putchar>
    800023fe:	4529                	li	a0,10
    80002400:	69d170ef          	jal	8001a29c <putchar>
    80002404:	c889                	beqz	s1,80002416 <two_stage_translation_1+0x258>
    80002406:	00144783          	lbu	a5,1(s0)
    8000240a:	4481                	li	s1,0
    8000240c:	c789                	beqz	a5,80002416 <two_stage_translation_1+0x258>
    8000240e:	6418                	ld	a4,8(s0)
    80002410:	47d5                	li	a5,21
    80002412:	30f70a63          	beq	a4,a5,80002726 <two_stage_translation_1+0x568>
        excpt.priv == PRIV_HS &&
        excpt.gva == true &&
        excpt.xpv == true
    );

    TEST_SETUP_EXCEPT();
    80002416:	0ff0000f          	fence
    8000241a:	4785                	li	a5,1
    8000241c:	00f41023          	sh	a5,0(s0)
    80002420:	0003b797          	auipc	a5,0x3b
    80002424:	c207b423          	sd	zero,-984(a5) # 8003d048 <excpt+0x38>
    80002428:	0ff0000f          	fence
    TEST_EXEC_EXCEPT(vs_page_base(VSRWX_GI)); 
    8000242c:	001007b7          	lui	a5,0x100
    80002430:	06578793          	add	a5,a5,101 # 100065 <STACK_SIZE+0x65>
    80002434:	07b2                	sll	a5,a5,0xc
    80002436:	00000297          	auipc	t0,0x0
    8000243a:	00c28293          	add	t0,t0,12 # 80002442 <two_stage_translation_1+0x284>
    8000243e:	02543c23          	sd	t0,56(s0)
    80002442:	8782                	jr	a5
    TEST_ASSERT(
    80002444:	08200593          	li	a1,130
    80002448:	0001b617          	auipc	a2,0x1b
    8000244c:	03860613          	add	a2,a2,56 # 8001d480 <__func__.1+0x7f0>
    80002450:	0001b517          	auipc	a0,0x1b
    80002454:	b4050513          	add	a0,a0,-1216 # 8001cf90 <__func__.1+0x300>
    80002458:	773180ef          	jal	8001b3ca <printf>
    8000245c:	00144783          	lbu	a5,1(s0)
    80002460:	0001b597          	auipc	a1,0x1b
    80002464:	b0858593          	add	a1,a1,-1272 # 8001cf68 <__func__.1+0x2d8>
    80002468:	c789                	beqz	a5,80002472 <two_stage_translation_1+0x2b4>
    8000246a:	6418                	ld	a4,8(s0)
    8000246c:	47d1                	li	a5,20
    8000246e:	36f70163          	beq	a4,a5,800027d0 <two_stage_translation_1+0x612>
    80002472:	0001b517          	auipc	a0,0x1b
    80002476:	b3650513          	add	a0,a0,-1226 # 8001cfa8 <__func__.1+0x318>
    8000247a:	751180ef          	jal	8001b3ca <printf>
    8000247e:	00144783          	lbu	a5,1(s0)
    80002482:	c789                	beqz	a5,8000248c <two_stage_translation_1+0x2ce>
    80002484:	6418                	ld	a4,8(s0)
    80002486:	47d1                	li	a5,20
    80002488:	22f70363          	beq	a4,a5,800026ae <two_stage_translation_1+0x4f0>
    8000248c:	0001b517          	auipc	a0,0x1b
    80002490:	b2450513          	add	a0,a0,-1244 # 8001cfb0 <__func__.1+0x320>
    80002494:	737180ef          	jal	8001b3ca <printf>
    80002498:	02900513          	li	a0,41
    8000249c:	601170ef          	jal	8001a29c <putchar>
    800024a0:	4529                	li	a0,10
    800024a2:	5fb170ef          	jal	8001a29c <putchar>
    800024a6:	c889                	beqz	s1,800024b8 <two_stage_translation_1+0x2fa>
    800024a8:	00144783          	lbu	a5,1(s0)
    800024ac:	4481                	li	s1,0
    800024ae:	c789                	beqz	a5,800024b8 <two_stage_translation_1+0x2fa>
    800024b0:	6418                	ld	a4,8(s0)
    800024b2:	47d1                	li	a5,20
    800024b4:	24f70763          	beq	a4,a5,80002702 <two_stage_translation_1+0x544>
        excpt.priv == PRIV_M  &&
        excpt.gva == true &&
        excpt.xpv == true
    );

    goto_priv(PRIV_M);
    800024b8:	4511                	li	a0,4
    800024ba:	e24fe0ef          	jal	80000ade <goto_priv>
    CSRS(medeleg, 1 << CAUSE_LPF | 1 << CAUSE_LGPF);
    800024be:	002027b7          	lui	a5,0x202
    800024c2:	3027a073          	csrs	medeleg,a5
    goto_priv(PRIV_HS); 
    800024c6:	450d                	li	a0,3
    800024c8:	e16fe0ef          	jal	80000ade <goto_priv>
    CSRS(CSR_HEDELEG, 1 << CAUSE_LPF);
    800024cc:	6789                	lui	a5,0x2
    800024ce:	6027a073          	csrs	hedeleg,a5
    goto_priv(PRIV_VS);
    800024d2:	4509                	li	a0,2
    800024d4:	e0afe0ef          	jal	80000ade <goto_priv>
    800024d8:	12000073          	sfence.vma
    sfence();
    TEST_SETUP_EXCEPT();
    800024dc:	0ff0000f          	fence
    800024e0:	4785                	li	a5,1
    800024e2:	00f41023          	sh	a5,0(s0)
    800024e6:	0003b797          	auipc	a5,0x3b
    800024ea:	b607b123          	sd	zero,-1182(a5) # 8003d048 <excpt+0x38>
    800024ee:	0ff0000f          	fence
    volatile uint64_t x = *(volatile uint64_t *)addr;
    800024f2:	400197b7          	lui	a5,0x40019
    800024f6:	078a                	sll	a5,a5,0x2
    800024f8:	639c                	ld	a5,0(a5)
    touchread(vs_page_base(VSI_GI));    
    TEST_ASSERT(
    800024fa:	08200593          	li	a1,130
    800024fe:	0001b617          	auipc	a2,0x1b
    80002502:	fc260613          	add	a2,a2,-62 # 8001d4c0 <__func__.1+0x830>
    80002506:	0001b517          	auipc	a0,0x1b
    8000250a:	a8a50513          	add	a0,a0,-1398 # 8001cf90 <__func__.1+0x300>
    volatile uint64_t x = *(volatile uint64_t *)addr;
    8000250e:	e43e                	sd	a5,8(sp)
    TEST_ASSERT(
    80002510:	6bb180ef          	jal	8001b3ca <printf>
    80002514:	00144783          	lbu	a5,1(s0)
    80002518:	0001b597          	auipc	a1,0x1b
    8000251c:	a5058593          	add	a1,a1,-1456 # 8001cf68 <__func__.1+0x2d8>
    80002520:	c789                	beqz	a5,8000252a <two_stage_translation_1+0x36c>
    80002522:	6418                	ld	a4,8(s0)
    80002524:	47b5                	li	a5,13
    80002526:	28f70863          	beq	a4,a5,800027b6 <two_stage_translation_1+0x5f8>
    8000252a:	0001b517          	auipc	a0,0x1b
    8000252e:	a7e50513          	add	a0,a0,-1410 # 8001cfa8 <__func__.1+0x318>
    80002532:	699180ef          	jal	8001b3ca <printf>
    80002536:	00144783          	lbu	a5,1(s0)
    8000253a:	c789                	beqz	a5,80002544 <two_stage_translation_1+0x386>
    8000253c:	6418                	ld	a4,8(s0)
    8000253e:	47b5                	li	a5,13
    80002540:	18f70b63          	beq	a4,a5,800026d6 <two_stage_translation_1+0x518>
    80002544:	0001b517          	auipc	a0,0x1b
    80002548:	a6c50513          	add	a0,a0,-1428 # 8001cfb0 <__func__.1+0x320>
    8000254c:	67f180ef          	jal	8001b3ca <printf>
    80002550:	02900513          	li	a0,41
    80002554:	549170ef          	jal	8001a29c <putchar>
    80002558:	4529                	li	a0,10
    8000255a:	543170ef          	jal	8001a29c <putchar>
    8000255e:	c0a1                	beqz	s1,8000259e <two_stage_translation_1+0x3e0>
    80002560:	00144483          	lbu	s1,1(s0)
        excpt.cause == CAUSE_LPF &&
        excpt.priv == PRIV_VS && 
        excpt.gva == false
    );

    TEST_END();
    80002564:	0001b597          	auipc	a1,0x1b
    80002568:	a0458593          	add	a1,a1,-1532 # 8001cf68 <__func__.1+0x2d8>
    TEST_ASSERT(
    8000256c:	c491                	beqz	s1,80002578 <two_stage_translation_1+0x3ba>
    8000256e:	6418                	ld	a4,8(s0)
    80002570:	47b5                	li	a5,13
    80002572:	16f70b63          	beq	a4,a5,800026e8 <two_stage_translation_1+0x52a>
    80002576:	4481                	li	s1,0
    TEST_END();
    80002578:	0001b517          	auipc	a0,0x1b
    8000257c:	a9850513          	add	a0,a0,-1384 # 8001d010 <__func__.1+0x380>
    80002580:	64b180ef          	jal	8001b3ca <printf>
    80002584:	4511                	li	a0,4
    80002586:	d58fe0ef          	jal	80000ade <goto_priv>
    8000258a:	d9dfe0ef          	jal	80001326 <reset_state>
}
    8000258e:	70e2                	ld	ra,56(sp)
    80002590:	7442                	ld	s0,48(sp)
    80002592:	7902                	ld	s2,32(sp)
    80002594:	69e2                	ld	s3,24(sp)
    80002596:	8526                	mv	a0,s1
    80002598:	74a2                	ld	s1,40(sp)
    8000259a:	6121                	add	sp,sp,64
    8000259c:	8082                	ret
    TEST_ASSERT(
    8000259e:	4481                	li	s1,0
    TEST_END();
    800025a0:	0001b597          	auipc	a1,0x1b
    800025a4:	9c858593          	add	a1,a1,-1592 # 8001cf68 <__func__.1+0x2d8>
    800025a8:	bfc1                	j	80002578 <two_stage_translation_1+0x3ba>
    TEST_ASSERT("vs gets right values after changing 2nd stage pt", check1 && check2);
    800025aa:	47c5                	li	a5,17
    800025ac:	1af48f63          	beq	s1,a5,8000276a <two_stage_translation_1+0x5ac>
    800025b0:	0001b597          	auipc	a1,0x1b
    800025b4:	9b858593          	add	a1,a1,-1608 # 8001cf68 <__func__.1+0x2d8>
    800025b8:	0001b517          	auipc	a0,0x1b
    800025bc:	9f050513          	add	a0,a0,-1552 # 8001cfa8 <__func__.1+0x318>
    800025c0:	60b180ef          	jal	8001b3ca <printf>
    800025c4:	0001b517          	auipc	a0,0x1b
    800025c8:	9ec50513          	add	a0,a0,-1556 # 8001cfb0 <__func__.1+0x320>
    800025cc:	5ff180ef          	jal	8001b3ca <printf>
    800025d0:	02900513          	li	a0,41
    800025d4:	4c9170ef          	jal	8001a29c <putchar>
    800025d8:	4529                	li	a0,10
    800025da:	4c3170ef          	jal	8001a29c <putchar>
    800025de:	d0040ce3          	beqz	s0,800022f6 <two_stage_translation_1+0x138>
    800025e2:	14bd                	add	s1,s1,-17
    800025e4:	0014b413          	seqz	s0,s1
    800025e8:	bb01                	j	800022f8 <two_stage_translation_1+0x13a>
    TEST_ASSERT("vs gets right values", check1 && check2);
    800025ea:	03240e63          	beq	s0,s2,80002626 <two_stage_translation_1+0x468>
    800025ee:	0001b597          	auipc	a1,0x1b
    800025f2:	97a58593          	add	a1,a1,-1670 # 8001cf68 <__func__.1+0x2d8>
    800025f6:	0001b517          	auipc	a0,0x1b
    800025fa:	9b250513          	add	a0,a0,-1614 # 8001cfa8 <__func__.1+0x318>
    800025fe:	5cd180ef          	jal	8001b3ca <printf>
    80002602:	0001b517          	auipc	a0,0x1b
    80002606:	9ae50513          	add	a0,a0,-1618 # 8001cfb0 <__func__.1+0x320>
    8000260a:	5c1180ef          	jal	8001b3ca <printf>
    8000260e:	02900513          	li	a0,41
    80002612:	48b170ef          	jal	8001a29c <putchar>
    80002616:	4529                	li	a0,10
    80002618:	485170ef          	jal	8001a29c <putchar>
    8000261c:	fde40413          	add	s0,s0,-34
    80002620:	00143413          	seqz	s0,s0
    80002624:	b999                	j	8000227a <two_stage_translation_1+0xbc>
    80002626:	0001b597          	auipc	a1,0x1b
    8000262a:	93258593          	add	a1,a1,-1742 # 8001cf58 <__func__.1+0x2c8>
    8000262e:	0001b517          	auipc	a0,0x1b
    80002632:	97a50513          	add	a0,a0,-1670 # 8001cfa8 <__func__.1+0x318>
    80002636:	595180ef          	jal	8001b3ca <printf>
    8000263a:	4529                	li	a0,10
    8000263c:	461170ef          	jal	8001a29c <putchar>
    80002640:	bff1                	j	8000261c <two_stage_translation_1+0x45e>
    TEST_ASSERT("vs gets right values after changing 1st stage pt", check1 && check2);
    80002642:	02200793          	li	a5,34
    80002646:	10f48263          	beq	s1,a5,8000274a <two_stage_translation_1+0x58c>
    8000264a:	0001b597          	auipc	a1,0x1b
    8000264e:	91e58593          	add	a1,a1,-1762 # 8001cf68 <__func__.1+0x2d8>
    80002652:	0001b517          	auipc	a0,0x1b
    80002656:	95650513          	add	a0,a0,-1706 # 8001cfa8 <__func__.1+0x318>
    8000265a:	571180ef          	jal	8001b3ca <printf>
    8000265e:	0001b517          	auipc	a0,0x1b
    80002662:	95250513          	add	a0,a0,-1710 # 8001cfb0 <__func__.1+0x320>
    80002666:	565180ef          	jal	8001b3ca <printf>
    8000266a:	02900513          	li	a0,41
    8000266e:	42f170ef          	jal	8001a29c <putchar>
    80002672:	4529                	li	a0,10
    80002674:	429170ef          	jal	8001a29c <putchar>
    80002678:	ce0405e3          	beqz	s0,80002362 <two_stage_translation_1+0x1a4>
    8000267c:	fde48493          	add	s1,s1,-34
    80002680:	0014b493          	seqz	s1,s1
    80002684:	b1c5                	j	80002364 <two_stage_translation_1+0x1a6>
    TEST_ASSERT(
    80002686:	7418                	ld	a4,40(s0)
    80002688:	400197b7          	lui	a5,0x40019
    8000268c:	40078793          	add	a5,a5,1024 # 40019400 <STACK_SIZE+0x3ff19400>
    80002690:	d4f71de3          	bne	a4,a5,800023ea <two_stage_translation_1+0x22c>
    80002694:	4058                	lw	a4,4(s0)
    80002696:	478d                	li	a5,3
    80002698:	d4f719e3          	bne	a4,a5,800023ea <two_stage_translation_1+0x22c>
    8000269c:	03044783          	lbu	a5,48(s0)
    800026a0:	d40785e3          	beqz	a5,800023ea <two_stage_translation_1+0x22c>
    800026a4:	03144783          	lbu	a5,49(s0)
    800026a8:	d4079be3          	bnez	a5,800023fe <two_stage_translation_1+0x240>
    800026ac:	bb3d                	j	800023ea <two_stage_translation_1+0x22c>
    TEST_ASSERT(
    800026ae:	7418                	ld	a4,40(s0)
    800026b0:	400197b7          	lui	a5,0x40019
    800026b4:	40078793          	add	a5,a5,1024 # 40019400 <STACK_SIZE+0x3ff19400>
    800026b8:	dcf71ae3          	bne	a4,a5,8000248c <two_stage_translation_1+0x2ce>
    800026bc:	4058                	lw	a4,4(s0)
    800026be:	4791                	li	a5,4
    800026c0:	dcf716e3          	bne	a4,a5,8000248c <two_stage_translation_1+0x2ce>
    800026c4:	03044783          	lbu	a5,48(s0)
    800026c8:	dc0782e3          	beqz	a5,8000248c <two_stage_translation_1+0x2ce>
    800026cc:	03144783          	lbu	a5,49(s0)
    800026d0:	dc0798e3          	bnez	a5,800024a0 <two_stage_translation_1+0x2e2>
    800026d4:	bb65                	j	8000248c <two_stage_translation_1+0x2ce>
    TEST_ASSERT(
    800026d6:	4058                	lw	a4,4(s0)
    800026d8:	4789                	li	a5,2
    800026da:	e6f715e3          	bne	a4,a5,80002544 <two_stage_translation_1+0x386>
    800026de:	03044783          	lbu	a5,48(s0)
    800026e2:	e6078be3          	beqz	a5,80002558 <two_stage_translation_1+0x39a>
    800026e6:	bdb9                	j	80002544 <two_stage_translation_1+0x386>
    800026e8:	4058                	lw	a4,4(s0)
    800026ea:	4789                	li	a5,2
    800026ec:	e8f715e3          	bne	a4,a5,80002576 <two_stage_translation_1+0x3b8>
    800026f0:	03044783          	lbu	a5,48(s0)
    800026f4:	e80791e3          	bnez	a5,80002576 <two_stage_translation_1+0x3b8>
    TEST_END();
    800026f8:	0001b597          	auipc	a1,0x1b
    800026fc:	86058593          	add	a1,a1,-1952 # 8001cf58 <__func__.1+0x2c8>
    80002700:	bda5                	j	80002578 <two_stage_translation_1+0x3ba>
    TEST_ASSERT(
    80002702:	7418                	ld	a4,40(s0)
    80002704:	400197b7          	lui	a5,0x40019
    80002708:	40078793          	add	a5,a5,1024 # 40019400 <STACK_SIZE+0x3ff19400>
    8000270c:	daf716e3          	bne	a4,a5,800024b8 <two_stage_translation_1+0x2fa>
    80002710:	4058                	lw	a4,4(s0)
    80002712:	4791                	li	a5,4
    80002714:	daf712e3          	bne	a4,a5,800024b8 <two_stage_translation_1+0x2fa>
    80002718:	03045483          	lhu	s1,48(s0)
    8000271c:	eff48493          	add	s1,s1,-257
    80002720:	0014b493          	seqz	s1,s1
    80002724:	bb51                	j	800024b8 <two_stage_translation_1+0x2fa>
    TEST_ASSERT(
    80002726:	7418                	ld	a4,40(s0)
    80002728:	400197b7          	lui	a5,0x40019
    8000272c:	40078793          	add	a5,a5,1024 # 40019400 <STACK_SIZE+0x3ff19400>
    80002730:	cef713e3          	bne	a4,a5,80002416 <two_stage_translation_1+0x258>
    80002734:	4058                	lw	a4,4(s0)
    80002736:	478d                	li	a5,3
    80002738:	ccf71fe3          	bne	a4,a5,80002416 <two_stage_translation_1+0x258>
    8000273c:	03045483          	lhu	s1,48(s0)
    80002740:	eff48493          	add	s1,s1,-257
    80002744:	0014b493          	seqz	s1,s1
    80002748:	b1f9                	j	80002416 <two_stage_translation_1+0x258>
    TEST_ASSERT("vs gets right values after changing 1st stage pt", check1 && check2);
    8000274a:	0001b597          	auipc	a1,0x1b
    8000274e:	80e58593          	add	a1,a1,-2034 # 8001cf58 <__func__.1+0x2c8>
    80002752:	0001b517          	auipc	a0,0x1b
    80002756:	85650513          	add	a0,a0,-1962 # 8001cfa8 <__func__.1+0x318>
    8000275a:	471180ef          	jal	8001b3ca <printf>
    8000275e:	4529                	li	a0,10
    80002760:	33d170ef          	jal	8001a29c <putchar>
    80002764:	be040fe3          	beqz	s0,80002362 <two_stage_translation_1+0x1a4>
    80002768:	bf11                	j	8000267c <two_stage_translation_1+0x4be>
    TEST_ASSERT("vs gets right values after changing 2nd stage pt", check1 && check2);
    8000276a:	0001a597          	auipc	a1,0x1a
    8000276e:	7ee58593          	add	a1,a1,2030 # 8001cf58 <__func__.1+0x2c8>
    80002772:	0001b517          	auipc	a0,0x1b
    80002776:	83650513          	add	a0,a0,-1994 # 8001cfa8 <__func__.1+0x318>
    8000277a:	451180ef          	jal	8001b3ca <printf>
    8000277e:	4529                	li	a0,10
    80002780:	31d170ef          	jal	8001a29c <putchar>
    80002784:	b60409e3          	beqz	s0,800022f6 <two_stage_translation_1+0x138>
    80002788:	bda9                	j	800025e2 <two_stage_translation_1+0x424>
    TEST_ASSERT(
    8000278a:	7418                	ld	a4,40(s0)
    8000278c:	400197b7          	lui	a5,0x40019
    80002790:	40078793          	add	a5,a5,1024 # 40019400 <STACK_SIZE+0x3ff19400>
    80002794:	c2f71ee3          	bne	a4,a5,800023d0 <two_stage_translation_1+0x212>
    80002798:	4058                	lw	a4,4(s0)
    8000279a:	478d                	li	a5,3
    8000279c:	c2f71ae3          	bne	a4,a5,800023d0 <two_stage_translation_1+0x212>
    800027a0:	03045703          	lhu	a4,48(s0)
    800027a4:	10100793          	li	a5,257
    800027a8:	c2f714e3          	bne	a4,a5,800023d0 <two_stage_translation_1+0x212>
    800027ac:	0001a597          	auipc	a1,0x1a
    800027b0:	7ac58593          	add	a1,a1,1964 # 8001cf58 <__func__.1+0x2c8>
    800027b4:	b931                	j	800023d0 <two_stage_translation_1+0x212>
    TEST_ASSERT(
    800027b6:	4058                	lw	a4,4(s0)
    800027b8:	4789                	li	a5,2
    800027ba:	d6f718e3          	bne	a4,a5,8000252a <two_stage_translation_1+0x36c>
    800027be:	03044783          	lbu	a5,48(s0)
    800027c2:	d60794e3          	bnez	a5,8000252a <two_stage_translation_1+0x36c>
    800027c6:	0001a597          	auipc	a1,0x1a
    800027ca:	79258593          	add	a1,a1,1938 # 8001cf58 <__func__.1+0x2c8>
    800027ce:	bbb1                	j	8000252a <two_stage_translation_1+0x36c>
    TEST_ASSERT(
    800027d0:	7418                	ld	a4,40(s0)
    800027d2:	400197b7          	lui	a5,0x40019
    800027d6:	40078793          	add	a5,a5,1024 # 40019400 <STACK_SIZE+0x3ff19400>
    800027da:	c8f71ce3          	bne	a4,a5,80002472 <two_stage_translation_1+0x2b4>
    800027de:	4058                	lw	a4,4(s0)
    800027e0:	4791                	li	a5,4
    800027e2:	c8f718e3          	bne	a4,a5,80002472 <two_stage_translation_1+0x2b4>
    800027e6:	03045703          	lhu	a4,48(s0)
    800027ea:	10100793          	li	a5,257
    800027ee:	c8f712e3          	bne	a4,a5,80002472 <two_stage_translation_1+0x2b4>
    800027f2:	0001a597          	auipc	a1,0x1a
    800027f6:	76658593          	add	a1,a1,1894 # 8001cf58 <__func__.1+0x2c8>
    800027fa:	b9a5                	j	80002472 <two_stage_translation_1+0x2b4>

00000000800027fc <two_stage_translation_2>:

bool two_stage_translation_2(){
    800027fc:	7179                	add	sp,sp,-48
    
    TEST_START();
    800027fe:	00019597          	auipc	a1,0x19
    80002802:	14a58593          	add	a1,a1,330 # 8001b948 <__func__.17>
    80002806:	0001a517          	auipc	a0,0x1a
    8000280a:	77250513          	add	a0,a0,1906 # 8001cf78 <__func__.1+0x2e8>
bool two_stage_translation_2(){
    8000280e:	f406                	sd	ra,40(sp)
    80002810:	f022                	sd	s0,32(sp)
    80002812:	ec26                	sd	s1,24(sp)
    80002814:	e84a                	sd	s2,16(sp)
    80002816:	e44e                	sd	s3,8(sp)
    TEST_START();
    80002818:	3b3180ef          	jal	8001b3ca <printf>
    8000281c:	4529                	li	a0,10
    8000281e:	27f170ef          	jal	8001a29c <putchar>
    *((volatile uint64_t*) addr) = val;
    80002822:	000887b7          	lui	a5,0x88
    80002826:	2201b737          	lui	a4,0x2201b
    8000282a:	070a                	sll	a4,a4,0x2
    8000282c:	44c5                	li	s1,17
    8000282e:	06d78793          	add	a5,a5,109 # 8806d <_test_table_size+0x8806c>
    80002832:	07b2                	sll	a5,a5,0xc
    80002834:	e304                	sd	s1,0(a4)
    80002836:	02200913          	li	s2,34
    8000283a:	0127b023          	sd	s2,0(a5)
    write64(addr2, 0x22);

    /**
     * Setup hyp page_tables.
     */
    goto_priv(PRIV_HS);
    8000283e:	450d                	li	a0,3
    80002840:	a9efe0ef          	jal	80000ade <goto_priv>
    hspt_init();
    80002844:	d9dfd0ef          	jal	800005e0 <hspt_init>
    hpt_init();
    80002848:	fdffd0ef          	jal	80000826 <hpt_init>

    /**
     * Setup guest page tables.
     */
    goto_priv(PRIV_VS);
    8000284c:	4509                	li	a0,2
    8000284e:	a90fe0ef          	jal	80000ade <goto_priv>
    vspt_init();
    80002852:	e63fd0ef          	jal	800006b4 <vspt_init>
    return *((volatile uint64_t*) addr);
    80002856:	4001b7b7          	lui	a5,0x4001b
    8000285a:	078a                	sll	a5,a5,0x2
    8000285c:	0007b983          	ld	s3,0(a5) # 4001b000 <STACK_SIZE+0x3ff1b000>
    80002860:	001007b7          	lui	a5,0x100
    80002864:	06d78793          	add	a5,a5,109 # 10006d <STACK_SIZE+0x6d>
    80002868:	07b2                	sll	a5,a5,0xc

    bool check1 = read64(vaddr1) == 0x11;
    bool check2 = read64(vaddr2) == 0x22;
    TEST_ASSERT("vs gets right values", check1 && check2);
    8000286a:	0001b617          	auipc	a2,0x1b
    8000286e:	b5e60613          	add	a2,a2,-1186 # 8001d3c8 <__func__.1+0x738>
    80002872:	08200593          	li	a1,130
    80002876:	0001a517          	auipc	a0,0x1a
    8000287a:	71a50513          	add	a0,a0,1818 # 8001cf90 <__func__.1+0x300>
    8000287e:	6380                	ld	s0,0(a5)
    80002880:	34b180ef          	jal	8001b3ca <printf>
    80002884:	0c998b63          	beq	s3,s1,8000295a <two_stage_translation_2+0x15e>
    80002888:	0001a597          	auipc	a1,0x1a
    8000288c:	6e058593          	add	a1,a1,1760 # 8001cf68 <__func__.1+0x2d8>
    80002890:	0001a517          	auipc	a0,0x1a
    80002894:	71850513          	add	a0,a0,1816 # 8001cfa8 <__func__.1+0x318>
    80002898:	333180ef          	jal	8001b3ca <printf>
    8000289c:	0001a517          	auipc	a0,0x1a
    800028a0:	71450513          	add	a0,a0,1812 # 8001cfb0 <__func__.1+0x320>
    800028a4:	327180ef          	jal	8001b3ca <printf>
    800028a8:	02900513          	li	a0,41
    800028ac:	1f1170ef          	jal	8001a29c <putchar>
    800028b0:	4529                	li	a0,10
    800028b2:	1eb170ef          	jal	8001a29c <putchar>
    800028b6:	4401                	li	s0,0
    
    goto_priv(PRIV_HS);
    800028b8:	450d                	li	a0,3
    800028ba:	a24fe0ef          	jal	80000ade <goto_priv>
    hpt_switch();
    800028be:	916fe0ef          	jal	800009d4 <hpt_switch>
    goto_priv(PRIV_VS);
    800028c2:	4509                	li	a0,2
    800028c4:	a1afe0ef          	jal	80000ade <goto_priv>
    800028c8:	4001b7b7          	lui	a5,0x4001b
    800028cc:	078a                	sll	a5,a5,0x2
    800028ce:	6384                	ld	s1,0(a5)
    800028d0:	001007b7          	lui	a5,0x100
    800028d4:	06d78793          	add	a5,a5,109 # 10006d <STACK_SIZE+0x6d>
    800028d8:	07b2                	sll	a5,a5,0xc
    check1 = read64(vaddr1) == 0x11;
    check2 = read64(vaddr2) == 0x22;   
    // INFO("0%lx 0x%lx", read64(vaddr1), read64(vaddr2));
    TEST_ASSERT("vs do not change values after changing 2nd stage pt when not execute hfence", check1 && check2);
    800028da:	0001b617          	auipc	a2,0x1b
    800028de:	c1e60613          	add	a2,a2,-994 # 8001d4f8 <__func__.1+0x868>
    800028e2:	08200593          	li	a1,130
    800028e6:	0001a517          	auipc	a0,0x1a
    800028ea:	6aa50513          	add	a0,a0,1706 # 8001cf90 <__func__.1+0x300>
    800028ee:	0007b903          	ld	s2,0(a5)
    800028f2:	2d9180ef          	jal	8001b3ca <printf>
    800028f6:	47c5                	li	a5,17
    800028f8:	0af48d63          	beq	s1,a5,800029b2 <two_stage_translation_2+0x1b6>
    800028fc:	0001a597          	auipc	a1,0x1a
    80002900:	66c58593          	add	a1,a1,1644 # 8001cf68 <__func__.1+0x2d8>
    80002904:	0001a517          	auipc	a0,0x1a
    80002908:	6a450513          	add	a0,a0,1700 # 8001cfa8 <__func__.1+0x318>
    8000290c:	2bf180ef          	jal	8001b3ca <printf>
    80002910:	0001a517          	auipc	a0,0x1a
    80002914:	6a050513          	add	a0,a0,1696 # 8001cfb0 <__func__.1+0x320>
    80002918:	2b3180ef          	jal	8001b3ca <printf>
    8000291c:	02900513          	li	a0,41
    80002920:	17d170ef          	jal	8001a29c <putchar>
    80002924:	4529                	li	a0,10
    80002926:	177170ef          	jal	8001a29c <putchar>
    8000292a:	4401                	li	s0,0


    TEST_END();
    8000292c:	0001a597          	auipc	a1,0x1a
    80002930:	63c58593          	add	a1,a1,1596 # 8001cf68 <__func__.1+0x2d8>
    80002934:	0001a517          	auipc	a0,0x1a
    80002938:	6dc50513          	add	a0,a0,1756 # 8001d010 <__func__.1+0x380>
    8000293c:	28f180ef          	jal	8001b3ca <printf>
    80002940:	4511                	li	a0,4
    80002942:	99cfe0ef          	jal	80000ade <goto_priv>
    80002946:	9e1fe0ef          	jal	80001326 <reset_state>
}
    8000294a:	70a2                	ld	ra,40(sp)
    8000294c:	8522                	mv	a0,s0
    8000294e:	7402                	ld	s0,32(sp)
    80002950:	64e2                	ld	s1,24(sp)
    80002952:	6942                	ld	s2,16(sp)
    80002954:	69a2                	ld	s3,8(sp)
    80002956:	6145                	add	sp,sp,48
    80002958:	8082                	ret
    TEST_ASSERT("vs gets right values", check1 && check2);
    8000295a:	03240e63          	beq	s0,s2,80002996 <two_stage_translation_2+0x19a>
    8000295e:	0001a597          	auipc	a1,0x1a
    80002962:	60a58593          	add	a1,a1,1546 # 8001cf68 <__func__.1+0x2d8>
    80002966:	0001a517          	auipc	a0,0x1a
    8000296a:	64250513          	add	a0,a0,1602 # 8001cfa8 <__func__.1+0x318>
    8000296e:	25d180ef          	jal	8001b3ca <printf>
    80002972:	0001a517          	auipc	a0,0x1a
    80002976:	63e50513          	add	a0,a0,1598 # 8001cfb0 <__func__.1+0x320>
    8000297a:	251180ef          	jal	8001b3ca <printf>
    8000297e:	02900513          	li	a0,41
    80002982:	11b170ef          	jal	8001a29c <putchar>
    80002986:	4529                	li	a0,10
    80002988:	115170ef          	jal	8001a29c <putchar>
    8000298c:	fde40413          	add	s0,s0,-34
    80002990:	00143413          	seqz	s0,s0
    80002994:	b715                	j	800028b8 <two_stage_translation_2+0xbc>
    80002996:	0001a597          	auipc	a1,0x1a
    8000299a:	5c258593          	add	a1,a1,1474 # 8001cf58 <__func__.1+0x2c8>
    8000299e:	0001a517          	auipc	a0,0x1a
    800029a2:	60a50513          	add	a0,a0,1546 # 8001cfa8 <__func__.1+0x318>
    800029a6:	225180ef          	jal	8001b3ca <printf>
    800029aa:	4529                	li	a0,10
    800029ac:	0f1170ef          	jal	8001a29c <putchar>
    800029b0:	bff1                	j	8000298c <two_stage_translation_2+0x190>
    TEST_ASSERT("vs do not change values after changing 2nd stage pt when not execute hfence", check1 && check2);
    800029b2:	02200793          	li	a5,34
    800029b6:	f4f913e3          	bne	s2,a5,800028fc <two_stage_translation_2+0x100>
    800029ba:	0001a597          	auipc	a1,0x1a
    800029be:	59e58593          	add	a1,a1,1438 # 8001cf58 <__func__.1+0x2c8>
    800029c2:	0001a517          	auipc	a0,0x1a
    800029c6:	5e650513          	add	a0,a0,1510 # 8001cfa8 <__func__.1+0x318>
    800029ca:	201180ef          	jal	8001b3ca <printf>
    800029ce:	4529                	li	a0,10
    800029d0:	0cd170ef          	jal	8001a29c <putchar>
    800029d4:	d839                	beqz	s0,8000292a <two_stage_translation_2+0x12e>
    800029d6:	4405                	li	s0,1
    TEST_END();
    800029d8:	0001a597          	auipc	a1,0x1a
    800029dc:	58058593          	add	a1,a1,1408 # 8001cf58 <__func__.1+0x2c8>
    800029e0:	bf91                	j	80002934 <two_stage_translation_2+0x138>

00000000800029e2 <two_stage_translation_3>:

bool two_stage_translation_3(){
    800029e2:	7179                	add	sp,sp,-48
    
    TEST_START();
    800029e4:	00019597          	auipc	a1,0x19
    800029e8:	f7c58593          	add	a1,a1,-132 # 8001b960 <__func__.16>
    800029ec:	0001a517          	auipc	a0,0x1a
    800029f0:	58c50513          	add	a0,a0,1420 # 8001cf78 <__func__.1+0x2e8>
bool two_stage_translation_3(){
    800029f4:	f406                	sd	ra,40(sp)
    800029f6:	f022                	sd	s0,32(sp)
    800029f8:	ec26                	sd	s1,24(sp)
    800029fa:	e84a                	sd	s2,16(sp)
    800029fc:	e44e                	sd	s3,8(sp)
    TEST_START();
    800029fe:	1cd180ef          	jal	8001b3ca <printf>
    80002a02:	4529                	li	a0,10
    80002a04:	099170ef          	jal	8001a29c <putchar>
    *((volatile uint64_t*) addr) = val;
    80002a08:	000887b7          	lui	a5,0x88
    80002a0c:	2201b737          	lui	a4,0x2201b
    80002a10:	070a                	sll	a4,a4,0x2
    80002a12:	44c5                	li	s1,17
    80002a14:	06d78793          	add	a5,a5,109 # 8806d <_test_table_size+0x8806c>
    80002a18:	07b2                	sll	a5,a5,0xc
    80002a1a:	e304                	sd	s1,0(a4)
    80002a1c:	02200913          	li	s2,34
    80002a20:	0127b023          	sd	s2,0(a5)
    write64(addr2, 0x22);

    /**
     * Setup hyp page_tables.
     */
    goto_priv(PRIV_HS);
    80002a24:	450d                	li	a0,3
    80002a26:	8b8fe0ef          	jal	80000ade <goto_priv>
    hspt_init();
    80002a2a:	bb7fd0ef          	jal	800005e0 <hspt_init>
    hpt_init();
    80002a2e:	df9fd0ef          	jal	80000826 <hpt_init>

    /**
     * Setup guest page tables.
     */
    goto_priv(PRIV_VS);
    80002a32:	4509                	li	a0,2
    80002a34:	8aafe0ef          	jal	80000ade <goto_priv>
    vspt_init();
    80002a38:	c7dfd0ef          	jal	800006b4 <vspt_init>
    return *((volatile uint64_t*) addr);
    80002a3c:	4001b7b7          	lui	a5,0x4001b
    80002a40:	078a                	sll	a5,a5,0x2
    80002a42:	0007b983          	ld	s3,0(a5) # 4001b000 <STACK_SIZE+0x3ff1b000>
    80002a46:	001007b7          	lui	a5,0x100
    80002a4a:	06d78793          	add	a5,a5,109 # 10006d <STACK_SIZE+0x6d>
    80002a4e:	07b2                	sll	a5,a5,0xc

    bool check1 = read64(vaddr1) == 0x11;
    bool check2 = read64(vaddr2) == 0x22;
    TEST_ASSERT("vs gets right values", check1 && check2);
    80002a50:	0001b617          	auipc	a2,0x1b
    80002a54:	97860613          	add	a2,a2,-1672 # 8001d3c8 <__func__.1+0x738>
    80002a58:	08200593          	li	a1,130
    80002a5c:	0001a517          	auipc	a0,0x1a
    80002a60:	53450513          	add	a0,a0,1332 # 8001cf90 <__func__.1+0x300>
    80002a64:	6380                	ld	s0,0(a5)
    80002a66:	165180ef          	jal	8001b3ca <printf>
    80002a6a:	0c998863          	beq	s3,s1,80002b3a <two_stage_translation_3+0x158>
    80002a6e:	0001a597          	auipc	a1,0x1a
    80002a72:	4fa58593          	add	a1,a1,1274 # 8001cf68 <__func__.1+0x2d8>
    80002a76:	0001a517          	auipc	a0,0x1a
    80002a7a:	53250513          	add	a0,a0,1330 # 8001cfa8 <__func__.1+0x318>
    80002a7e:	14d180ef          	jal	8001b3ca <printf>
    80002a82:	0001a517          	auipc	a0,0x1a
    80002a86:	52e50513          	add	a0,a0,1326 # 8001cfb0 <__func__.1+0x320>
    80002a8a:	141180ef          	jal	8001b3ca <printf>
    80002a8e:	02900513          	li	a0,41
    80002a92:	00b170ef          	jal	8001a29c <putchar>
    80002a96:	4529                	li	a0,10
    80002a98:	005170ef          	jal	8001a29c <putchar>
    80002a9c:	4401                	li	s0,0
    
    goto_priv(PRIV_VS);
    80002a9e:	4509                	li	a0,2
    80002aa0:	83efe0ef          	jal	80000ade <goto_priv>

    vspt_switch();
    80002aa4:	f17fd0ef          	jal	800009ba <vspt_switch>
    80002aa8:	4001b7b7          	lui	a5,0x4001b
    80002aac:	078a                	sll	a5,a5,0x2
    80002aae:	6384                	ld	s1,0(a5)
    80002ab0:	001007b7          	lui	a5,0x100
    80002ab4:	06d78793          	add	a5,a5,109 # 10006d <STACK_SIZE+0x6d>
    80002ab8:	07b2                	sll	a5,a5,0xc
    check1 = read64(vaddr1) == 0x11;
    check2 = read64(vaddr2) == 0x22;   
    TEST_ASSERT("vs do not change values after changing 1st stage pt when not execute sfence", check1 && check2);
    80002aba:	0001b617          	auipc	a2,0x1b
    80002abe:	a8e60613          	add	a2,a2,-1394 # 8001d548 <__func__.1+0x8b8>
    80002ac2:	08200593          	li	a1,130
    80002ac6:	0001a517          	auipc	a0,0x1a
    80002aca:	4ca50513          	add	a0,a0,1226 # 8001cf90 <__func__.1+0x300>
    80002ace:	0007b903          	ld	s2,0(a5)
    80002ad2:	0f9180ef          	jal	8001b3ca <printf>
    80002ad6:	47c5                	li	a5,17
    80002ad8:	0af48d63          	beq	s1,a5,80002b92 <two_stage_translation_3+0x1b0>
    80002adc:	0001a597          	auipc	a1,0x1a
    80002ae0:	48c58593          	add	a1,a1,1164 # 8001cf68 <__func__.1+0x2d8>
    80002ae4:	0001a517          	auipc	a0,0x1a
    80002ae8:	4c450513          	add	a0,a0,1220 # 8001cfa8 <__func__.1+0x318>
    80002aec:	0df180ef          	jal	8001b3ca <printf>
    80002af0:	0001a517          	auipc	a0,0x1a
    80002af4:	4c050513          	add	a0,a0,1216 # 8001cfb0 <__func__.1+0x320>
    80002af8:	0d3180ef          	jal	8001b3ca <printf>
    80002afc:	02900513          	li	a0,41
    80002b00:	79c170ef          	jal	8001a29c <putchar>
    80002b04:	4529                	li	a0,10
    80002b06:	796170ef          	jal	8001a29c <putchar>
    80002b0a:	4401                	li	s0,0

    TEST_END();
    80002b0c:	0001a597          	auipc	a1,0x1a
    80002b10:	45c58593          	add	a1,a1,1116 # 8001cf68 <__func__.1+0x2d8>
    80002b14:	0001a517          	auipc	a0,0x1a
    80002b18:	4fc50513          	add	a0,a0,1276 # 8001d010 <__func__.1+0x380>
    80002b1c:	0af180ef          	jal	8001b3ca <printf>
    80002b20:	4511                	li	a0,4
    80002b22:	fbdfd0ef          	jal	80000ade <goto_priv>
    80002b26:	801fe0ef          	jal	80001326 <reset_state>
}
    80002b2a:	70a2                	ld	ra,40(sp)
    80002b2c:	8522                	mv	a0,s0
    80002b2e:	7402                	ld	s0,32(sp)
    80002b30:	64e2                	ld	s1,24(sp)
    80002b32:	6942                	ld	s2,16(sp)
    80002b34:	69a2                	ld	s3,8(sp)
    80002b36:	6145                	add	sp,sp,48
    80002b38:	8082                	ret
    TEST_ASSERT("vs gets right values", check1 && check2);
    80002b3a:	03240e63          	beq	s0,s2,80002b76 <two_stage_translation_3+0x194>
    80002b3e:	0001a597          	auipc	a1,0x1a
    80002b42:	42a58593          	add	a1,a1,1066 # 8001cf68 <__func__.1+0x2d8>
    80002b46:	0001a517          	auipc	a0,0x1a
    80002b4a:	46250513          	add	a0,a0,1122 # 8001cfa8 <__func__.1+0x318>
    80002b4e:	07d180ef          	jal	8001b3ca <printf>
    80002b52:	0001a517          	auipc	a0,0x1a
    80002b56:	45e50513          	add	a0,a0,1118 # 8001cfb0 <__func__.1+0x320>
    80002b5a:	071180ef          	jal	8001b3ca <printf>
    80002b5e:	02900513          	li	a0,41
    80002b62:	73a170ef          	jal	8001a29c <putchar>
    80002b66:	4529                	li	a0,10
    80002b68:	734170ef          	jal	8001a29c <putchar>
    80002b6c:	fde40413          	add	s0,s0,-34
    80002b70:	00143413          	seqz	s0,s0
    80002b74:	b72d                	j	80002a9e <two_stage_translation_3+0xbc>
    80002b76:	0001a597          	auipc	a1,0x1a
    80002b7a:	3e258593          	add	a1,a1,994 # 8001cf58 <__func__.1+0x2c8>
    80002b7e:	0001a517          	auipc	a0,0x1a
    80002b82:	42a50513          	add	a0,a0,1066 # 8001cfa8 <__func__.1+0x318>
    80002b86:	045180ef          	jal	8001b3ca <printf>
    80002b8a:	4529                	li	a0,10
    80002b8c:	710170ef          	jal	8001a29c <putchar>
    80002b90:	bff1                	j	80002b6c <two_stage_translation_3+0x18a>
    TEST_ASSERT("vs do not change values after changing 1st stage pt when not execute sfence", check1 && check2);
    80002b92:	02200793          	li	a5,34
    80002b96:	f4f913e3          	bne	s2,a5,80002adc <two_stage_translation_3+0xfa>
    80002b9a:	0001a597          	auipc	a1,0x1a
    80002b9e:	3be58593          	add	a1,a1,958 # 8001cf58 <__func__.1+0x2c8>
    80002ba2:	0001a517          	auipc	a0,0x1a
    80002ba6:	40650513          	add	a0,a0,1030 # 8001cfa8 <__func__.1+0x318>
    80002baa:	021180ef          	jal	8001b3ca <printf>
    80002bae:	4529                	li	a0,10
    80002bb0:	6ec170ef          	jal	8001a29c <putchar>
    80002bb4:	d839                	beqz	s0,80002b0a <two_stage_translation_3+0x128>
    80002bb6:	4405                	li	s0,1
    TEST_END();
    80002bb8:	0001a597          	auipc	a1,0x1a
    80002bbc:	3a058593          	add	a1,a1,928 # 8001cf58 <__func__.1+0x2c8>
    80002bc0:	bf91                	j	80002b14 <two_stage_translation_3+0x132>

0000000080002bc2 <second_stage_only_translation>:

bool second_stage_only_translation(){
    80002bc2:	7179                	add	sp,sp,-48

    /**
     * Test only 2nd stage translation.
     */
    TEST_START();
    80002bc4:	00019597          	auipc	a1,0x19
    80002bc8:	db458593          	add	a1,a1,-588 # 8001b978 <__func__.15>
    80002bcc:	0001a517          	auipc	a0,0x1a
    80002bd0:	3ac50513          	add	a0,a0,940 # 8001cf78 <__func__.1+0x2e8>
bool second_stage_only_translation(){
    80002bd4:	f406                	sd	ra,40(sp)
    80002bd6:	ec26                	sd	s1,24(sp)
    80002bd8:	e84a                	sd	s2,16(sp)
    80002bda:	f022                	sd	s0,32(sp)
    80002bdc:	e44e                	sd	s3,8(sp)
    80002bde:	e052                	sd	s4,0(sp)
    TEST_START();
    80002be0:	7ea180ef          	jal	8001b3ca <printf>
    80002be4:	4529                	li	a0,10
    80002be6:	6b6170ef          	jal	8001a29c <putchar>
    *((volatile uint64_t*) addr) = val;
    80002bea:	000887b7          	lui	a5,0x88
    80002bee:	2201b737          	lui	a4,0x2201b
    80002bf2:	44c5                	li	s1,17
    80002bf4:	070a                	sll	a4,a4,0x2
    80002bf6:	06d78793          	add	a5,a5,109 # 8806d <_test_table_size+0x8806c>
    80002bfa:	e304                	sd	s1,0(a4)
    80002bfc:	02200913          	li	s2,34
    80002c00:	07b2                	sll	a5,a5,0xc
    80002c02:	0127b023          	sd	s2,0(a5)
    uintptr_t vaddr2 = vs_page_base(SWITCH2);
    write64(addr1, 0x11);
    write64(addr2, 0x22);   


    CSRS(medeleg, (1 << CAUSE_LGPF) | (1 << CAUSE_SGPF));
    80002c06:	00a007b7          	lui	a5,0xa00
    80002c0a:	3027a073          	csrs	medeleg,a5

    /**
     * Setup hyp page_tables.
     */
    goto_priv(PRIV_HS);
    80002c0e:	450d                	li	a0,3
    80002c10:	ecffd0ef          	jal	80000ade <goto_priv>
    hspt_init();
    80002c14:	9cdfd0ef          	jal	800005e0 <hspt_init>
    hpt_init();
    80002c18:	c0ffd0ef          	jal	80000826 <hpt_init>
    
    goto_priv(PRIV_VS);
    80002c1c:	4509                	li	a0,2
    80002c1e:	ec1fd0ef          	jal	80000ade <goto_priv>
    TEST_SETUP_EXCEPT();
    80002c22:	0ff0000f          	fence
    80002c26:	4785                	li	a5,1
    80002c28:	0003a417          	auipc	s0,0x3a
    80002c2c:	3e840413          	add	s0,s0,1000 # 8003d010 <excpt>
    80002c30:	00f41023          	sh	a5,0(s0)
    80002c34:	0003a797          	auipc	a5,0x3a
    80002c38:	4007ba23          	sd	zero,1044(a5) # 8003d048 <excpt+0x38>
    80002c3c:	0ff0000f          	fence
    return *((volatile uint64_t*) addr);
    80002c40:	001007b7          	lui	a5,0x100
    80002c44:	4001b737          	lui	a4,0x4001b
    80002c48:	06d78793          	add	a5,a5,109 # 10006d <STACK_SIZE+0x6d>
    80002c4c:	07b2                	sll	a5,a5,0xc
    80002c4e:	070a                	sll	a4,a4,0x2
    bool check1 = read64(vaddr1) == 0x11;
    bool check2 = read64(vaddr2) == 0x22;
    TEST_ASSERT("vs gets right values", excpt.triggered == false && check1 && check2);
    80002c50:	0001a617          	auipc	a2,0x1a
    80002c54:	77860613          	add	a2,a2,1912 # 8001d3c8 <__func__.1+0x738>
    80002c58:	08200593          	li	a1,130
    80002c5c:	0001a517          	auipc	a0,0x1a
    80002c60:	33450513          	add	a0,a0,820 # 8001cf90 <__func__.1+0x300>
    80002c64:	00073983          	ld	s3,0(a4) # 4001b000 <STACK_SIZE+0x3ff1b000>
    80002c68:	0007ba03          	ld	s4,0(a5)
    80002c6c:	75e180ef          	jal	8001b3ca <printf>
    80002c70:	00144783          	lbu	a5,1(s0)
    80002c74:	22079163          	bnez	a5,80002e96 <second_stage_only_translation+0x2d4>
    80002c78:	2e998863          	beq	s3,s1,80002f68 <second_stage_only_translation+0x3a6>
    80002c7c:	0001a597          	auipc	a1,0x1a
    80002c80:	2ec58593          	add	a1,a1,748 # 8001cf68 <__func__.1+0x2d8>
    80002c84:	0001a517          	auipc	a0,0x1a
    80002c88:	32450513          	add	a0,a0,804 # 8001cfa8 <__func__.1+0x318>
    80002c8c:	73e180ef          	jal	8001b3ca <printf>
    80002c90:	0001a517          	auipc	a0,0x1a
    80002c94:	32050513          	add	a0,a0,800 # 8001cfb0 <__func__.1+0x320>
    80002c98:	732180ef          	jal	8001b3ca <printf>
    80002c9c:	02900513          	li	a0,41
    80002ca0:	5fc170ef          	jal	8001a29c <putchar>
    80002ca4:	4529                	li	a0,10
    80002ca6:	5f6170ef          	jal	8001a29c <putchar>
    80002caa:	4481                	li	s1,0

    goto_priv(PRIV_HS);
    80002cac:	450d                	li	a0,3
    80002cae:	e31fd0ef          	jal	80000ade <goto_priv>
    hpt_switch();       //nemuread64hlvd
    80002cb2:	d23fd0ef          	jal	800009d4 <hpt_switch>
    asm volatile(
    80002cb6:	22000073          	.4byte	0x22000073
    asm volatile(
    80002cba:	62000073          	.4byte	0x62000073
    hfence(); //l2tlb
    goto_priv(PRIV_VS);
    80002cbe:	4509                	li	a0,2
    80002cc0:	e1ffd0ef          	jal	80000ade <goto_priv>
    asm volatile ("sfence.vma \n\t");
    80002cc4:	12000073          	sfence.vma
    sfence(); //l1tlb
    TEST_SETUP_EXCEPT();
    80002cc8:	0ff0000f          	fence
    80002ccc:	4785                	li	a5,1
    80002cce:	00f41023          	sh	a5,0(s0)
    80002cd2:	0003a797          	auipc	a5,0x3a
    80002cd6:	3607bb23          	sd	zero,886(a5) # 8003d048 <excpt+0x38>
    80002cda:	0ff0000f          	fence
    80002cde:	001007b7          	lui	a5,0x100
    80002ce2:	4001b737          	lui	a4,0x4001b
    80002ce6:	06d78793          	add	a5,a5,109 # 10006d <STACK_SIZE+0x6d>
    80002cea:	07b2                	sll	a5,a5,0xc
    80002cec:	070a                	sll	a4,a4,0x2
    check1 = read64(vaddr1) == 0x22;
    check2 = read64(vaddr2) == 0x11;   
    TEST_ASSERT("vs gets right values after changing pt", excpt.triggered == false && check1 && check2);
    80002cee:	0001b617          	auipc	a2,0x1b
    80002cf2:	8aa60613          	add	a2,a2,-1878 # 8001d598 <__func__.1+0x908>
    80002cf6:	08200593          	li	a1,130
    80002cfa:	0001a517          	auipc	a0,0x1a
    80002cfe:	29650513          	add	a0,a0,662 # 8001cf90 <__func__.1+0x300>
    80002d02:	00073903          	ld	s2,0(a4) # 4001b000 <STACK_SIZE+0x3ff1b000>
    80002d06:	0007b983          	ld	s3,0(a5)
    80002d0a:	6c0180ef          	jal	8001b3ca <printf>
    80002d0e:	00144783          	lbu	a5,1(s0)
    80002d12:	1e079863          	bnez	a5,80002f02 <second_stage_only_translation+0x340>
    80002d16:	02200793          	li	a5,34
    80002d1a:	28f90e63          	beq	s2,a5,80002fb6 <second_stage_only_translation+0x3f4>
    80002d1e:	0001a597          	auipc	a1,0x1a
    80002d22:	24a58593          	add	a1,a1,586 # 8001cf68 <__func__.1+0x2d8>
    80002d26:	0001a517          	auipc	a0,0x1a
    80002d2a:	28250513          	add	a0,a0,642 # 8001cfa8 <__func__.1+0x318>
    80002d2e:	69c180ef          	jal	8001b3ca <printf>
    80002d32:	0001a517          	auipc	a0,0x1a
    80002d36:	27e50513          	add	a0,a0,638 # 8001cfb0 <__func__.1+0x320>
    80002d3a:	690180ef          	jal	8001b3ca <printf>
    80002d3e:	02900513          	li	a0,41
    80002d42:	55a170ef          	jal	8001a29c <putchar>
    80002d46:	4529                	li	a0,10
    80002d48:	554170ef          	jal	8001a29c <putchar>
    80002d4c:	c881                	beqz	s1,80002d5c <second_stage_only_translation+0x19a>
    80002d4e:	00144783          	lbu	a5,1(s0)
    80002d52:	e789                	bnez	a5,80002d5c <second_stage_only_translation+0x19a>
    80002d54:	02200793          	li	a5,34
    80002d58:	1ef90363          	beq	s2,a5,80002f3e <second_stage_only_translation+0x37c>
    80002d5c:	4481                	li	s1,0

    TEST_SETUP_EXCEPT();
    80002d5e:	0ff0000f          	fence
    80002d62:	4785                	li	a5,1
    80002d64:	00f41023          	sh	a5,0(s0)
    80002d68:	0003a797          	auipc	a5,0x3a
    80002d6c:	2e07b023          	sd	zero,736(a5) # 8003d048 <excpt+0x38>
    80002d70:	0ff0000f          	fence
    80002d74:	001007b7          	lui	a5,0x100
    80002d78:	06578793          	add	a5,a5,101 # 100065 <STACK_SIZE+0x65>
    80002d7c:	07b2                	sll	a5,a5,0xc
    80002d7e:	639c                	ld	a5,0(a5)
    (void) read64(vs_page_base(VSRWX_GI));  
    TEST_ASSERT(
    80002d80:	08200593          	li	a1,130
    80002d84:	0001b617          	auipc	a2,0x1b
    80002d88:	83c60613          	add	a2,a2,-1988 # 8001d5c0 <__func__.1+0x930>
    80002d8c:	0001a517          	auipc	a0,0x1a
    80002d90:	20450513          	add	a0,a0,516 # 8001cf90 <__func__.1+0x300>
    80002d94:	636180ef          	jal	8001b3ca <printf>
    80002d98:	00144783          	lbu	a5,1(s0)
    80002d9c:	0001a597          	auipc	a1,0x1a
    80002da0:	1cc58593          	add	a1,a1,460 # 8001cf68 <__func__.1+0x2d8>
    80002da4:	c789                	beqz	a5,80002dae <second_stage_only_translation+0x1ec>
    80002da6:	6418                	ld	a4,8(s0)
    80002da8:	47d5                	li	a5,21
    80002daa:	22f70763          	beq	a4,a5,80002fd8 <second_stage_only_translation+0x416>
    80002dae:	0001a517          	auipc	a0,0x1a
    80002db2:	1fa50513          	add	a0,a0,506 # 8001cfa8 <__func__.1+0x318>
    80002db6:	614180ef          	jal	8001b3ca <printf>
    80002dba:	00144783          	lbu	a5,1(s0)
    80002dbe:	c789                	beqz	a5,80002dc8 <second_stage_only_translation+0x206>
    80002dc0:	6418                	ld	a4,8(s0)
    80002dc2:	47d5                	li	a5,21
    80002dc4:	18f70d63          	beq	a4,a5,80002f5e <second_stage_only_translation+0x39c>
    80002dc8:	0001a517          	auipc	a0,0x1a
    80002dcc:	1e850513          	add	a0,a0,488 # 8001cfb0 <__func__.1+0x320>
    80002dd0:	5fa180ef          	jal	8001b3ca <printf>
    80002dd4:	02900513          	li	a0,41
    80002dd8:	4c4170ef          	jal	8001a29c <putchar>
    80002ddc:	4529                	li	a0,10
    80002dde:	4be170ef          	jal	8001a29c <putchar>
    80002de2:	c889                	beqz	s1,80002df4 <second_stage_only_translation+0x232>
    80002de4:	00144783          	lbu	a5,1(s0)
    80002de8:	4481                	li	s1,0
    80002dea:	c789                	beqz	a5,80002df4 <second_stage_only_translation+0x232>
    80002dec:	6418                	ld	a4,8(s0)
    80002dee:	47d5                	li	a5,21
    80002df0:	1af70e63          	beq	a4,a5,80002fac <second_stage_only_translation+0x3ea>
        excpt.triggered == true && 
        excpt.cause == CAUSE_LGPF &&
        excpt.priv == PRIV_HS
    );

    TEST_SETUP_EXCEPT();
    80002df4:	0ff0000f          	fence
    80002df8:	4785                	li	a5,1
    80002dfa:	00f41023          	sh	a5,0(s0)
    80002dfe:	0003a797          	auipc	a5,0x3a
    80002e02:	2407b523          	sd	zero,586(a5) # 8003d048 <excpt+0x38>
    80002e06:	0ff0000f          	fence
    80002e0a:	200007b7          	lui	a5,0x20000
    80002e0e:	17fd                	add	a5,a5,-1 # 1fffffff <STACK_SIZE+0x1fefffff>
    80002e10:	07b2                	sll	a5,a5,0xc
    80002e12:	639c                	ld	a5,0(a5)
    read64(vs_page_base_limit(TOP));
    TEST_ASSERT(
    80002e14:	08200593          	li	a1,130
    80002e18:	0001a617          	auipc	a2,0x1a
    80002e1c:	7d060613          	add	a2,a2,2000 # 8001d5e8 <__func__.1+0x958>
    80002e20:	0001a517          	auipc	a0,0x1a
    80002e24:	17050513          	add	a0,a0,368 # 8001cf90 <__func__.1+0x300>
    80002e28:	5a2180ef          	jal	8001b3ca <printf>
    80002e2c:	00144783          	lbu	a5,1(s0)
    80002e30:	0001a597          	auipc	a1,0x1a
    80002e34:	13858593          	add	a1,a1,312 # 8001cf68 <__func__.1+0x2d8>
    80002e38:	e789                	bnez	a5,80002e42 <second_stage_only_translation+0x280>
    80002e3a:	0001a597          	auipc	a1,0x1a
    80002e3e:	11e58593          	add	a1,a1,286 # 8001cf58 <__func__.1+0x2c8>
    80002e42:	0001a517          	auipc	a0,0x1a
    80002e46:	16650513          	add	a0,a0,358 # 8001cfa8 <__func__.1+0x318>
    80002e4a:	580180ef          	jal	8001b3ca <printf>
    80002e4e:	00144783          	lbu	a5,1(s0)
    80002e52:	0e079b63          	bnez	a5,80002f48 <second_stage_only_translation+0x386>
    80002e56:	4529                	li	a0,10
    80002e58:	444170ef          	jal	8001a29c <putchar>
    80002e5c:	ccc9                	beqz	s1,80002ef6 <second_stage_only_translation+0x334>
    80002e5e:	00144783          	lbu	a5,1(s0)
    80002e62:	ebd1                	bnez	a5,80002ef6 <second_stage_only_translation+0x334>
    80002e64:	4405                	li	s0,1
    //     "access top of guest pa space with high bits =/= 0", 
    //     excpt.triggered == true &&
    //     excpt.cause == CAUSE_LGPF
    // ); 

    TEST_END();
    80002e66:	0001a597          	auipc	a1,0x1a
    80002e6a:	0f258593          	add	a1,a1,242 # 8001cf58 <__func__.1+0x2c8>
    80002e6e:	0001a517          	auipc	a0,0x1a
    80002e72:	1a250513          	add	a0,a0,418 # 8001d010 <__func__.1+0x380>
    80002e76:	554180ef          	jal	8001b3ca <printf>
    80002e7a:	4511                	li	a0,4
    80002e7c:	c63fd0ef          	jal	80000ade <goto_priv>
    80002e80:	ca6fe0ef          	jal	80001326 <reset_state>
}
    80002e84:	70a2                	ld	ra,40(sp)
    80002e86:	8522                	mv	a0,s0
    80002e88:	7402                	ld	s0,32(sp)
    80002e8a:	64e2                	ld	s1,24(sp)
    80002e8c:	6942                	ld	s2,16(sp)
    80002e8e:	69a2                	ld	s3,8(sp)
    80002e90:	6a02                	ld	s4,0(sp)
    80002e92:	6145                	add	sp,sp,48
    80002e94:	8082                	ret
    TEST_ASSERT("vs gets right values", excpt.triggered == false && check1 && check2);
    80002e96:	0001a597          	auipc	a1,0x1a
    80002e9a:	0d258593          	add	a1,a1,210 # 8001cf68 <__func__.1+0x2d8>
    80002e9e:	0001a517          	auipc	a0,0x1a
    80002ea2:	10a50513          	add	a0,a0,266 # 8001cfa8 <__func__.1+0x318>
    80002ea6:	524180ef          	jal	8001b3ca <printf>
    80002eaa:	00144783          	lbu	a5,1(s0)
    80002eae:	e385                	bnez	a5,80002ece <second_stage_only_translation+0x30c>
    80002eb0:	de9990e3          	bne	s3,s1,80002c90 <second_stage_only_translation+0xce>
    80002eb4:	0d2a1663          	bne	s4,s2,80002f80 <second_stage_only_translation+0x3be>
    80002eb8:	4529                	li	a0,10
    80002eba:	3e2170ef          	jal	8001a29c <putchar>
    80002ebe:	00144783          	lbu	a5,1(s0)
    80002ec2:	de0794e3          	bnez	a5,80002caa <second_stage_only_translation+0xe8>
    80002ec6:	19bd                	add	s3,s3,-17
    80002ec8:	0019b493          	seqz	s1,s3
    80002ecc:	b3c5                	j	80002cac <second_stage_only_translation+0xea>
    80002ece:	0001a517          	auipc	a0,0x1a
    80002ed2:	0e250513          	add	a0,a0,226 # 8001cfb0 <__func__.1+0x320>
    80002ed6:	4f4180ef          	jal	8001b3ca <printf>
    80002eda:	02900513          	li	a0,41
    80002ede:	3be170ef          	jal	8001a29c <putchar>
    80002ee2:	4529                	li	a0,10
    80002ee4:	3b8170ef          	jal	8001a29c <putchar>
    80002ee8:	00144783          	lbu	a5,1(s0)
    80002eec:	da079fe3          	bnez	a5,80002caa <second_stage_only_translation+0xe8>
    80002ef0:	da999de3          	bne	s3,s1,80002caa <second_stage_only_translation+0xe8>
    80002ef4:	a07d                	j	80002fa2 <second_stage_only_translation+0x3e0>
    TEST_ASSERT(
    80002ef6:	4401                	li	s0,0
    TEST_END();
    80002ef8:	0001a597          	auipc	a1,0x1a
    80002efc:	07058593          	add	a1,a1,112 # 8001cf68 <__func__.1+0x2d8>
    80002f00:	b7bd                	j	80002e6e <second_stage_only_translation+0x2ac>
    TEST_ASSERT("vs gets right values after changing pt", excpt.triggered == false && check1 && check2);
    80002f02:	0001a597          	auipc	a1,0x1a
    80002f06:	06658593          	add	a1,a1,102 # 8001cf68 <__func__.1+0x2d8>
    80002f0a:	0001a517          	auipc	a0,0x1a
    80002f0e:	09e50513          	add	a0,a0,158 # 8001cfa8 <__func__.1+0x318>
    80002f12:	4b8180ef          	jal	8001b3ca <printf>
    80002f16:	00144783          	lbu	a5,1(s0)
    80002f1a:	e0079ce3          	bnez	a5,80002d32 <second_stage_only_translation+0x170>
    80002f1e:	02200793          	li	a5,34
    80002f22:	e0f918e3          	bne	s2,a5,80002d32 <second_stage_only_translation+0x170>
    80002f26:	47c5                	li	a5,17
    80002f28:	e0f995e3          	bne	s3,a5,80002d32 <second_stage_only_translation+0x170>
    80002f2c:	4529                	li	a0,10
    80002f2e:	36e170ef          	jal	8001a29c <putchar>
    80002f32:	e20485e3          	beqz	s1,80002d5c <second_stage_only_translation+0x19a>
    80002f36:	00144783          	lbu	a5,1(s0)
    80002f3a:	e20791e3          	bnez	a5,80002d5c <second_stage_only_translation+0x19a>
    80002f3e:	fef98493          	add	s1,s3,-17
    80002f42:	0014b493          	seqz	s1,s1
    80002f46:	bd21                	j	80002d5e <second_stage_only_translation+0x19c>
    TEST_ASSERT(
    80002f48:	0001a517          	auipc	a0,0x1a
    80002f4c:	06850513          	add	a0,a0,104 # 8001cfb0 <__func__.1+0x320>
    80002f50:	47a180ef          	jal	8001b3ca <printf>
    80002f54:	02900513          	li	a0,41
    80002f58:	344170ef          	jal	8001a29c <putchar>
    80002f5c:	bded                	j	80002e56 <second_stage_only_translation+0x294>
    TEST_ASSERT(
    80002f5e:	4058                	lw	a4,4(s0)
    80002f60:	478d                	li	a5,3
    80002f62:	e6f713e3          	bne	a4,a5,80002dc8 <second_stage_only_translation+0x206>
    80002f66:	bd9d                	j	80002ddc <second_stage_only_translation+0x21a>
    TEST_ASSERT("vs gets right values", excpt.triggered == false && check1 && check2);
    80002f68:	092a0163          	beq	s4,s2,80002fea <second_stage_only_translation+0x428>
    80002f6c:	0001a597          	auipc	a1,0x1a
    80002f70:	ffc58593          	add	a1,a1,-4 # 8001cf68 <__func__.1+0x2d8>
    80002f74:	0001a517          	auipc	a0,0x1a
    80002f78:	03450513          	add	a0,a0,52 # 8001cfa8 <__func__.1+0x318>
    80002f7c:	44e180ef          	jal	8001b3ca <printf>
    80002f80:	0001a517          	auipc	a0,0x1a
    80002f84:	03050513          	add	a0,a0,48 # 8001cfb0 <__func__.1+0x320>
    80002f88:	442180ef          	jal	8001b3ca <printf>
    80002f8c:	02900513          	li	a0,41
    80002f90:	30c170ef          	jal	8001a29c <putchar>
    80002f94:	4529                	li	a0,10
    80002f96:	306170ef          	jal	8001a29c <putchar>
    80002f9a:	00144783          	lbu	a5,1(s0)
    80002f9e:	d00796e3          	bnez	a5,80002caa <second_stage_only_translation+0xe8>
    80002fa2:	fdea0493          	add	s1,s4,-34
    80002fa6:	0014b493          	seqz	s1,s1
    80002faa:	b309                	j	80002cac <second_stage_only_translation+0xea>
    TEST_ASSERT(
    80002fac:	4044                	lw	s1,4(s0)
    80002fae:	14f5                	add	s1,s1,-3
    80002fb0:	0014b493          	seqz	s1,s1
    80002fb4:	b581                	j	80002df4 <second_stage_only_translation+0x232>
    TEST_ASSERT("vs gets right values after changing pt", excpt.triggered == false && check1 && check2);
    80002fb6:	47c5                	li	a5,17
    80002fb8:	d6f993e3          	bne	s3,a5,80002d1e <second_stage_only_translation+0x15c>
    80002fbc:	0001a597          	auipc	a1,0x1a
    80002fc0:	f9c58593          	add	a1,a1,-100 # 8001cf58 <__func__.1+0x2c8>
    80002fc4:	0001a517          	auipc	a0,0x1a
    80002fc8:	fe450513          	add	a0,a0,-28 # 8001cfa8 <__func__.1+0x318>
    80002fcc:	3fe180ef          	jal	8001b3ca <printf>
    80002fd0:	00144783          	lbu	a5,1(s0)
    80002fd4:	dfa1                	beqz	a5,80002f2c <second_stage_only_translation+0x36a>
    80002fd6:	bbb1                	j	80002d32 <second_stage_only_translation+0x170>
    TEST_ASSERT(
    80002fd8:	4058                	lw	a4,4(s0)
    80002fda:	478d                	li	a5,3
    80002fdc:	dcf719e3          	bne	a4,a5,80002dae <second_stage_only_translation+0x1ec>
    80002fe0:	0001a597          	auipc	a1,0x1a
    80002fe4:	f7858593          	add	a1,a1,-136 # 8001cf58 <__func__.1+0x2c8>
    80002fe8:	b3d9                	j	80002dae <second_stage_only_translation+0x1ec>
    TEST_ASSERT("vs gets right values", excpt.triggered == false && check1 && check2);
    80002fea:	0001a597          	auipc	a1,0x1a
    80002fee:	f6e58593          	add	a1,a1,-146 # 8001cf58 <__func__.1+0x2c8>
    80002ff2:	0001a517          	auipc	a0,0x1a
    80002ff6:	fb650513          	add	a0,a0,-74 # 8001cfa8 <__func__.1+0x318>
    80002ffa:	3d0180ef          	jal	8001b3ca <printf>
    80002ffe:	00144783          	lbu	a5,1(s0)
    80003002:	ea078be3          	beqz	a5,80002eb8 <second_stage_only_translation+0x2f6>
    80003006:	bfad                	j	80002f80 <second_stage_only_translation+0x3be>

0000000080003008 <m_and_hs_using_vs_access_1>:
    );

}


bool m_and_hs_using_vs_access_1(){
    80003008:	7139                	add	sp,sp,-64

    uint64_t val, valu;
    uintptr_t vaddr = vs_page_base(SCRATCHPAD);
    uintptr_t addr;

    TEST_START();
    8000300a:	00019597          	auipc	a1,0x19
    8000300e:	98e58593          	add	a1,a1,-1650 # 8001b998 <__func__.13>
    80003012:	0001a517          	auipc	a0,0x1a
    80003016:	f6650513          	add	a0,a0,-154 # 8001cf78 <__func__.1+0x2e8>
bool m_and_hs_using_vs_access_1(){
    8000301a:	fc06                	sd	ra,56(sp)
    8000301c:	f822                	sd	s0,48(sp)
    8000301e:	f426                	sd	s1,40(sp)
    80003020:	f04a                	sd	s2,32(sp)
    80003022:	ec4e                	sd	s3,24(sp)
    80003024:	e852                	sd	s4,16(sp)
    80003026:	e456                	sd	s5,8(sp)
    TEST_START();
    80003028:	3a2180ef          	jal	8001b3ca <printf>
    8000302c:	4529                	li	a0,10
    8000302e:	26e170ef          	jal	8001a29c <putchar>
    
    hspt_init();
    80003032:	daefd0ef          	jal	800005e0 <hspt_init>
    hpt_init(); 
    80003036:	ff0fd0ef          	jal	80000826 <hpt_init>
    vspt_init();
    8000303a:	e7afd0ef          	jal	800006b4 <vspt_init>

    TEST_SETUP_EXCEPT();
    8000303e:	0ff0000f          	fence
    80003042:	4785                	li	a5,1
    80003044:	0003a417          	auipc	s0,0x3a
    80003048:	fcc40413          	add	s0,s0,-52 # 8003d010 <excpt>
    8000304c:	00f41023          	sh	a5,0(s0)
    80003050:	0003a797          	auipc	a5,0x3a
    80003054:	fe07bc23          	sd	zero,-8(a5) # 8003d048 <excpt+0x38>
    80003058:	0ff0000f          	fence
    if(curr_priv != PRIV_M){
    8000305c:	00022917          	auipc	s2,0x22
    80003060:	58890913          	add	s2,s2,1416 # 800255e4 <curr_priv>
    80003064:	00092483          	lw	s1,0(s2)
    80003068:	4791                	li	a5,4
    8000306a:	02f48763          	beq	s1,a5,80003098 <m_and_hs_using_vs_access_1+0x90>
        ERROR("trying to write as mprv from low privilege");
    8000306e:	0001a517          	auipc	a0,0x1a
    80003072:	5b250513          	add	a0,a0,1458 # 8001d620 <__func__.1+0x990>
    80003076:	354180ef          	jal	8001b3ca <printf>
    8000307a:	11100613          	li	a2,273
    8000307e:	00019597          	auipc	a1,0x19
    80003082:	93a58593          	add	a1,a1,-1734 # 8001b9b8 <__func__.12>
    80003086:	0001a517          	auipc	a0,0x1a
    8000308a:	07a50513          	add	a0,a0,122 # 8001d100 <__func__.1+0x470>
    8000308e:	33c180ef          	jal	8001b3ca <printf>
    80003092:	4501                	li	a0,0
    80003094:	7d5170ef          	jal	8001b068 <exit>
    asm volatile(
    80003098:	001009b7          	lui	s3,0x100
    set_prev_priv(priv);
    8000309c:	4509                	li	a0,2
    asm volatile(
    8000309e:	06b98993          	add	s3,s3,107 # 10006b <STACK_SIZE+0x6b>
    set_prev_priv(priv);
    800030a2:	961fd0ef          	jal	80000a02 <set_prev_priv>
    asm volatile(
    800030a6:	09b2                	sll	s3,s3,0xc
    800030a8:	00020a17          	auipc	s4,0x20
    800030ac:	500a3a03          	ld	s4,1280(s4) # 800235a8 <__func__.1+0x6918>
    800030b0:	00020ab7          	lui	s5,0x20
    800030b4:	300aa073          	csrs	mstatus,s5
    800030b8:	0149b023          	sd	s4,0(s3)
    800030bc:	300ab073          	csrc	mstatus,s5
    if(curr_priv != PRIV_M){
    800030c0:	00092783          	lw	a5,0(s2)
    800030c4:	02978763          	beq	a5,s1,800030f2 <m_and_hs_using_vs_access_1+0xea>
        ERROR("trying to read as mprv from low privilege");
    800030c8:	0001a517          	auipc	a0,0x1a
    800030cc:	59850513          	add	a0,a0,1432 # 8001d660 <__func__.1+0x9d0>
    800030d0:	2fa180ef          	jal	8001b3ca <printf>
    800030d4:	0fe00613          	li	a2,254
    800030d8:	00019597          	auipc	a1,0x19
    800030dc:	8f058593          	add	a1,a1,-1808 # 8001b9c8 <__func__.11>
    800030e0:	0001a517          	auipc	a0,0x1a
    800030e4:	02050513          	add	a0,a0,32 # 8001d100 <__func__.1+0x470>
    800030e8:	2e2180ef          	jal	8001b3ca <printf>
    800030ec:	4501                	li	a0,0
    800030ee:	77b170ef          	jal	8001b068 <exit>
    set_prev_priv(priv);
    800030f2:	4509                	li	a0,2
    800030f4:	90ffd0ef          	jal	80000a02 <set_prev_priv>
    asm volatile(
    800030f8:	300aa073          	csrs	mstatus,s5
    800030fc:	0009b483          	ld	s1,0(s3)
    80003100:	300ab073          	csrc	mstatus,s5
    write64_mprv(PRIV_VS, vaddr, 0x1107ec0ffee);
    val = read64_mprv(PRIV_VS, vaddr);
    TEST_ASSERT("machine sets mprv to access vs space",
    80003104:	0001a617          	auipc	a2,0x1a
    80003108:	59c60613          	add	a2,a2,1436 # 8001d6a0 <__func__.1+0xa10>
    8000310c:	08200593          	li	a1,130
    80003110:	0001a517          	auipc	a0,0x1a
    80003114:	e8050513          	add	a0,a0,-384 # 8001cf90 <__func__.1+0x300>
    80003118:	2b2180ef          	jal	8001b3ca <printf>
    8000311c:	00144783          	lbu	a5,1(s0)
    80003120:	2c079663          	bnez	a5,800033ec <m_and_hs_using_vs_access_1+0x3e4>
    80003124:	43448e63          	beq	s1,s4,80003560 <m_and_hs_using_vs_access_1+0x558>
    80003128:	0001a597          	auipc	a1,0x1a
    8000312c:	e4058593          	add	a1,a1,-448 # 8001cf68 <__func__.1+0x2d8>
    80003130:	0001a517          	auipc	a0,0x1a
    80003134:	e7850513          	add	a0,a0,-392 # 8001cfa8 <__func__.1+0x318>
    80003138:	292180ef          	jal	8001b3ca <printf>
    8000313c:	0001a517          	auipc	a0,0x1a
    80003140:	e7450513          	add	a0,a0,-396 # 8001cfb0 <__func__.1+0x320>
    80003144:	286180ef          	jal	8001b3ca <printf>
    80003148:	02900513          	li	a0,41
    8000314c:	150170ef          	jal	8001a29c <putchar>
    80003150:	4529                	li	a0,10
    80003152:	14a170ef          	jal	8001a29c <putchar>
    80003156:	00144783          	lbu	a5,1(s0)
    8000315a:	4981                	li	s3,0
    8000315c:	e789                	bnez	a5,80003166 <m_and_hs_using_vs_access_1+0x15e>
    8000315e:	414484b3          	sub	s1,s1,s4
    80003162:	0014b993          	seqz	s3,s1
        excpt.triggered == false && val == 0x1107ec0ffee
    );

    //TODO: test mprv to access hs space

    goto_priv(PRIV_HS);
    80003166:	450d                	li	a0,3
    80003168:	977fd0ef          	jal	80000ade <goto_priv>
    set_prev_priv(PRIV_VS);
    8000316c:	4509                	li	a0,2
    8000316e:	895fd0ef          	jal	80000a02 <set_prev_priv>

    TEST_SETUP_EXCEPT();
    80003172:	0ff0000f          	fence
    80003176:	4785                	li	a5,1
    80003178:	00f41023          	sh	a5,0(s0)
    8000317c:	0003a797          	auipc	a5,0x3a
    80003180:	ec07b623          	sd	zero,-308(a5) # 8003d048 <excpt+0x38>
    80003184:	0ff0000f          	fence
        :: "r"(value), "r"(addr): "memory");
    return value;
}

static inline uint64_t hsvd(uintptr_t addr, uint64_t value){
    asm volatile(
    80003188:	37ab7937          	lui	s2,0x37ab7
    8000318c:	001007b7          	lui	a5,0x100
    80003190:	090a                	sll	s2,s2,0x2
    80003192:	06b78793          	add	a5,a5,107 # 10006b <STACK_SIZE+0x6b>
    80003196:	eef90913          	add	s2,s2,-273 # 37ab6eef <STACK_SIZE+0x379b6eef>
    8000319a:	07b2                	sll	a5,a5,0xc
    8000319c:	6f27c073          	.4byte	0x6f27c073
    asm volatile(
    800031a0:	6c07c4f3          	.4byte	0x6c07c4f3
    hsvd(vaddr, 0xdeadbeef);
    val = hlvd(vaddr);
