
build/spike/rvh_test.elf:     file format elf64-littleriscv


Disassembly of section .boot:

0000000080000000 <_boot>:

.section .boot, "ax" 
.globl _boot
_boot:
    bnez a0, .
    80000000:	e101                	bnez	a0,80000000 <_boot>
    csrwi    sscratch, 0xf
    80000002:	1407d073          	csrwi	sscratch,15
    /* Initialize stack pointer */
    la sp, __stack_top
    80000006:	002ff117          	auipc	sp,0x2ff
    8000000a:	ffa10113          	addi	sp,sp,-6 # 802ff000 <__stack_top>

    /* Clear bss */ 
    la a0, __bss_start
    8000000e:	0003d517          	auipc	a0,0x3d
    80000012:	ff250513          	addi	a0,a0,-14 # 8003d000 <__bss_start>
    la a1, __bss_end
    80000016:	00058597          	auipc	a1,0x58
    8000001a:	0c258593          	addi	a1,a1,194 # 800580d8 <__bss_end>
    bgeu a0, a1, 2f
    8000001e:	00b57763          	bgeu	a0,a1,8000002c <_boot+0x2c>
1:
    sw zero, (a0)
    80000022:	00052023          	sw	zero,0(a0)
    addi a0, a0, 4
    80000026:	0511                	addi	a0,a0,4
    bltu a0, a1, 1b
    80000028:	feb56de3          	bltu	a0,a1,80000022 <_boot+0x22>
2:
    call _init
    8000002c:	6322b0ef          	jal	8002b65e <_init>
    call main
    80000030:	7c12b0ef          	jal	8002bff0 <main>
    li a0, 0
    80000034:	4501                	li	a0,0
    call exit
    80000036:	7ab2a0ef          	jal	8002afe0 <exit>
    j .
    8000003a:	a001                	j	8000003a <_boot+0x3a>

Disassembly of section .text:

000000008000003c <check_csr_field_spec>:
#include <stdbool.h>
#include <stdio.h>
#include <stdlib.h>
#include <rvh_test.h>

bool check_csr_field_spec(){
    8000003c:	7179                	addi	sp,sp,-48

    TEST_START();
    8000003e:	0002c597          	auipc	a1,0x2c
    80000042:	04a58593          	addi	a1,a1,74 # 8002c088 <__func__.1>
    80000046:	0002e517          	auipc	a0,0x2e
    8000004a:	18250513          	addi	a0,a0,386 # 8002e1c8 <__func__.0+0x2e0>
bool check_csr_field_spec(){
    8000004e:	f406                	sd	ra,40(sp)
    80000050:	f022                	sd	s0,32(sp)
    80000052:	ec26                	sd	s1,24(sp)
    80000054:	e84a                	sd	s2,16(sp)
    80000056:	e44e                	sd	s3,8(sp)
    80000058:	e052                	sd	s4,0(sp)
    TEST_START();
    8000005a:	3d02b0ef          	jal	8002b42a <printf>
    8000005e:	4529                	li	a0,10
    80000060:	0b82a0ef          	jal	8002a118 <putchar>

    /* this assumes machine mode */
    //check_csr_wrrd("mstatus", mstatus, (uint64_t) -1, 0x800000ca007e79aaULL);
    //check_csr_wrrd("mideleg", mideleg, (uint64_t) -1, 0x1666);
    //check_csr_wrrd("medeleg", medeleg, (uint64_t) -1, 0xb15d);
    check_csr_wrrd("mideleg", mideleg, (uint64_t)0, 0x444);
    80000064:	30302973          	csrr	s2,mideleg
    80000068:	30305073          	csrwi	mideleg,0
    8000006c:	30302473          	csrr	s0,mideleg
    80000070:	0002e617          	auipc	a2,0x2e
    80000074:	16860613          	addi	a2,a2,360 # 8002e1d8 <__func__.0+0x2f0>
    80000078:	08200593          	li	a1,130
    8000007c:	0002e517          	auipc	a0,0x2e
    80000080:	16450513          	addi	a0,a0,356 # 8002e1e0 <__func__.0+0x2f8>
    80000084:	44400493          	li	s1,1092
    80000088:	3a22b0ef          	jal	8002b42a <printf>
    8000008c:	46940163          	beq	s0,s1,800004ee <check_csr_field_spec+0x4b2>
    80000090:	0002e597          	auipc	a1,0x2e
    80000094:	12858593          	addi	a1,a1,296 # 8002e1b8 <__func__.0+0x2d0>
    80000098:	0002e517          	auipc	a0,0x2e
    8000009c:	16050513          	addi	a0,a0,352 # 8002e1f8 <__func__.0+0x310>
    800000a0:	38a2b0ef          	jal	8002b42a <printf>
    800000a4:	0002e517          	auipc	a0,0x2e
    800000a8:	15c50513          	addi	a0,a0,348 # 8002e200 <__func__.0+0x318>
    800000ac:	37e2b0ef          	jal	8002b42a <printf>
    800000b0:	8622                	mv	a2,s0
    800000b2:	86a6                	mv	a3,s1
    800000b4:	4581                	li	a1,0
    800000b6:	0002e517          	auipc	a0,0x2e
    800000ba:	15250513          	addi	a0,a0,338 # 8002e208 <__func__.0+0x320>
    800000be:	36c2b0ef          	jal	8002b42a <printf>
    800000c2:	02900513          	li	a0,41
    800000c6:	0522a0ef          	jal	8002a118 <putchar>
    800000ca:	4529                	li	a0,10
    800000cc:	04c2a0ef          	jal	8002a118 <putchar>
    800000d0:	4401                	li	s0,0
    800000d2:	30391073          	csrw	mideleg,s2
    //check_csr_wrrd("mip", mip, (uint64_t) -1, 0x6e6);
    //check_csr_wrrd("mie", mie, (uint64_t) -1, 0x1eee);
    check_csr_wrrd("mtinst", CSR_MTINST, (uint64_t) -1, (uint64_t) -1);
    800000d6:	34a029f3          	csrr	s3,0x34a
    800000da:	54fd                	li	s1,-1
    800000dc:	34a49073          	csrw	0x34a,s1
    800000e0:	34a02973          	csrr	s2,0x34a
    800000e4:	0002e617          	auipc	a2,0x2e
    800000e8:	13c60613          	addi	a2,a2,316 # 8002e220 <__func__.0+0x338>
    800000ec:	08200593          	li	a1,130
    800000f0:	0002e517          	auipc	a0,0x2e
    800000f4:	0f050513          	addi	a0,a0,240 # 8002e1e0 <__func__.0+0x2f8>
    800000f8:	3322b0ef          	jal	8002b42a <printf>
    800000fc:	30990f63          	beq	s2,s1,8000041a <check_csr_field_spec+0x3de>
    80000100:	0002e597          	auipc	a1,0x2e
    80000104:	0b858593          	addi	a1,a1,184 # 8002e1b8 <__func__.0+0x2d0>
    80000108:	0002e517          	auipc	a0,0x2e
    8000010c:	0f050513          	addi	a0,a0,240 # 8002e1f8 <__func__.0+0x310>
    80000110:	31a2b0ef          	jal	8002b42a <printf>
    80000114:	0002e517          	auipc	a0,0x2e
    80000118:	0ec50513          	addi	a0,a0,236 # 8002e200 <__func__.0+0x318>
    8000011c:	30e2b0ef          	jal	8002b42a <printf>
    80000120:	86a6                	mv	a3,s1
    80000122:	864a                	mv	a2,s2
    80000124:	85a6                	mv	a1,s1
    80000126:	0002e517          	auipc	a0,0x2e
    8000012a:	0e250513          	addi	a0,a0,226 # 8002e208 <__func__.0+0x320>
    8000012e:	2fc2b0ef          	jal	8002b42a <printf>
    80000132:	02900513          	li	a0,41
    80000136:	7e3290ef          	jal	8002a118 <putchar>
    8000013a:	4529                	li	a0,10
    8000013c:	7dd290ef          	jal	8002a118 <putchar>
    80000140:	4401                	li	s0,0
    80000142:	34a99073          	csrw	0x34a,s3
    check_csr_wrrd("mtval2", CSR_MTVAL2, (uint64_t) -1, (uint64_t) -1);
    80000146:	34b029f3          	csrr	s3,0x34b
    8000014a:	54fd                	li	s1,-1
    8000014c:	34b49073          	csrw	0x34b,s1
    80000150:	34b02973          	csrr	s2,0x34b
    80000154:	0002e617          	auipc	a2,0x2e
    80000158:	0d460613          	addi	a2,a2,212 # 8002e228 <__func__.0+0x340>
    8000015c:	08200593          	li	a1,130
    80000160:	0002e517          	auipc	a0,0x2e
    80000164:	08050513          	addi	a0,a0,128 # 8002e1e0 <__func__.0+0x2f8>
    80000168:	2c22b0ef          	jal	8002b42a <printf>
    8000016c:	36990363          	beq	s2,s1,800004d2 <check_csr_field_spec+0x496>
    80000170:	0002e597          	auipc	a1,0x2e
    80000174:	04858593          	addi	a1,a1,72 # 8002e1b8 <__func__.0+0x2d0>
    80000178:	0002e517          	auipc	a0,0x2e
    8000017c:	08050513          	addi	a0,a0,128 # 8002e1f8 <__func__.0+0x310>
    80000180:	2aa2b0ef          	jal	8002b42a <printf>
    80000184:	0002e517          	auipc	a0,0x2e
    80000188:	07c50513          	addi	a0,a0,124 # 8002e200 <__func__.0+0x318>
    8000018c:	29e2b0ef          	jal	8002b42a <printf>
    80000190:	86a6                	mv	a3,s1
    80000192:	864a                	mv	a2,s2
    80000194:	85a6                	mv	a1,s1
    80000196:	0002e517          	auipc	a0,0x2e
    8000019a:	07250513          	addi	a0,a0,114 # 8002e208 <__func__.0+0x320>
    8000019e:	28c2b0ef          	jal	8002b42a <printf>
    800001a2:	02900513          	li	a0,41
    800001a6:	773290ef          	jal	8002a118 <putchar>
    800001aa:	4529                	li	a0,10
    800001ac:	76d290ef          	jal	8002a118 <putchar>
    800001b0:	4401                	li	s0,0
    800001b2:	34b99073          	csrw	0x34b,s3
    //check_csr_wrrd("hstatus", CSR_HSTATUS, (uint64_t) -1, 0x30053f3e0);
    //check_csr_wrrd("hideleg", CSR_HIDELEG, (uint64_t) -1, 0x444);
    //check_csr_wrrd("hedeleg", CSR_HEDELEG, (uint64_t) -1, 0xb1ff);
    //check_csr_wrrd("hvip", CSR_HVIP, (uint64_t) -1, 0x444);
    //check_csr_wrrd("hip", CSR_HIP, (uint64_t) -1, 0x4);
    check_csr_wrrd("hie", CSR_HIE, (uint64_t) -1, 0x444);
    800001b6:	60402a73          	csrr	s4,hie
    800001ba:	54fd                	li	s1,-1
    800001bc:	60449073          	csrw	hie,s1
    800001c0:	60402973          	csrr	s2,hie
    800001c4:	0002e617          	auipc	a2,0x2e
    800001c8:	06c60613          	addi	a2,a2,108 # 8002e230 <__func__.0+0x348>
    800001cc:	08200593          	li	a1,130
    800001d0:	0002e517          	auipc	a0,0x2e
    800001d4:	01050513          	addi	a0,a0,16 # 8002e1e0 <__func__.0+0x2f8>
    800001d8:	44400993          	li	s3,1092
    800001dc:	24e2b0ef          	jal	8002b42a <printf>
    800001e0:	2d390b63          	beq	s2,s3,800004b6 <check_csr_field_spec+0x47a>
    800001e4:	0002e597          	auipc	a1,0x2e
    800001e8:	fd458593          	addi	a1,a1,-44 # 8002e1b8 <__func__.0+0x2d0>
    800001ec:	0002e517          	auipc	a0,0x2e
    800001f0:	00c50513          	addi	a0,a0,12 # 8002e1f8 <__func__.0+0x310>
    800001f4:	2362b0ef          	jal	8002b42a <printf>
    800001f8:	0002e517          	auipc	a0,0x2e
    800001fc:	00850513          	addi	a0,a0,8 # 8002e200 <__func__.0+0x318>
    80000200:	22a2b0ef          	jal	8002b42a <printf>
    80000204:	86ce                	mv	a3,s3
    80000206:	864a                	mv	a2,s2
    80000208:	85a6                	mv	a1,s1
    8000020a:	0002e517          	auipc	a0,0x2e
    8000020e:	ffe50513          	addi	a0,a0,-2 # 8002e208 <__func__.0+0x320>
    80000212:	2182b0ef          	jal	8002b42a <printf>
    80000216:	02900513          	li	a0,41
    8000021a:	6ff290ef          	jal	8002a118 <putchar>
    8000021e:	4529                	li	a0,10
    80000220:	6f9290ef          	jal	8002a118 <putchar>
    80000224:	4401                	li	s0,0
    80000226:	604a1073          	csrw	hie,s4
    check_csr_wrrd("htval", CSR_HTVAL, (uint64_t) -1, (uint64_t) -1);
    8000022a:	643029f3          	csrr	s3,htval
    8000022e:	54fd                	li	s1,-1
    80000230:	64349073          	csrw	htval,s1
    80000234:	64302973          	csrr	s2,htval
    80000238:	0002e617          	auipc	a2,0x2e
    8000023c:	00060613          	mv	a2,a2
    80000240:	08200593          	li	a1,130
    80000244:	0002e517          	auipc	a0,0x2e
    80000248:	f9c50513          	addi	a0,a0,-100 # 8002e1e0 <__func__.0+0x2f8>
    8000024c:	1de2b0ef          	jal	8002b42a <printf>
    80000250:	24990563          	beq	s2,s1,8000049a <check_csr_field_spec+0x45e>
    80000254:	0002e597          	auipc	a1,0x2e
    80000258:	f6458593          	addi	a1,a1,-156 # 8002e1b8 <__func__.0+0x2d0>
    8000025c:	0002e517          	auipc	a0,0x2e
    80000260:	f9c50513          	addi	a0,a0,-100 # 8002e1f8 <__func__.0+0x310>
    80000264:	1c62b0ef          	jal	8002b42a <printf>
    80000268:	0002e517          	auipc	a0,0x2e
    8000026c:	f9850513          	addi	a0,a0,-104 # 8002e200 <__func__.0+0x318>
    80000270:	1ba2b0ef          	jal	8002b42a <printf>
    80000274:	86a6                	mv	a3,s1
    80000276:	864a                	mv	a2,s2
    80000278:	85a6                	mv	a1,s1
    8000027a:	0002e517          	auipc	a0,0x2e
    8000027e:	f8e50513          	addi	a0,a0,-114 # 8002e208 <__func__.0+0x320>
    80000282:	1a82b0ef          	jal	8002b42a <printf>
    80000286:	02900513          	li	a0,41
    8000028a:	68f290ef          	jal	8002a118 <putchar>
    8000028e:	4529                	li	a0,10
    80000290:	689290ef          	jal	8002a118 <putchar>
    80000294:	4401                	li	s0,0
    80000296:	64399073          	csrw	htval,s3
    check_csr_wrrd("htinst", CSR_HTINST, (uint64_t) -1, (uint64_t) -1);
    8000029a:	64a029f3          	csrr	s3,htinst
    8000029e:	54fd                	li	s1,-1
    800002a0:	64a49073          	csrw	htinst,s1
    800002a4:	64a02973          	csrr	s2,htinst
    800002a8:	0002e617          	auipc	a2,0x2e
    800002ac:	f9860613          	addi	a2,a2,-104 # 8002e240 <__func__.0+0x358>
    800002b0:	08200593          	li	a1,130
    800002b4:	0002e517          	auipc	a0,0x2e
    800002b8:	f2c50513          	addi	a0,a0,-212 # 8002e1e0 <__func__.0+0x2f8>
    800002bc:	16e2b0ef          	jal	8002b42a <printf>
    800002c0:	1a990f63          	beq	s2,s1,8000047e <check_csr_field_spec+0x442>
    800002c4:	0002e597          	auipc	a1,0x2e
    800002c8:	ef458593          	addi	a1,a1,-268 # 8002e1b8 <__func__.0+0x2d0>
    800002cc:	0002e517          	auipc	a0,0x2e
    800002d0:	f2c50513          	addi	a0,a0,-212 # 8002e1f8 <__func__.0+0x310>
    800002d4:	1562b0ef          	jal	8002b42a <printf>
    800002d8:	0002e517          	auipc	a0,0x2e
    800002dc:	f2850513          	addi	a0,a0,-216 # 8002e200 <__func__.0+0x318>
    800002e0:	14a2b0ef          	jal	8002b42a <printf>
    800002e4:	86a6                	mv	a3,s1
    800002e6:	864a                	mv	a2,s2
    800002e8:	85a6                	mv	a1,s1
    800002ea:	0002e517          	auipc	a0,0x2e
    800002ee:	f1e50513          	addi	a0,a0,-226 # 8002e208 <__func__.0+0x320>
    800002f2:	1382b0ef          	jal	8002b42a <printf>
    800002f6:	02900513          	li	a0,41
    800002fa:	61f290ef          	jal	8002a118 <putchar>
    800002fe:	4529                	li	a0,10
    80000300:	619290ef          	jal	8002a118 <putchar>
    80000304:	4401                	li	s0,0
    80000306:	64a99073          	csrw	htinst,s3
    //check_csr_wrrd("hgatp", CSR_HGATP, (8ULL << 60) | (1ULL << 60)-1, 0x80000000000fffffULL);
    //check_csr_wrrd("vsstatus", CSR_VSSTATUS, (uint64_t) -1, 0x80000000000c6122ULL);
    //check_csr_wrrd("vsip", CSR_VSIP, (uint64_t) -1, 0x0);
    //check_csr_wrrd("vsie", CSR_VSIE, (uint64_t) -1, 0x0);
    //check_csr_wrrd("vstvec", CSR_VSTVEC, (uint64_t) -1, 0xffffffffffffff01ULL);
    check_csr_wrrd("vsscratch", CSR_VSSCRATCH, (uint64_t) -1, (uint64_t) -1);
    8000030a:	240029f3          	csrr	s3,vsscratch
    8000030e:	54fd                	li	s1,-1
    80000310:	24049073          	csrw	vsscratch,s1
    80000314:	24002973          	csrr	s2,vsscratch
    80000318:	0002e617          	auipc	a2,0x2e
    8000031c:	f3060613          	addi	a2,a2,-208 # 8002e248 <__func__.0+0x360>
    80000320:	08200593          	li	a1,130
    80000324:	0002e517          	auipc	a0,0x2e
    80000328:	ebc50513          	addi	a0,a0,-324 # 8002e1e0 <__func__.0+0x2f8>
    8000032c:	0fe2b0ef          	jal	8002b42a <printf>
    80000330:	12990963          	beq	s2,s1,80000462 <check_csr_field_spec+0x426>
    80000334:	0002e597          	auipc	a1,0x2e
    80000338:	e8458593          	addi	a1,a1,-380 # 8002e1b8 <__func__.0+0x2d0>
    8000033c:	0002e517          	auipc	a0,0x2e
    80000340:	ebc50513          	addi	a0,a0,-324 # 8002e1f8 <__func__.0+0x310>
    80000344:	0e62b0ef          	jal	8002b42a <printf>
    80000348:	0002e517          	auipc	a0,0x2e
    8000034c:	eb850513          	addi	a0,a0,-328 # 8002e200 <__func__.0+0x318>
    80000350:	0da2b0ef          	jal	8002b42a <printf>
    80000354:	86a6                	mv	a3,s1
    80000356:	864a                	mv	a2,s2
    80000358:	85a6                	mv	a1,s1
    8000035a:	0002e517          	auipc	a0,0x2e
    8000035e:	eae50513          	addi	a0,a0,-338 # 8002e208 <__func__.0+0x320>
    80000362:	0c82b0ef          	jal	8002b42a <printf>
    80000366:	02900513          	li	a0,41
    8000036a:	5af290ef          	jal	8002a118 <putchar>
    8000036e:	4529                	li	a0,10
    80000370:	5a9290ef          	jal	8002a118 <putchar>
    80000374:	4401                	li	s0,0
    80000376:	24099073          	csrw	vsscratch,s3
    //check_csr_wrrd("vsepc", CSR_VSEPC, (uint64_t) -1, 0xfffffffffffffffeULL);
    //check_csr_wrrd("vscause", CSR_VSCAUSE, (uint64_t) -1, 0x800000000000001fULL);
    check_csr_wrrd("vstval", CSR_VSTVAL, (uint64_t) -1, 0xffffffffffffffffULL);
    8000037a:	243029f3          	csrr	s3,vstval
    8000037e:	54fd                	li	s1,-1
    80000380:	24349073          	csrw	vstval,s1
    80000384:	24302973          	csrr	s2,vstval
    80000388:	0002e617          	auipc	a2,0x2e
    8000038c:	ed060613          	addi	a2,a2,-304 # 8002e258 <__func__.0+0x370>
    80000390:	08200593          	li	a1,130
    80000394:	0002e517          	auipc	a0,0x2e
    80000398:	e4c50513          	addi	a0,a0,-436 # 8002e1e0 <__func__.0+0x2f8>
    8000039c:	08e2b0ef          	jal	8002b42a <printf>
    800003a0:	08990b63          	beq	s2,s1,80000436 <check_csr_field_spec+0x3fa>
    800003a4:	0002e597          	auipc	a1,0x2e
    800003a8:	e1458593          	addi	a1,a1,-492 # 8002e1b8 <__func__.0+0x2d0>
    800003ac:	0002e517          	auipc	a0,0x2e
    800003b0:	e4c50513          	addi	a0,a0,-436 # 8002e1f8 <__func__.0+0x310>
    800003b4:	0762b0ef          	jal	8002b42a <printf>
    800003b8:	0002e517          	auipc	a0,0x2e
    800003bc:	e4850513          	addi	a0,a0,-440 # 8002e200 <__func__.0+0x318>
    800003c0:	06a2b0ef          	jal	8002b42a <printf>
    800003c4:	86a6                	mv	a3,s1
    800003c6:	864a                	mv	a2,s2
    800003c8:	85a6                	mv	a1,s1
    800003ca:	0002e517          	auipc	a0,0x2e
    800003ce:	e3e50513          	addi	a0,a0,-450 # 8002e208 <__func__.0+0x320>
    800003d2:	0582b0ef          	jal	8002b42a <printf>
    800003d6:	02900513          	li	a0,41
    800003da:	53f290ef          	jal	8002a118 <putchar>
    800003de:	4529                	li	a0,10
    800003e0:	539290ef          	jal	8002a118 <putchar>
    800003e4:	24399073          	csrw	vstval,s3
    800003e8:	4401                	li	s0,0
    //check_csr_wrrd("vsatp", CSR_VSATP, (uint64_t) -1, 0x0);
    //check_csr_wrrd("vsatp", CSR_VSATP, (8ULL << 60) | (1ULL << 60)-1, 0x80000000000fffffULL);

    TEST_END();
    800003ea:	0002e597          	auipc	a1,0x2e
    800003ee:	dce58593          	addi	a1,a1,-562 # 8002e1b8 <__func__.0+0x2d0>
    800003f2:	0002e517          	auipc	a0,0x2e
    800003f6:	e6e50513          	addi	a0,a0,-402 # 8002e260 <__func__.0+0x378>
    800003fa:	0302b0ef          	jal	8002b42a <printf>
    800003fe:	4511                	li	a0,4
    80000400:	309000ef          	jal	80000f08 <goto_priv>
    80000404:	420010ef          	jal	80001824 <reset_state>
}
    80000408:	70a2                	ld	ra,40(sp)
    8000040a:	8522                	mv	a0,s0
    8000040c:	7402                	ld	s0,32(sp)
    8000040e:	64e2                	ld	s1,24(sp)
    80000410:	6942                	ld	s2,16(sp)
    80000412:	69a2                	ld	s3,8(sp)
    80000414:	6a02                	ld	s4,0(sp)
    80000416:	6145                	addi	sp,sp,48
    80000418:	8082                	ret
    check_csr_wrrd("mtinst", CSR_MTINST, (uint64_t) -1, (uint64_t) -1);
    8000041a:	0002e597          	auipc	a1,0x2e
    8000041e:	d8e58593          	addi	a1,a1,-626 # 8002e1a8 <__func__.0+0x2c0>
    80000422:	0002e517          	auipc	a0,0x2e
    80000426:	dd650513          	addi	a0,a0,-554 # 8002e1f8 <__func__.0+0x310>
    8000042a:	0002b0ef          	jal	8002b42a <printf>
    8000042e:	4529                	li	a0,10
    80000430:	4e9290ef          	jal	8002a118 <putchar>
    80000434:	b339                	j	80000142 <check_csr_field_spec+0x106>
    check_csr_wrrd("vstval", CSR_VSTVAL, (uint64_t) -1, 0xffffffffffffffffULL);
    80000436:	0002e597          	auipc	a1,0x2e
    8000043a:	d7258593          	addi	a1,a1,-654 # 8002e1a8 <__func__.0+0x2c0>
    8000043e:	0002e517          	auipc	a0,0x2e
    80000442:	dba50513          	addi	a0,a0,-582 # 8002e1f8 <__func__.0+0x310>
    80000446:	7e52a0ef          	jal	8002b42a <printf>
    8000044a:	4529                	li	a0,10
    8000044c:	4cd290ef          	jal	8002a118 <putchar>
    80000450:	d851                	beqz	s0,800003e4 <check_csr_field_spec+0x3a8>
    80000452:	24399073          	csrw	vstval,s3
    80000456:	4405                	li	s0,1
    TEST_END();
    80000458:	0002e597          	auipc	a1,0x2e
    8000045c:	d5058593          	addi	a1,a1,-688 # 8002e1a8 <__func__.0+0x2c0>
    80000460:	bf49                	j	800003f2 <check_csr_field_spec+0x3b6>
    check_csr_wrrd("vsscratch", CSR_VSSCRATCH, (uint64_t) -1, (uint64_t) -1);
    80000462:	0002e597          	auipc	a1,0x2e
    80000466:	d4658593          	addi	a1,a1,-698 # 8002e1a8 <__func__.0+0x2c0>
    8000046a:	0002e517          	auipc	a0,0x2e
    8000046e:	d8e50513          	addi	a0,a0,-626 # 8002e1f8 <__func__.0+0x310>
    80000472:	7b92a0ef          	jal	8002b42a <printf>
    80000476:	4529                	li	a0,10
    80000478:	4a1290ef          	jal	8002a118 <putchar>
    8000047c:	bded                	j	80000376 <check_csr_field_spec+0x33a>
    check_csr_wrrd("htinst", CSR_HTINST, (uint64_t) -1, (uint64_t) -1);
    8000047e:	0002e597          	auipc	a1,0x2e
    80000482:	d2a58593          	addi	a1,a1,-726 # 8002e1a8 <__func__.0+0x2c0>
    80000486:	0002e517          	auipc	a0,0x2e
    8000048a:	d7250513          	addi	a0,a0,-654 # 8002e1f8 <__func__.0+0x310>
    8000048e:	79d2a0ef          	jal	8002b42a <printf>
    80000492:	4529                	li	a0,10
    80000494:	485290ef          	jal	8002a118 <putchar>
    80000498:	b5bd                	j	80000306 <check_csr_field_spec+0x2ca>
    check_csr_wrrd("htval", CSR_HTVAL, (uint64_t) -1, (uint64_t) -1);
    8000049a:	0002e597          	auipc	a1,0x2e
    8000049e:	d0e58593          	addi	a1,a1,-754 # 8002e1a8 <__func__.0+0x2c0>
    800004a2:	0002e517          	auipc	a0,0x2e
    800004a6:	d5650513          	addi	a0,a0,-682 # 8002e1f8 <__func__.0+0x310>
    800004aa:	7812a0ef          	jal	8002b42a <printf>
    800004ae:	4529                	li	a0,10
    800004b0:	469290ef          	jal	8002a118 <putchar>
    800004b4:	b3cd                	j	80000296 <check_csr_field_spec+0x25a>
    check_csr_wrrd("hie", CSR_HIE, (uint64_t) -1, 0x444);
    800004b6:	0002e597          	auipc	a1,0x2e
    800004ba:	cf258593          	addi	a1,a1,-782 # 8002e1a8 <__func__.0+0x2c0>
    800004be:	0002e517          	auipc	a0,0x2e
    800004c2:	d3a50513          	addi	a0,a0,-710 # 8002e1f8 <__func__.0+0x310>
    800004c6:	7652a0ef          	jal	8002b42a <printf>
    800004ca:	4529                	li	a0,10
    800004cc:	44d290ef          	jal	8002a118 <putchar>
    800004d0:	bb99                	j	80000226 <check_csr_field_spec+0x1ea>
    check_csr_wrrd("mtval2", CSR_MTVAL2, (uint64_t) -1, (uint64_t) -1);
    800004d2:	0002e597          	auipc	a1,0x2e
    800004d6:	cd658593          	addi	a1,a1,-810 # 8002e1a8 <__func__.0+0x2c0>
    800004da:	0002e517          	auipc	a0,0x2e
    800004de:	d1e50513          	addi	a0,a0,-738 # 8002e1f8 <__func__.0+0x310>
    800004e2:	7492a0ef          	jal	8002b42a <printf>
    800004e6:	4529                	li	a0,10
    800004e8:	431290ef          	jal	8002a118 <putchar>
    800004ec:	b1d9                	j	800001b2 <check_csr_field_spec+0x176>
    check_csr_wrrd("mideleg", mideleg, (uint64_t)0, 0x444);
    800004ee:	0002e597          	auipc	a1,0x2e
    800004f2:	cba58593          	addi	a1,a1,-838 # 8002e1a8 <__func__.0+0x2c0>
    800004f6:	0002e517          	auipc	a0,0x2e
    800004fa:	d0250513          	addi	a0,a0,-766 # 8002e1f8 <__func__.0+0x310>
    800004fe:	72d2a0ef          	jal	8002b42a <printf>
    80000502:	4529                	li	a0,10
    80000504:	415290ef          	jal	8002a118 <putchar>
    80000508:	4405                	li	s0,1
    8000050a:	b6e1                	j	800000d2 <check_csr_field_spec+0x96>

000000008000050c <check_misa_h>:

bool check_misa_h(){
    8000050c:	1141                	addi	sp,sp,-16

    TEST_START();
    8000050e:	0002c597          	auipc	a1,0x2c
    80000512:	b9258593          	addi	a1,a1,-1134 # 8002c0a0 <__func__.0>
    80000516:	0002e517          	auipc	a0,0x2e
    8000051a:	cb250513          	addi	a0,a0,-846 # 8002e1c8 <__func__.0+0x2e0>
bool check_misa_h(){
    8000051e:	e406                	sd	ra,8(sp)
    80000520:	e022                	sd	s0,0(sp)
    TEST_START();
    80000522:	7092a0ef          	jal	8002b42a <printf>
    80000526:	4529                	li	a0,10
    80000528:	3f1290ef          	jal	8002a118 <putchar>

    uint64_t misa = CSRR(misa);
    8000052c:	301027f3          	csrr	a5,misa
    CSRS(misa, (1ULL << 7));
    80000530:	08000793          	li	a5,128
    80000534:	3017a073          	csrs	misa,a5

    bool hyp_ext_present = CSRR(misa) & (1ULL << 7);
    80000538:	30102473          	csrr	s0,misa
    TEST_ASSERT("check h bit after setting it",  hyp_ext_present, "hypervisor extensions not present");
    8000053c:	0002e617          	auipc	a2,0x2e
    80000540:	d2c60613          	addi	a2,a2,-724 # 8002e268 <__func__.0+0x380>
    80000544:	08200593          	li	a1,130
    80000548:	0002e517          	auipc	a0,0x2e
    8000054c:	c9850513          	addi	a0,a0,-872 # 8002e1e0 <__func__.0+0x2f8>
    bool hyp_ext_present = CSRR(misa) & (1ULL << 7);
    80000550:	08047413          	andi	s0,s0,128
    TEST_ASSERT("check h bit after setting it",  hyp_ext_present, "hypervisor extensions not present");
    80000554:	6d72a0ef          	jal	8002b42a <printf>
    80000558:	c031                	beqz	s0,8000059c <check_misa_h+0x90>
    8000055a:	0002e597          	auipc	a1,0x2e
    8000055e:	c4e58593          	addi	a1,a1,-946 # 8002e1a8 <__func__.0+0x2c0>
    80000562:	0002e517          	auipc	a0,0x2e
    80000566:	c9650513          	addi	a0,a0,-874 # 8002e1f8 <__func__.0+0x310>
    8000056a:	6c12a0ef          	jal	8002b42a <printf>
    8000056e:	4529                	li	a0,10
    80000570:	3a9290ef          	jal	8002a118 <putchar>
    //     VERBOSE("misa h bit is hardwired");
    // }

    // CSRW(misa, misa);

    TEST_END();
    80000574:	0002e597          	auipc	a1,0x2e
    80000578:	c3458593          	addi	a1,a1,-972 # 8002e1a8 <__func__.0+0x2c0>
    8000057c:	0002e517          	auipc	a0,0x2e
    80000580:	ce450513          	addi	a0,a0,-796 # 8002e260 <__func__.0+0x378>
    80000584:	6a72a0ef          	jal	8002b42a <printf>
    80000588:	4511                	li	a0,4
    8000058a:	17f000ef          	jal	80000f08 <goto_priv>
    8000058e:	296010ef          	jal	80001824 <reset_state>
}
    80000592:	60a2                	ld	ra,8(sp)
    80000594:	6402                	ld	s0,0(sp)
    TEST_END();
    80000596:	4505                	li	a0,1
}
    80000598:	0141                	addi	sp,sp,16
    8000059a:	8082                	ret
    TEST_ASSERT("check h bit after setting it",  hyp_ext_present, "hypervisor extensions not present");
    8000059c:	0002e597          	auipc	a1,0x2e
    800005a0:	c1c58593          	addi	a1,a1,-996 # 8002e1b8 <__func__.0+0x2d0>
    800005a4:	0002e517          	auipc	a0,0x2e
    800005a8:	c5450513          	addi	a0,a0,-940 # 8002e1f8 <__func__.0+0x310>
    800005ac:	67f2a0ef          	jal	8002b42a <printf>
    800005b0:	0002e517          	auipc	a0,0x2e
    800005b4:	c5050513          	addi	a0,a0,-944 # 8002e200 <__func__.0+0x318>
    800005b8:	6732a0ef          	jal	8002b42a <printf>
    800005bc:	0002e517          	auipc	a0,0x2e
    800005c0:	ccc50513          	addi	a0,a0,-820 # 8002e288 <__func__.0+0x3a0>
    800005c4:	6672a0ef          	jal	8002b42a <printf>
    800005c8:	02900513          	li	a0,41
    800005cc:	34d290ef          	jal	8002a118 <putchar>
    800005d0:	4529                	li	a0,10
    800005d2:	347290ef          	jal	8002a118 <putchar>
}
    800005d6:	60a2                	ld	ra,8(sp)
    800005d8:	6402                	ld	s0,0(sp)
        return false;
    800005da:	4501                	li	a0,0
}
    800005dc:	0141                	addi	sp,sp,16
    800005de:	8082                	ret

00000000800005e0 <hspt_init>:
            PTE_V | PTE_AD | PTE_RWX | (addr >> 2);  
        addr +=  SUPERPAGE_SIZE(1);
    }

    hspt[1][4] = 
        PTE_V | (((uintptr_t)&hspt[2][0]) >> 2);
    800005e0:	cd817057          	vsetivli	zero,2,e64,m1,ta,ma
    800005e4:	00055797          	auipc	a5,0x55
    800005e8:	a1c78793          	addi	a5,a5,-1508 # 80055000 <hspt+0x2000>
    800005ec:	5e07c157          	vmv.v.x	v2,a5
    800005f0:	00056517          	auipc	a0,0x56
    800005f4:	a1050513          	addi	a0,a0,-1520 # 80056000 <hspt+0x3000>
        hspt[1][i] = 
    800005f8:	5208a0d7          	vid.v	v1
        PTE_V | (((uintptr_t)&hspt[2][0]) >> 2);
    800005fc:	3e256157          	vslide1down.vx	v2,v2,a0
        PTE_V | (((uintptr_t)&hspt[3][0]) >> 2);
    hspt[2][0] = 
        PTE_V | (((uintptr_t)&hspt[4][0]) >> 2);

    for(int i = 0; i < 4; i++){
        hspt[3][i] = 
    80000600:	9619b1d7          	vsll.vi	v3,v1,19
        hspt[1][i] = 
    80000604:	961e30d7          	vsll.vi	v1,v1,28
    80000608:	0cf00593          	li	a1,207
        PTE_V | (((uintptr_t)&hspt[2][0]) >> 2);
    8000060c:	a2213157          	vsrl.vi	v2,v2,2
        hspt[1][i] = 
    80000610:	200007b7          	lui	a5,0x20000
        hspt[3][i] = 
    80000614:	0d8076d7          	vsetvli	a3,zero,e64,m1,ta,ma
        hspt[1][i] = 
    80000618:	97ae                	add	a5,a5,a1
        hspt[3][i] = 
    8000061a:	5208a257          	vid.v	v4
    8000061e:	40000637          	lui	a2,0x40000
        PTE_V | (((uintptr_t)&hspt[2][0]) >> 2);
    80000622:	cd817057          	vsetivli	zero,2,e64,m1,ta,ma
        hspt[3][i] = 
    80000626:	40100737          	lui	a4,0x40100
        hspt[1][i] = 
    8000062a:	0215c2d7          	vadd.vx	v5,v1,a1
        hspt[3][i] = 
    8000062e:	0cf70713          	addi	a4,a4,207 # 401000cf <STACK_SIZE+0x400000cf>
        hspt[1][i] = 
    80000632:	0217c0d7          	vadd.vx	v1,v1,a5
        hspt[3][i] = 
    80000636:	0cf60613          	addi	a2,a2,207 # 400000cf <STACK_SIZE+0x3ff000cf>
    8000063a:	02364357          	vadd.vx	v6,v3,a2
        PTE_V | (((uintptr_t)&hspt[2][0]) >> 2);
    8000063e:	2a20b157          	vor.vi	v2,v2,1
        hspt[3][i] = 
    80000642:	023741d7          	vadd.vx	v3,v3,a4
    80000646:	0d8076d7          	vsetvli	a3,zero,e64,m1,ta,ma
    8000064a:	96463257          	vsll.vi	v4,v4,12
        hspt[1][i] = 
    8000064e:	00054897          	auipc	a7,0x54
    80000652:	9c288893          	addi	a7,a7,-1598 # 80054010 <hspt+0x1010>
    hspt[1][4] = 
    80000656:	cd817057          	vsetivli	zero,2,e64,m1,ta,ma
        hspt[1][i] = 
    8000065a:	0208f0a7          	vse64.v	v1,(a7)
        PTE_V | (((uintptr_t)&hspt[1][0]) >> 2);
    8000065e:	00054797          	auipc	a5,0x54
    80000662:	9a278793          	addi	a5,a5,-1630 # 80054000 <hspt+0x1000>
    hspt[1][4] = 
    80000666:	00054e17          	auipc	t3,0x54
    8000066a:	9bae0e13          	addi	t3,t3,-1606 # 80054020 <hspt+0x1020>
        hspt[3][i] = 
    8000066e:	00056317          	auipc	t1,0x56
    80000672:	9a230313          	addi	t1,t1,-1630 # 80056010 <hspt+0x3010>
    80000676:	02057327          	vse64.v	v6,(a0)
        hspt[1][i] = 
    8000067a:	0207f2a7          	vse64.v	v5,(a5)
    hspt[1][4] = 
    8000067e:	020e7127          	vse64.v	v2,(t3)
        hspt[3][i] = 
    80000682:	020371a7          	vse64.v	v3,(t1)
        PTE_V | (((uintptr_t)&hspt[4][0]) >> 2);
    80000686:	00057717          	auipc	a4,0x57
    8000068a:	97a70713          	addi	a4,a4,-1670 # 80057000 <hspt+0x4000>
        hspt[3][i] = 
    8000068e:	0d8076d7          	vsetvli	a3,zero,e64,m1,ta,ma
    80000692:	0c000813          	li	a6,192
    80000696:	45c5                	li	a1,17
        PTE_V | (((uintptr_t)&hspt[1][0]) >> 2);
    80000698:	8389                	srli	a5,a5,0x2
        PTE_V | (((uintptr_t)&hspt[4][0]) >> 2);
    8000069a:	00275693          	srli	a3,a4,0x2
    8000069e:	5e084357          	vmv.v.x	v6,a6
        hspt[3][i] = 
    800006a2:	05ee                	slli	a1,a1,0x1b
        PTE_V | (((uintptr_t)&hspt[1][0]) >> 2);
    800006a4:	0017e793          	ori	a5,a5,1
        PTE_V | (((uintptr_t)&hspt[4][0]) >> 2);
    800006a8:	0016e693          	ori	a3,a3,1
    hspt[0][0] =
    800006ac:	00053897          	auipc	a7,0x53
    800006b0:	95488893          	addi	a7,a7,-1708 # 80053000 <hspt>
        hspt[3][i] = 
    800006b4:	0245c257          	vadd.vx	v4,v4,a1
    hspt[0][0] =
    800006b8:	00f8b023          	sd	a5,0(a7)
        hspt[3][i] = 
    800006bc:	00039597          	auipc	a1,0x39
    800006c0:	16458593          	addi	a1,a1,356 # 80039820 <test_page_perm_table>
    hspt[2][0] = 
    800006c4:	00055797          	auipc	a5,0x55
    800006c8:	92d7be23          	sd	a3,-1732(a5) # 80055000 <hspt+0x2000>
        hspt[3][i] = 
    800006cc:	1ff00693          	li	a3,511
    800006d0:	0d86f7d7          	vsetvli	a5,a3,e64,m1,ta,ma
    }

    addr = TEST_PPAGE_BASE;
    for(int i = 0; i < TEST_PAGE_MAX; i++){
        hspt[4][i] = (addr >> 2) | PTE_AD |
            test_page_perm_table[i].vs;
    800006d4:	2205f107          	vlseg2e64.v	v2,(a1)
        hspt[4][i] = (addr >> 2) | PTE_AD |
    800006d8:	a24130d7          	vsrl.vi	v1,v4,2
    800006dc:	00c79513          	slli	a0,a5,0xc
    800006e0:	0d807657          	vsetvli	a2,zero,e64,m1,ta,ma
    800006e4:	5e0542d7          	vmv.v.x	v5,a0
    800006e8:	0d87f057          	vsetvli	zero,a5,e64,m1,ta,ma
    for(int i = 0; i < TEST_PAGE_MAX; i++){
    800006ec:	00479813          	slli	a6,a5,0x4
    800006f0:	00379513          	slli	a0,a5,0x3
    800006f4:	8e9d                	sub	a3,a3,a5
    800006f6:	95c2                	add	a1,a1,a6
        hspt[4][i] = (addr >> 2) | PTE_AD |
    800006f8:	2a610157          	vor.vv	v2,v6,v2
    800006fc:	0d807657          	vsetvli	a2,zero,e64,m1,ta,ma
    80000700:	02428257          	vadd.vv	v4,v4,v5
    80000704:	0d87f057          	vsetvli	zero,a5,e64,m1,ta,ma
    80000708:	2a1100d7          	vor.vv	v1,v1,v2
    8000070c:	020770a7          	vse64.v	v1,(a4)
    for(int i = 0; i < TEST_PAGE_MAX; i++){
    80000710:	972a                	add	a4,a4,a0
    80000712:	fedd                	bnez	a3,800006d0 <hspt_init+0xf0>
        hspt[4][i] = (addr >> 2) | PTE_AD |
    80000714:	0003b717          	auipc	a4,0x3b
    80000718:	0fc73703          	ld	a4,252(a4) # 8003b810 <test_page_perm_table+0x1ff0>
        addr += PAGE_SIZE;
    }


    if(curr_priv == PRIV_HS || curr_priv == PRIV_M){
    8000071c:	0003b797          	auipc	a5,0x3b
    80000720:	1087a783          	lw	a5,264(a5) # 8003b824 <curr_priv>
        hspt[4][i] = (addr >> 2) | PTE_AD |
    80000724:	220806b7          	lui	a3,0x22080
    80000728:	cc068693          	addi	a3,a3,-832 # 2207fcc0 <STACK_SIZE+0x21f7fcc0>
    8000072c:	8f55                	or	a4,a4,a3
    8000072e:	00058697          	auipc	a3,0x58
    80000732:	8ce6b523          	sd	a4,-1846(a3) # 80057ff8 <hspt+0x4ff8>
    if(curr_priv == PRIV_HS || curr_priv == PRIV_M){
    80000736:	37f5                	addiw	a5,a5,-3
    80000738:	4705                	li	a4,1
    8000073a:	00f76a63          	bltu	a4,a5,8000074e <hspt_init+0x16e>
        uintptr_t satp = (((uintptr_t)hspt) >> 12) | (0x9ULL << 60);
    8000073e:	5765                	li	a4,-7
    80000740:	00c8d793          	srli	a5,a7,0xc
    80000744:	1772                	slli	a4,a4,0x3c
    80000746:	8fd9                	or	a5,a5,a4
        CSRW(satp, satp);
    80000748:	18079073          	csrw	satp,a5
    } else {
        ERROR("trying to set hs level satp from lower privilege");
    8000074c:	8082                	ret
void hspt_init(){
    8000074e:	1141                	addi	sp,sp,-16
        ERROR("trying to set hs level satp from lower privilege");
    80000750:	0002e517          	auipc	a0,0x2e
    80000754:	bb850513          	addi	a0,a0,-1096 # 8002e308 <__func__.0+0x420>
void hspt_init(){
    80000758:	e406                	sd	ra,8(sp)
        ERROR("trying to set hs level satp from lower privilege");
    8000075a:	4d12a0ef          	jal	8002b42a <printf>
    8000075e:	1bd00613          	li	a2,445
    80000762:	0002c597          	auipc	a1,0x2c
    80000766:	94e58593          	addi	a1,a1,-1714 # 8002c0b0 <__func__.2>
    8000076a:	0002e517          	auipc	a0,0x2e
    8000076e:	be650513          	addi	a0,a0,-1050 # 8002e350 <__func__.0+0x468>
    80000772:	4b92a0ef          	jal	8002b42a <printf>
    80000776:	4501                	li	a0,0
    80000778:	0692a0ef          	jal	8002afe0 <exit>

000000008000077c <vspt_init>:
            PTE_V | PTE_AD | PTE_RWX | (addr >> 2);  
        addr +=  SUPERPAGE_SIZE(1);
    }

    vspt[1][4] = 
        PTE_V | (((uintptr_t)&vspt[2][0]) >> 2);
    8000077c:	cd817057          	vsetivli	zero,2,e64,m1,ta,ma
    80000780:	0004e797          	auipc	a5,0x4e
    80000784:	88078793          	addi	a5,a5,-1920 # 8004e000 <vspt+0x2000>
    80000788:	5e07c0d7          	vmv.v.x	v1,a5
void vspt_init(){
    8000078c:	1101                	addi	sp,sp,-32
    8000078e:	e822                	sd	s0,16(sp)
        PTE_V | (((uintptr_t)&vspt[2][0]) >> 2);
    80000790:	0004f417          	auipc	s0,0x4f
    80000794:	87040413          	addi	s0,s0,-1936 # 8004f000 <vspt+0x3000>
    80000798:	3e1460d7          	vslide1down.vx	v1,v1,s0
        vspt[1][i] = 
    8000079c:	5208a157          	vid.v	v2
    800007a0:	0cf00713          	li	a4,207
    800007a4:	962e3157          	vsll.vi	v2,v2,28
        PTE_V | (((uintptr_t)&vspt[2][0]) >> 2);
    800007a8:	a21130d7          	vsrl.vi	v1,v1,2
        vspt[1][i] = 
    800007ac:	200007b7          	lui	a5,0x20000
    800007b0:	97ba                	add	a5,a5,a4
    800007b2:	022741d7          	vadd.vx	v3,v2,a4
        PTE_V | (((uintptr_t)&vspt[2][0]) >> 2);
    800007b6:	2a10b0d7          	vor.vi	v1,v1,1
        vspt[1][i] = 
    800007ba:	0227c157          	vadd.vx	v2,v2,a5
        PTE_V | (((uintptr_t)&vspt[1][0]) >> 2);
    800007be:	0004d717          	auipc	a4,0x4d
    800007c2:	84270713          	addi	a4,a4,-1982 # 8004d000 <vspt+0x1000>
    vspt[1][5] = 
        PTE_V | (((uintptr_t)&vspt[3][0]) >> 2);
    vspt[1][6] = 
        PTE_V | (((uintptr_t)&vspt[4][0]) >> 2);
    800007c6:	00050517          	auipc	a0,0x50
    800007ca:	83a50513          	addi	a0,a0,-1990 # 80050000 <vspt+0x4000>
        PTE_V | (((uintptr_t)&vspt[1][0]) >> 2);
    800007ce:	00275793          	srli	a5,a4,0x2
        PTE_V | (((uintptr_t)&vspt[4][0]) >> 2);
    800007d2:	00255693          	srli	a3,a0,0x2
void vspt_init(){
    800007d6:	e426                	sd	s1,8(sp)
    800007d8:	ec06                	sd	ra,24(sp)
    vspt[1][4] = 
    800007da:	0004d897          	auipc	a7,0x4d
    800007de:	84688893          	addi	a7,a7,-1978 # 8004d020 <vspt+0x1020>
        PTE_V | (((uintptr_t)&vspt[4][0]) >> 2);
    800007e2:	0016e693          	ori	a3,a3,1
        vspt[1][i] = 
    800007e6:	0004d817          	auipc	a6,0x4d
    800007ea:	82a80813          	addi	a6,a6,-2006 # 8004d010 <vspt+0x1010>
        PTE_V | (((uintptr_t)&vspt[1][0]) >> 2);
    800007ee:	0017e793          	ori	a5,a5,1
    vspt[0][0] = 
    800007f2:	0004c497          	auipc	s1,0x4c
    800007f6:	80e48493          	addi	s1,s1,-2034 # 8004c000 <vspt>
    
    addr = MEM_BASE;
    for(int i = 0; i < 512; i++) vspt[4][i] = 0;
    800007fa:	6605                	lui	a2,0x1
    800007fc:	4581                	li	a1,0
        vspt[1][i] = 
    800007fe:	020771a7          	vse64.v	v3,(a4)
    80000802:	02087127          	vse64.v	v2,(a6)
    vspt[1][6] = 
    80000806:	fb14                	sd	a3,48(a4)
    vspt[1][4] = 
    80000808:	0208f0a7          	vse64.v	v1,(a7)
    vspt[0][0] = 
    8000080c:	e09c                	sd	a5,0(s1)
    for(int i = 0; i < 512; i++) vspt[4][i] = 0;
    8000080e:	5212a0ef          	jal	8002b52e <memset>
    80000812:	0d8078d7          	vsetvli	a7,zero,e64,m1,ta,ma
    80000816:	5208a157          	vid.v	v2
    8000081a:	4705                	li	a4,1
    8000081c:	962ab157          	vsll.vi	v2,v2,21
    80000820:	1702                	slli	a4,a4,0x20
    80000822:	0cf00693          	li	a3,207
    80000826:	02274157          	vadd.vx	v2,v2,a4
    8000082a:	5e06c2d7          	vmv.v.x	v5,a3
    8000082e:	8722                	mv	a4,s0
    80000830:	20000693          	li	a3,512
    80000834:	0d86f7d7          	vsetvli	a5,a3,e64,m1,ta,ma
        addr +=  SUPERPAGE_SIZE(2);
    }

    addr = 4 * SUPERPAGE_SIZE(1);                                        
    for(int i = 0; i < 512; i++){
        vspt[3][i] = (addr >> 2) |
    80000838:	a22130d7          	vsrl.vi	v1,v2,2
    8000083c:	01579613          	slli	a2,a5,0x15
    80000840:	0d8075d7          	vsetvli	a1,zero,e64,m1,ta,ma
    80000844:	5e0641d7          	vmv.v.x	v3,a2
             PTE_V | PTE_AD | PTE_RWX;  
    80000848:	0d87f057          	vsetvli	zero,a5,e64,m1,ta,ma
    8000084c:	2a1280d7          	vor.vv	v1,v1,v5
    for(int i = 0; i < 512; i++){
    80000850:	00379613          	slli	a2,a5,0x3
    80000854:	8e9d                	sub	a3,a3,a5
        vspt[3][i] = (addr >> 2) |
    80000856:	020770a7          	vse64.v	v1,(a4)
    8000085a:	0d8075d7          	vsetvli	a1,zero,e64,m1,ta,ma
    8000085e:	02218157          	vadd.vv	v2,v2,v3
    for(int i = 0; i < 512; i++){
    80000862:	9732                	add	a4,a4,a2
    80000864:	fae1                	bnez	a3,80000834 <vspt_init+0xb8>
        addr +=  SUPERPAGE_SIZE(2);
    }  

    vspt[2][0] = 
    80000866:	5208a257          	vid.v	v4
    8000086a:	4605                	li	a2,1
    8000086c:	96463257          	vsll.vi	v4,v4,12
        PTE_V | (((uintptr_t)&vspt[5][0]) >> 2);
    80000870:	00050717          	auipc	a4,0x50
    80000874:	79070713          	addi	a4,a4,1936 # 80051000 <vspt+0x5000>
    vspt[2][0] = 
    80000878:	1602                	slli	a2,a2,0x20
        PTE_V | (((uintptr_t)&vspt[5][0]) >> 2);
    8000087a:	00275793          	srli	a5,a4,0x2
    vspt[2][0] = 
    8000087e:	02464257          	vadd.vx	v4,v4,a2
    80000882:	0c000593          	li	a1,192
        PTE_V | (((uintptr_t)&vspt[5][0]) >> 2);
    80000886:	0017e793          	ori	a5,a5,1
    vspt[2][0] = 
    8000088a:	0004d317          	auipc	t1,0x4d
    8000088e:	77630313          	addi	t1,t1,1910 # 8004e000 <vspt+0x2000>
    80000892:	5e05c3d7          	vmv.v.x	v7,a1
    80000896:	00f33023          	sd	a5,0(t1)
    8000089a:	1ff00693          	li	a3,511
    8000089e:	00039597          	auipc	a1,0x39
    800008a2:	f8258593          	addi	a1,a1,-126 # 80039820 <test_page_perm_table>
    800008a6:	0d86f7d7          	vsetvli	a5,a3,e64,m1,ta,ma

    addr = TEST_VPAGE_BASE;
    for(int i = 0; i < TEST_PAGE_MAX; i++){
        vspt[5][i] = (addr >> 2) | PTE_AD |
            test_page_perm_table[i].vs;
    800008aa:	2205f107          	vlseg2e64.v	v2,(a1)
        vspt[5][i] = (addr >> 2) | PTE_AD |
    800008ae:	a24130d7          	vsrl.vi	v1,v4,2
    800008b2:	00c79513          	slli	a0,a5,0xc
    800008b6:	0d807657          	vsetvli	a2,zero,e64,m1,ta,ma
    800008ba:	5e054357          	vmv.v.x	v6,a0
    800008be:	0d87f057          	vsetvli	zero,a5,e64,m1,ta,ma
    for(int i = 0; i < TEST_PAGE_MAX; i++){
    800008c2:	00479813          	slli	a6,a5,0x4
    800008c6:	00379513          	slli	a0,a5,0x3
    800008ca:	8e9d                	sub	a3,a3,a5
    800008cc:	95c2                	add	a1,a1,a6
        vspt[5][i] = (addr >> 2) | PTE_AD |
    800008ce:	2a710157          	vor.vv	v2,v7,v2
    800008d2:	0d807657          	vsetvli	a2,zero,e64,m1,ta,ma
    800008d6:	02430257          	vadd.vv	v4,v4,v6
    800008da:	0d87f057          	vsetvli	zero,a5,e64,m1,ta,ma
    800008de:	2a208157          	vor.vv	v2,v2,v1
    800008e2:	02077127          	vse64.v	v2,(a4)
    for(int i = 0; i < TEST_PAGE_MAX; i++){
    800008e6:	972a                	add	a4,a4,a0
    800008e8:	fedd                	bnez	a3,800008a6 <vspt_init+0x12a>
        addr +=  PAGE_SIZE;
    }

    vspt[2][1] = 
    800008ea:	0d8078d7          	vsetvli	a7,zero,e64,m1,ta,ma
    800008ee:	5208a157          	vid.v	v2
        vspt[5][i] = (addr >> 2) | PTE_AD |
    800008f2:	0003b697          	auipc	a3,0x3b
    800008f6:	f1e6b683          	ld	a3,-226(a3) # 8003b810 <test_page_perm_table+0x1ff0>
    vspt[2][1] = 
    800008fa:	96263157          	vsll.vi	v2,v2,12
    800008fe:	008015b7          	lui	a1,0x801
        vspt[5][i] = (addr >> 2) | PTE_AD |
    80000902:	00051717          	auipc	a4,0x51
    80000906:	6fe70713          	addi	a4,a4,1790 # 80052000 <vspt+0x6000>
    8000090a:	40080637          	lui	a2,0x40080
    vspt[2][1] = 
    8000090e:	05a6                	slli	a1,a1,0x9
        vspt[5][i] = (addr >> 2) | PTE_AD |
    80000910:	cc060613          	addi	a2,a2,-832 # 4007fcc0 <STACK_SIZE+0x3ff7fcc0>
        PTE_V | (((uintptr_t)&vspt[6][0]) >> 2);
    80000914:	00275793          	srli	a5,a4,0x2
    vspt[2][1] = 
    80000918:	0225c157          	vadd.vx	v2,v2,a1
        vspt[5][i] = (addr >> 2) | PTE_AD |
    8000091c:	8ed1                	or	a3,a3,a2
        PTE_V | (((uintptr_t)&vspt[6][0]) >> 2);
    8000091e:	0017e793          	ori	a5,a5,1
        vspt[5][i] = (addr >> 2) | PTE_AD |
    80000922:	fed73c23          	sd	a3,-8(a4)
    vspt[2][1] = 
    80000926:	00f33423          	sd	a5,8(t1)
    8000092a:	20000693          	li	a3,512
    8000092e:	0d86f7d7          	vsetvli	a5,a3,e64,m1,ta,ma

    addr = 4 * SUPERPAGE_SIZE(1) + SUPERPAGE_SIZE(2);
    for(int i = 0; i < 512; i++){
        vspt[6][i] = (addr >> 2) | 
    80000932:	a22130d7          	vsrl.vi	v1,v2,2
    80000936:	00c79613          	slli	a2,a5,0xc
    8000093a:	0d8075d7          	vsetvli	a1,zero,e64,m1,ta,ma
    8000093e:	5e0641d7          	vmv.v.x	v3,a2
            PTE_V | PTE_AD | PTE_RWX; 
    80000942:	0d87f057          	vsetvli	zero,a5,e64,m1,ta,ma
    80000946:	2a1280d7          	vor.vv	v1,v1,v5
    for(int i = 0; i < 512; i++){
    8000094a:	00379613          	slli	a2,a5,0x3
    8000094e:	8e9d                	sub	a3,a3,a5
        vspt[6][i] = (addr >> 2) | 
    80000950:	020770a7          	vse64.v	v1,(a4)
    80000954:	0d8075d7          	vsetvli	a1,zero,e64,m1,ta,ma
    80000958:	02218157          	vadd.vv	v2,v2,v3
    for(int i = 0; i < 512; i++){
    8000095c:	9732                	add	a4,a4,a2
    8000095e:	fae1                	bnez	a3,8000092e <vspt_init+0x1b2>
        addr +=  PAGE_SIZE;
    }  

    uintptr_t satp = (((uintptr_t)vspt) >> 12) | (0x9ULL << 60);
    if(curr_priv == PRIV_VS){
    80000960:	0003b717          	auipc	a4,0x3b
    80000964:	ec472703          	lw	a4,-316(a4) # 8003b824 <curr_priv>
    uintptr_t satp = (((uintptr_t)vspt) >> 12) | (0x9ULL << 60);
    80000968:	57e5                	li	a5,-7
    8000096a:	80b1                	srli	s1,s1,0xc
    8000096c:	17f2                	slli	a5,a5,0x3c
    if(curr_priv == PRIV_VS){
    8000096e:	4689                	li	a3,2
    uintptr_t satp = (((uintptr_t)vspt) >> 12) | (0x9ULL << 60);
    80000970:	8cdd                	or	s1,s1,a5
    if(curr_priv == PRIV_VS){
    80000972:	04d70263          	beq	a4,a3,800009b6 <vspt_init+0x23a>
        CSRW(satp, satp);
    } else if(curr_priv == PRIV_HS || curr_priv == PRIV_M){
    80000976:	3775                	addiw	a4,a4,-3
    80000978:	4785                	li	a5,1
    8000097a:	00e7e963          	bltu	a5,a4,8000098c <vspt_init+0x210>
        CSRW(CSR_VSATP, satp);
    8000097e:	28049073          	csrw	vsatp,s1
    } else {
        ERROR("");
    }

}
    80000982:	60e2                	ld	ra,24(sp)
    80000984:	6442                	ld	s0,16(sp)
    80000986:	64a2                	ld	s1,8(sp)
    80000988:	6105                	addi	sp,sp,32
    8000098a:	8082                	ret
        ERROR("");
    8000098c:	0002e517          	auipc	a0,0x2e
    80000990:	9d450513          	addi	a0,a0,-1580 # 8002e360 <__func__.0+0x478>
    80000994:	2972a0ef          	jal	8002b42a <printf>
    80000998:	20100613          	li	a2,513
    8000099c:	0002b597          	auipc	a1,0x2b
    800009a0:	72458593          	addi	a1,a1,1828 # 8002c0c0 <__func__.1>
    800009a4:	0002e517          	auipc	a0,0x2e
    800009a8:	9ac50513          	addi	a0,a0,-1620 # 8002e350 <__func__.0+0x468>
    800009ac:	27f2a0ef          	jal	8002b42a <printf>
    800009b0:	4501                	li	a0,0
    800009b2:	62e2a0ef          	jal	8002afe0 <exit>
        CSRW(satp, satp);
    800009b6:	18049073          	csrw	satp,s1
}
    800009ba:	60e2                	ld	ra,24(sp)
    800009bc:	6442                	ld	s0,16(sp)
    800009be:	64a2                	ld	s1,8(sp)
    800009c0:	6105                	addi	sp,sp,32
    800009c2:	8082                	ret

00000000800009c4 <hpt_init>:

pte_t hpt_root[PAGE_SIZE*4/sizeof(pte_t)] __attribute__((aligned(PAGE_SIZE*4)));
pte_t hpt[7][PAGE_SIZE/sizeof(pte_t)] __attribute__((aligned(PAGE_SIZE)));

void hpt_init(){
    800009c4:	1101                	addi	sp,sp,-32
    800009c6:	e822                	sd	s0,16(sp)

    for(int i = 0; i < 2048; i++){
        hpt_root[i] = 0;
    800009c8:	00047417          	auipc	s0,0x47
    800009cc:	63840413          	addi	s0,s0,1592 # 80048000 <hpt_root>
    800009d0:	6611                	lui	a2,0x4
    800009d2:	4581                	li	a1,0
    800009d4:	8522                	mv	a0,s0
void hpt_init(){
    800009d6:	ec06                	sd	ra,24(sp)
    800009d8:	e426                	sd	s1,8(sp)
        hpt_root[i] = 0;
    800009da:	3552a0ef          	jal	8002b52e <memset>

    hpt[1][4] = 
        PTE_V | (((uintptr_t)&hpt[2][0]) >> 2);

    hpt[0][0] = 
        PTE_V | (((uintptr_t)&hpt[3][0]) >> 2);
    800009de:	cd817057          	vsetivli	zero,2,e64,m1,ta,ma
    800009e2:	00042797          	auipc	a5,0x42
    800009e6:	61e78793          	addi	a5,a5,1566 # 80043000 <hpt+0x3000>
    800009ea:	5e07c0d7          	vmv.v.x	v1,a5
    800009ee:	00043797          	auipc	a5,0x43
    800009f2:	61278793          	addi	a5,a5,1554 # 80044000 <hpt+0x4000>
        hpt[1][i] = 
    800009f6:	5208a157          	vid.v	v2
        PTE_V | (((uintptr_t)&hpt[3][0]) >> 2);
    800009fa:	3e17e0d7          	vslide1down.vx	v1,v1,a5
        hpt[1][i] = 
    800009fe:	962e3157          	vsll.vi	v2,v2,28
    80000a02:	0df00713          	li	a4,223
        PTE_V | (((uintptr_t)&hpt[3][0]) >> 2);
    80000a06:	a21130d7          	vsrl.vi	v1,v1,2
        hpt[1][i] = 
    80000a0a:	200007b7          	lui	a5,0x20000
    80000a0e:	97ba                	add	a5,a5,a4
    80000a10:	022741d7          	vadd.vx	v3,v2,a4
        PTE_V | (((uintptr_t)&hpt[0][0]) >> 2);
    80000a14:	0003f897          	auipc	a7,0x3f
    80000a18:	5ec88893          	addi	a7,a7,1516 # 80040000 <hpt>
        PTE_V | (((uintptr_t)&hpt[1][0]) >> 2);
    80000a1c:	00040717          	auipc	a4,0x40
    80000a20:	5e470713          	addi	a4,a4,1508 # 80041000 <hpt+0x1000>
        hpt[1][i] = 
    80000a24:	0227c157          	vadd.vx	v2,v2,a5
        PTE_V | (((uintptr_t)&hpt[3][0]) >> 2);
    80000a28:	2a10b0d7          	vor.vi	v1,v1,1
        PTE_V | (((uintptr_t)&hpt[2][0]) >> 2);
    80000a2c:	00041497          	auipc	s1,0x41
    80000a30:	5d448493          	addi	s1,s1,1492 # 80042000 <hpt+0x2000>
        PTE_V | (((uintptr_t)&hpt[1][0]) >> 2);
    80000a34:	00275793          	srli	a5,a4,0x2
        PTE_V | (((uintptr_t)&hpt[0][0]) >> 2);
    80000a38:	0028d813          	srli	a6,a7,0x2
        PTE_V | (((uintptr_t)&hpt[2][0]) >> 2);
    80000a3c:	0024d693          	srli	a3,s1,0x2
    80000a40:	0016e693          	ori	a3,a3,1
        PTE_V | (((uintptr_t)&hpt[1][0]) >> 2);
    80000a44:	0017e793          	ori	a5,a5,1
        PTE_V | (((uintptr_t)&hpt[0][0]) >> 2);
    80000a48:	00186813          	ori	a6,a6,1
        hpt[1][i] = 
    80000a4c:	00040317          	auipc	t1,0x40
    80000a50:	5c430313          	addi	t1,t1,1476 # 80041010 <hpt+0x1010>

    hpt[0][1] = 
        PTE_V | (((uintptr_t)&hpt[4][0]) >> 2);

    addr = MEM_BASE;
    for(int i = 0; i < 512; i++) hpt[3][i] = 0;
    80000a54:	6605                	lui	a2,0x1
    80000a56:	4581                	li	a1,0
    80000a58:	00042517          	auipc	a0,0x42
    80000a5c:	5a850513          	addi	a0,a0,1448 # 80043000 <hpt+0x3000>
        hpt[1][i] = 
    80000a60:	020771a7          	vse64.v	v3,(a4)
    hpt[1][4] = 
    80000a64:	f314                	sd	a3,32(a4)
        hpt[1][i] = 
    80000a66:	02037127          	vse64.v	v2,(t1)
    hpt[0][0] = 
    80000a6a:	0208f0a7          	vse64.v	v1,(a7)
    hpt_root[2047] =
    80000a6e:	0004b717          	auipc	a4,0x4b
    80000a72:	58f73523          	sd	a5,1418(a4) # 8004bff8 <hpt_root+0x3ff8>
    hpt_root[MEM_BASE/SUPERPAGE_SIZE(1)] =
    80000a76:	01043823          	sd	a6,16(s0)
    hpt_root[0] =
    80000a7a:	e01c                	sd	a5,0(s0)
    for(int i = 0; i < 512; i++) hpt[3][i] = 0;
    80000a7c:	2b32a0ef          	jal	8002b52e <memset>
    80000a80:	0d8078d7          	vsetvli	a7,zero,e64,m1,ta,ma
    80000a84:	5208a157          	vid.v	v2
    80000a88:	4705                	li	a4,1
    80000a8a:	962ab157          	vsll.vi	v2,v2,21
    80000a8e:	077e                	slli	a4,a4,0x1f
    80000a90:	0df00693          	li	a3,223
    80000a94:	00042517          	auipc	a0,0x42
    80000a98:	56c50513          	addi	a0,a0,1388 # 80043000 <hpt+0x3000>
    80000a9c:	02274157          	vadd.vx	v2,v2,a4
    80000aa0:	5e06c2d7          	vmv.v.x	v5,a3
    80000aa4:	04000713          	li	a4,64
    80000aa8:	86aa                	mv	a3,a0
    80000aaa:	0d8777d7          	vsetvli	a5,a4,e64,m1,ta,ma
    for(int i = 0; i < MEM_SIZE/SUPERPAGE_SIZE(2)/2; i++){
        hpt[3][i] = 
            PTE_V | PTE_U | PTE_AD | PTE_RWX | (addr >> 2);  
    80000aae:	a22130d7          	vsrl.vi	v1,v2,2
    80000ab2:	01579613          	slli	a2,a5,0x15
    80000ab6:	0d8075d7          	vsetvli	a1,zero,e64,m1,ta,ma
    80000aba:	5e0641d7          	vmv.v.x	v3,a2
    80000abe:	0d87f057          	vsetvli	zero,a5,e64,m1,ta,ma
    80000ac2:	2a1280d7          	vor.vv	v1,v1,v5
    for(int i = 0; i < MEM_SIZE/SUPERPAGE_SIZE(2)/2; i++){
    80000ac6:	00379613          	slli	a2,a5,0x3
    80000aca:	8f1d                	sub	a4,a4,a5
        hpt[3][i] = 
    80000acc:	0206f0a7          	vse64.v	v1,(a3)
    80000ad0:	0d8075d7          	vsetvli	a1,zero,e64,m1,ta,ma
    80000ad4:	02218157          	vadd.vv	v2,v2,v3
    for(int i = 0; i < MEM_SIZE/SUPERPAGE_SIZE(2)/2; i++){
    80000ad8:	96b2                	add	a3,a3,a2
    80000ada:	fb61                	bnez	a4,80000aaa <hpt_init+0xe6>
    80000adc:	5208a157          	vid.v	v2
    80000ae0:	47c5                	li	a5,17
    80000ae2:	962ab157          	vsll.vi	v2,v2,21
    80000ae6:	07ee                	slli	a5,a5,0x1b
    80000ae8:	20000693          	li	a3,512
    80000aec:	0227c157          	vadd.vx	v2,v2,a5
    80000af0:	00043717          	auipc	a4,0x43
    80000af4:	51070713          	addi	a4,a4,1296 # 80044000 <hpt+0x4000>
    80000af8:	0d86f7d7          	vsetvli	a5,a3,e64,m1,ta,ma
        addr +=  SUPERPAGE_SIZE(2);
    }    

    addr = TEST_PPAGE_BASE;
    for(int i = 0; i < 512; i++){
        hpt[4][i] = (addr >> 2) |
    80000afc:	a22130d7          	vsrl.vi	v1,v2,2
    80000b00:	01579613          	slli	a2,a5,0x15
    80000b04:	0d8075d7          	vsetvli	a1,zero,e64,m1,ta,ma
    80000b08:	5e0641d7          	vmv.v.x	v3,a2
             PTE_V | PTE_U | PTE_AD | PTE_RWX;  
    80000b0c:	0d87f057          	vsetvli	zero,a5,e64,m1,ta,ma
    80000b10:	2a1280d7          	vor.vv	v1,v1,v5
    for(int i = 0; i < 512; i++){
    80000b14:	00379613          	slli	a2,a5,0x3
    80000b18:	8e9d                	sub	a3,a3,a5
        hpt[4][i] = (addr >> 2) |
    80000b1a:	020770a7          	vse64.v	v1,(a4)
    80000b1e:	0d8075d7          	vsetvli	a1,zero,e64,m1,ta,ma
    80000b22:	02218157          	vadd.vv	v2,v2,v3
    for(int i = 0; i < 512; i++){
    80000b26:	9732                	add	a4,a4,a2
    80000b28:	fae1                	bnez	a3,80000af8 <hpt_init+0x134>
        PTE_V | (((uintptr_t)&hpt[5][0]) >> 2);

    hpt[2][1] = 
        PTE_V | (((uintptr_t)&hpt[5][0]) >> 2);

    hpt[2][511] = 
    80000b2a:	5208a257          	vid.v	v4
        PTE_V | (((uintptr_t)&hpt[5][0]) >> 2);
    80000b2e:	00044717          	auipc	a4,0x44
    80000b32:	4d270713          	addi	a4,a4,1234 # 80045000 <hpt+0x5000>
    hpt[2][511] = 
    80000b36:	96463257          	vsll.vi	v4,v4,12
        PTE_V | (((uintptr_t)&hpt[6][0]) >> 2);
    80000b3a:	00045317          	auipc	t1,0x45
    80000b3e:	4c630313          	addi	t1,t1,1222 # 80046000 <hpt+0x6000>
    80000b42:	0c000813          	li	a6,192
    hpt[2][511] = 
    80000b46:	45c5                	li	a1,17
        PTE_V | (((uintptr_t)&hpt[5][0]) >> 2);
    80000b48:	00275793          	srli	a5,a4,0x2
        PTE_V | (((uintptr_t)&hpt[6][0]) >> 2);
    80000b4c:	00235693          	srli	a3,t1,0x2
    80000b50:	5e0843d7          	vmv.v.x	v7,a6
    hpt[2][511] = 
    80000b54:	05ee                	slli	a1,a1,0x1b
        PTE_V | (((uintptr_t)&hpt[5][0]) >> 2);
    80000b56:	0017e793          	ori	a5,a5,1
        PTE_V | (((uintptr_t)&hpt[6][0]) >> 2);
    80000b5a:	0016e693          	ori	a3,a3,1
    hpt[2][511] = 
    80000b5e:	0245c257          	vadd.vx	v4,v4,a1
    80000b62:	fed53c23          	sd	a3,-8(a0)
    hpt[2][0] = 
    80000b66:	e09c                	sd	a5,0(s1)
    hpt[2][1] = 
    80000b68:	e49c                	sd	a5,8(s1)
    hpt[2][511] = 
    80000b6a:	1ff00693          	li	a3,511
    80000b6e:	00039597          	auipc	a1,0x39
    80000b72:	cba58593          	addi	a1,a1,-838 # 80039828 <test_page_perm_table+0x8>
    80000b76:	0d86f7d7          	vsetvli	a5,a3,e64,m1,ta,ma

    addr = TEST_PPAGE_BASE;
    for(int i = 0; i < TEST_PAGE_MAX; i++){
        hpt[5][i] = (addr >> 2) | PTE_AD |
            test_page_perm_table[i].h; 
    80000b7a:	2205f107          	vlseg2e64.v	v2,(a1)
        hpt[5][i] = (addr >> 2) | PTE_AD |
    80000b7e:	a24130d7          	vsrl.vi	v1,v4,2
    80000b82:	00c79513          	slli	a0,a5,0xc
    80000b86:	0d807657          	vsetvli	a2,zero,e64,m1,ta,ma
    80000b8a:	5e054357          	vmv.v.x	v6,a0
    80000b8e:	0d87f057          	vsetvli	zero,a5,e64,m1,ta,ma
    for(int i = 0; i < TEST_PAGE_MAX; i++){
    80000b92:	00479813          	slli	a6,a5,0x4
    80000b96:	00379513          	slli	a0,a5,0x3
    80000b9a:	8e9d                	sub	a3,a3,a5
    80000b9c:	95c2                	add	a1,a1,a6
        hpt[5][i] = (addr >> 2) | PTE_AD |
    80000b9e:	2a710157          	vor.vv	v2,v7,v2
    80000ba2:	0d807657          	vsetvli	a2,zero,e64,m1,ta,ma
    80000ba6:	02430257          	vadd.vv	v4,v4,v6
    80000baa:	0d87f057          	vsetvli	zero,a5,e64,m1,ta,ma
    80000bae:	2a208157          	vor.vv	v2,v2,v1
    80000bb2:	02077127          	vse64.v	v2,(a4)
    for(int i = 0; i < TEST_PAGE_MAX; i++){
    80000bb6:	972a                	add	a4,a4,a0
    80000bb8:	fedd                	bnez	a3,80000b76 <hpt_init+0x1b2>
        hpt[5][i] = (addr >> 2) | PTE_AD |
    80000bba:	0d8078d7          	vsetvli	a7,zero,e64,m1,ta,ma
    80000bbe:	5208a157          	vid.v	v2
    80000bc2:	0003b797          	auipc	a5,0x3b
    80000bc6:	c567b783          	ld	a5,-938(a5) # 8003b818 <test_page_perm_table+0x1ff8>
    80000bca:	96263157          	vsll.vi	v2,v2,12
    80000bce:	22080737          	lui	a4,0x22080
    80000bd2:	cc070713          	addi	a4,a4,-832 # 2207fcc0 <STACK_SIZE+0x21f7fcc0>
    80000bd6:	46c5                	li	a3,17
    80000bd8:	06ee                	slli	a3,a3,0x1b
    80000bda:	8fd9                	or	a5,a5,a4
    80000bdc:	0226c157          	vadd.vx	v2,v2,a3
    80000be0:	fef33c23          	sd	a5,-8(t1)
    80000be4:	20000693          	li	a3,512
    80000be8:	00045717          	auipc	a4,0x45
    80000bec:	41870713          	addi	a4,a4,1048 # 80046000 <hpt+0x6000>
    80000bf0:	0d86f7d7          	vsetvli	a5,a3,e64,m1,ta,ma
        addr +=  PAGE_SIZE;
    }

    addr = TEST_PPAGE_BASE;
    for(int i = 0; i < 512; i++){
        hpt[6][i] = (addr >> 2) | 
    80000bf4:	a22130d7          	vsrl.vi	v1,v2,2
    80000bf8:	00c79613          	slli	a2,a5,0xc
    80000bfc:	0d8075d7          	vsetvli	a1,zero,e64,m1,ta,ma
    80000c00:	5e0641d7          	vmv.v.x	v3,a2
            PTE_V | PTE_U | PTE_AD | PTE_RWX; 
    80000c04:	0d87f057          	vsetvli	zero,a5,e64,m1,ta,ma
    80000c08:	2a1280d7          	vor.vv	v1,v1,v5
    for(int i = 0; i < 512; i++){
    80000c0c:	00379613          	slli	a2,a5,0x3
    80000c10:	8e9d                	sub	a3,a3,a5
        hpt[6][i] = (addr >> 2) | 
    80000c12:	020770a7          	vse64.v	v1,(a4)
    80000c16:	0d8075d7          	vsetvli	a1,zero,e64,m1,ta,ma
    80000c1a:	02218157          	vadd.vv	v2,v2,v3
    for(int i = 0; i < 512; i++){
    80000c1e:	9732                	add	a4,a4,a2
    80000c20:	fae1                	bnez	a3,80000bf0 <hpt_init+0x22c>
        addr +=  PAGE_SIZE;
    }  

    if(curr_priv == PRIV_HS || curr_priv == PRIV_M){
    80000c22:	0003b797          	auipc	a5,0x3b
    80000c26:	c027a783          	lw	a5,-1022(a5) # 8003b824 <curr_priv>
    80000c2a:	4705                	li	a4,1
    80000c2c:	37f5                	addiw	a5,a5,-3
    80000c2e:	00f76e63          	bltu	a4,a5,80000c4a <hpt_init+0x286>
        uintptr_t hsatp = (((uintptr_t)hpt_root) >> 12) | (0x9ULL << 60);
    80000c32:	5765                	li	a4,-7
    80000c34:	00c45793          	srli	a5,s0,0xc
    80000c38:	1772                	slli	a4,a4,0x3c
    80000c3a:	8fd9                	or	a5,a5,a4
        CSRW(CSR_HGATP, hsatp);
    80000c3c:	68079073          	csrw	hgatp,a5
    } else {
        ERROR("trying to set hs hgatp from lower privilege");
    }

}
    80000c40:	60e2                	ld	ra,24(sp)
    80000c42:	6442                	ld	s0,16(sp)
    80000c44:	64a2                	ld	s1,8(sp)
    80000c46:	6105                	addi	sp,sp,32
    80000c48:	8082                	ret
        ERROR("trying to set hs hgatp from lower privilege");
    80000c4a:	0002d517          	auipc	a0,0x2d
    80000c4e:	72e50513          	addi	a0,a0,1838 # 8002e378 <__func__.0+0x490>
    80000c52:	7d82a0ef          	jal	8002b42a <printf>
    80000c56:	25400613          	li	a2,596
    80000c5a:	0002b597          	auipc	a1,0x2b
    80000c5e:	47658593          	addi	a1,a1,1142 # 8002c0d0 <__func__.0>
    80000c62:	0002d517          	auipc	a0,0x2d
    80000c66:	6ee50513          	addi	a0,a0,1774 # 8002e350 <__func__.0+0x468>
    80000c6a:	7c02a0ef          	jal	8002b42a <printf>
    80000c6e:	4501                	li	a0,0
    80000c70:	3702a0ef          	jal	8002afe0 <exit>

0000000080000c74 <page_table_add_vs_AD>:

void page_table_add_vs_AD(int i){
    uintptr_t addr;
    addr = 0x88000000 + i*0x1000;
    80000c74:	00c5171b          	slliw	a4,a0,0xc
    hspt[2][i] = (addr >> 2) | PTE_AD | test_page_perm_table[i].vs;
    80000c78:	00451593          	slli	a1,a0,0x4
    addr = 0x88000000 + i*0x1000;
    80000c7c:	880007b7          	lui	a5,0x88000
    hspt[2][i] = (addr >> 2) | PTE_AD | test_page_perm_table[i].vs;
    80000c80:	00039617          	auipc	a2,0x39
    80000c84:	ba060613          	addi	a2,a2,-1120 # 80039820 <test_page_perm_table>
    addr = 0x88000000 + i*0x1000;
    80000c88:	9fb9                	addw	a5,a5,a4
    hspt[2][i] = (addr >> 2) | PTE_AD | test_page_perm_table[i].vs;
    80000c8a:	962e                	add	a2,a2,a1

    addr = 0x100000000 + i*0x1000;
    80000c8c:	4685                	li	a3,1
    hspt[2][i] = (addr >> 2) | PTE_AD | test_page_perm_table[i].vs;
    80000c8e:	6210                	ld	a2,0(a2)
    addr = 0x100000000 + i*0x1000;
    80000c90:	1682                	slli	a3,a3,0x20
    addr = 0x88000000 + i*0x1000;
    80000c92:	1782                	slli	a5,a5,0x20
    addr = 0x100000000 + i*0x1000;
    80000c94:	9736                	add	a4,a4,a3
    addr = 0x88000000 + i*0x1000;
    80000c96:	9381                	srli	a5,a5,0x20
    hspt[2][i] = (addr >> 2) | PTE_AD | test_page_perm_table[i].vs;
    80000c98:	40050593          	addi	a1,a0,1024
    80000c9c:	8389                	srli	a5,a5,0x2
    vspt[3][i] = (addr >> 2) | PTE_AD | test_page_perm_table[i].vs;
    80000c9e:	8309                	srli	a4,a4,0x2
    80000ca0:	60050513          	addi	a0,a0,1536
    hspt[2][i] = (addr >> 2) | PTE_AD | test_page_perm_table[i].vs;
    80000ca4:	8fd1                	or	a5,a5,a2
    vspt[3][i] = (addr >> 2) | PTE_AD | test_page_perm_table[i].vs;
    80000ca6:	8f51                	or	a4,a4,a2
    hspt[2][i] = (addr >> 2) | PTE_AD | test_page_perm_table[i].vs;
    80000ca8:	058e                	slli	a1,a1,0x3
    vspt[3][i] = (addr >> 2) | PTE_AD | test_page_perm_table[i].vs;
    80000caa:	050e                	slli	a0,a0,0x3
    hspt[2][i] = (addr >> 2) | PTE_AD | test_page_perm_table[i].vs;
    80000cac:	00052617          	auipc	a2,0x52
    80000cb0:	35460613          	addi	a2,a2,852 # 80053000 <hspt>
    vspt[3][i] = (addr >> 2) | PTE_AD | test_page_perm_table[i].vs;
    80000cb4:	0004b697          	auipc	a3,0x4b
    80000cb8:	34c68693          	addi	a3,a3,844 # 8004c000 <vspt>
    hspt[2][i] = (addr >> 2) | PTE_AD | test_page_perm_table[i].vs;
    80000cbc:	0c07e793          	ori	a5,a5,192
    vspt[3][i] = (addr >> 2) | PTE_AD | test_page_perm_table[i].vs;
    80000cc0:	0c076713          	ori	a4,a4,192
    hspt[2][i] = (addr >> 2) | PTE_AD | test_page_perm_table[i].vs;
    80000cc4:	962e                	add	a2,a2,a1
    vspt[3][i] = (addr >> 2) | PTE_AD | test_page_perm_table[i].vs;
    80000cc6:	96aa                	add	a3,a3,a0
    hspt[2][i] = (addr >> 2) | PTE_AD | test_page_perm_table[i].vs;
    80000cc8:	e21c                	sd	a5,0(a2)
    vspt[3][i] = (addr >> 2) | PTE_AD | test_page_perm_table[i].vs;
    80000cca:	e298                	sd	a4,0(a3)
}
    80000ccc:	8082                	ret

0000000080000cce <page_table_del_vs_AD>:

void page_table_del_vs_AD(int i){
    uintptr_t addr;
    addr = 0x88000000 + i*0x1000;
    80000cce:	00c5171b          	slliw	a4,a0,0xc
    hspt[2][i] = (addr >> 2) | test_page_perm_table[i].vs;
    80000cd2:	00451593          	slli	a1,a0,0x4
    addr = 0x88000000 + i*0x1000;
    80000cd6:	880007b7          	lui	a5,0x88000
    hspt[2][i] = (addr >> 2) | test_page_perm_table[i].vs;
    80000cda:	00039617          	auipc	a2,0x39
    80000cde:	b4660613          	addi	a2,a2,-1210 # 80039820 <test_page_perm_table>
    80000ce2:	962e                	add	a2,a2,a1
    addr = 0x88000000 + i*0x1000;
    80000ce4:	9fb9                	addw	a5,a5,a4

    addr = 0x100000000 + i*0x1000;
    80000ce6:	4685                	li	a3,1
    hspt[2][i] = (addr >> 2) | test_page_perm_table[i].vs;
    80000ce8:	00063803          	ld	a6,0(a2)
    addr = 0x100000000 + i*0x1000;
    80000cec:	1682                	slli	a3,a3,0x20
    addr = 0x88000000 + i*0x1000;
    80000cee:	1782                	slli	a5,a5,0x20
    addr = 0x100000000 + i*0x1000;
    80000cf0:	9736                	add	a4,a4,a3
    hspt[2][i] = (addr >> 2) | test_page_perm_table[i].vs;
    80000cf2:	40050593          	addi	a1,a0,1024
    addr = 0x88000000 + i*0x1000;
    80000cf6:	9381                	srli	a5,a5,0x20
    vspt[3][i] = (addr >> 2) | test_page_perm_table[i].vs;
    80000cf8:	60050513          	addi	a0,a0,1536
    hspt[2][i] = (addr >> 2) | test_page_perm_table[i].vs;
    80000cfc:	8389                	srli	a5,a5,0x2
    vspt[3][i] = (addr >> 2) | test_page_perm_table[i].vs;
    80000cfe:	8309                	srli	a4,a4,0x2
    hspt[2][i] = (addr >> 2) | test_page_perm_table[i].vs;
    80000d00:	058e                	slli	a1,a1,0x3
    vspt[3][i] = (addr >> 2) | test_page_perm_table[i].vs;
    80000d02:	050e                	slli	a0,a0,0x3
    hspt[2][i] = (addr >> 2) | test_page_perm_table[i].vs;
    80000d04:	00052617          	auipc	a2,0x52
    80000d08:	2fc60613          	addi	a2,a2,764 # 80053000 <hspt>
    vspt[3][i] = (addr >> 2) | test_page_perm_table[i].vs;
    80000d0c:	0004b697          	auipc	a3,0x4b
    80000d10:	2f468693          	addi	a3,a3,756 # 8004c000 <vspt>
    hspt[2][i] = (addr >> 2) | test_page_perm_table[i].vs;
    80000d14:	0107e7b3          	or	a5,a5,a6
    vspt[3][i] = (addr >> 2) | test_page_perm_table[i].vs;
    80000d18:	01076733          	or	a4,a4,a6
    hspt[2][i] = (addr >> 2) | test_page_perm_table[i].vs;
    80000d1c:	962e                	add	a2,a2,a1
    vspt[3][i] = (addr >> 2) | test_page_perm_table[i].vs;
    80000d1e:	96aa                	add	a3,a3,a0
    hspt[2][i] = (addr >> 2) | test_page_perm_table[i].vs;
    80000d20:	e21c                	sd	a5,0(a2)
    vspt[3][i] = (addr >> 2) | test_page_perm_table[i].vs;
    80000d22:	e298                	sd	a4,0(a3)
}
    80000d24:	8082                	ret

0000000080000d26 <page_table_add_h_AD>:


void page_table_add_h_AD(int i){
    uintptr_t addr;
    addr = 0x88000000 + i*0x1000;
    80000d26:	00c5171b          	slliw	a4,a0,0xc
    80000d2a:	880007b7          	lui	a5,0x88000
    hspt[2][i] = (addr >> 2) | test_page_perm_table[i].h;
    80000d2e:	00451693          	slli	a3,a0,0x4
    addr = 0x88000000 + i*0x1000;
    80000d32:	9fb9                	addw	a5,a5,a4
    hspt[2][i] = (addr >> 2) | test_page_perm_table[i].h;
    80000d34:	00039717          	auipc	a4,0x39
    80000d38:	aec70713          	addi	a4,a4,-1300 # 80039820 <test_page_perm_table>
    80000d3c:	9736                	add	a4,a4,a3
    80000d3e:	6714                	ld	a3,8(a4)
    addr = 0x88000000 + i*0x1000;
    80000d40:	1782                	slli	a5,a5,0x20
    80000d42:	9381                	srli	a5,a5,0x20
    hspt[2][i] = (addr >> 2) | test_page_perm_table[i].h;
    80000d44:	40050513          	addi	a0,a0,1024
    80000d48:	8389                	srli	a5,a5,0x2
    80000d4a:	050e                	slli	a0,a0,0x3
    80000d4c:	00052717          	auipc	a4,0x52
    80000d50:	2b470713          	addi	a4,a4,692 # 80053000 <hspt>
    80000d54:	8fd5                	or	a5,a5,a3
    80000d56:	972a                	add	a4,a4,a0
    80000d58:	e31c                	sd	a5,0(a4)
}
    80000d5a:	8082                	ret

0000000080000d5c <page_table_del_h_AD>:

void page_table_del_h_AD(int i){
    80000d5c:	00c5171b          	slliw	a4,a0,0xc
    80000d60:	880007b7          	lui	a5,0x88000
    80000d64:	00451693          	slli	a3,a0,0x4
    80000d68:	9fb9                	addw	a5,a5,a4
    80000d6a:	00039717          	auipc	a4,0x39
    80000d6e:	ab670713          	addi	a4,a4,-1354 # 80039820 <test_page_perm_table>
    80000d72:	9736                	add	a4,a4,a3
    80000d74:	6714                	ld	a3,8(a4)
    80000d76:	1782                	slli	a5,a5,0x20
    80000d78:	9381                	srli	a5,a5,0x20
    80000d7a:	40050513          	addi	a0,a0,1024
    80000d7e:	8389                	srli	a5,a5,0x2
    80000d80:	050e                	slli	a0,a0,0x3
    80000d82:	00052717          	auipc	a4,0x52
    80000d86:	27e70713          	addi	a4,a4,638 # 80053000 <hspt>
    80000d8a:	8fd5                	or	a5,a5,a3
    80000d8c:	972a                	add	a4,a4,a0
    80000d8e:	e31c                	sd	a5,0(a4)
    80000d90:	8082                	ret

0000000080000d92 <hspt_switch>:
    addr = 0x88000000 + i*0x1000;
    hspt[2][i] = (addr >> 2) | test_page_perm_table[i].h;
}

void hspt_switch(){
    pte_t temp = hspt[4][SWITCH1];
    80000d92:	cd817057          	vsetivli	zero,2,e64,m1,ta,ma
    hspt[4][SWITCH1] = hspt[4][SWITCH2];
    80000d96:	00056797          	auipc	a5,0x56
    80000d9a:	5ca78793          	addi	a5,a5,1482 # 80057360 <hspt+0x4360>
    80000d9e:	0207f187          	vle64.v	v3,(a5)
    pte_t temp = hspt[4][SWITCH1];
    80000da2:	5208a0d7          	vid.v	v1
    80000da6:	0e10b0d7          	vrsub.vi	v1,v1,1
    80000daa:	32308157          	vrgather.vv	v2,v3,v1
    hspt[4][SWITCH1] = hspt[4][SWITCH2];
    80000dae:	0207f127          	vse64.v	v2,(a5)
    hspt[4][SWITCH2] = temp;
}
    80000db2:	8082                	ret

0000000080000db4 <vspt_switch>:

void vspt_switch(){
    pte_t temp = vspt[5][SWITCH1];
    80000db4:	cd817057          	vsetivli	zero,2,e64,m1,ta,ma
    vspt[5][SWITCH1] = vspt[5][SWITCH2];
    80000db8:	00050797          	auipc	a5,0x50
    80000dbc:	5a878793          	addi	a5,a5,1448 # 80051360 <vspt+0x5360>
    80000dc0:	0207f187          	vle64.v	v3,(a5)
    pte_t temp = vspt[5][SWITCH1];
    80000dc4:	5208a0d7          	vid.v	v1
    80000dc8:	0e10b0d7          	vrsub.vi	v1,v1,1
    80000dcc:	32308157          	vrgather.vv	v2,v3,v1
    vspt[5][SWITCH1] = vspt[5][SWITCH2];
    80000dd0:	0207f127          	vse64.v	v2,(a5)
    vspt[5][SWITCH2] = temp;
}
    80000dd4:	8082                	ret

0000000080000dd6 <hpt_switch>:

void hpt_switch(){
    pte_t temp = hpt[5][SWITCH1];
    80000dd6:	cd817057          	vsetivli	zero,2,e64,m1,ta,ma
    hpt[5][SWITCH1] = hpt[5][SWITCH2];
    80000dda:	00044797          	auipc	a5,0x44
    80000dde:	58678793          	addi	a5,a5,1414 # 80045360 <hpt+0x5360>
    80000de2:	0207f187          	vle64.v	v3,(a5)
    pte_t temp = hpt[5][SWITCH1];
    80000de6:	5208a0d7          	vid.v	v1
    80000dea:	0e10b0d7          	vrsub.vi	v1,v1,1
    80000dee:	32308157          	vrgather.vv	v2,v3,v1
    hpt[5][SWITCH1] = hpt[5][SWITCH2];
    80000df2:	0207f127          	vse64.v	v2,(a5)
    hpt[5][SWITCH2] = temp;
}
    80000df6:	8082                	ret

0000000080000df8 <ecall>:

uint64_t ecall_args[2];

uint64_t ecall(uint64_t a0, uint64_t a1)
{
    ecall_args[0] = a0;
    80000df8:	00057797          	auipc	a5,0x57
    80000dfc:	20878793          	addi	a5,a5,520 # 80058000 <ecall_args>
    80000e00:	e388                	sd	a0,0(a5)
    ecall_args[1] = a1;
    80000e02:	e78c                	sd	a1,8(a5)

    asm volatile("ecall" ::: "memory");
    80000e04:	00000073          	ecall
    return ecall_args[0];

}
    80000e08:	6388                	ld	a0,0(a5)
    80000e0a:	8082                	ret

0000000080000e0c <test_setup_except_function>:

//v
#ifdef __riscv_vector
__attribute__((target("arch=rv64imac_zicsr")))
void test_setup_except_function() {
    __sync_synchronize();
    80000e0c:	0330000f          	fence	rw,rw
    excpt.testing = true;
    80000e10:	00057797          	auipc	a5,0x57
    80000e14:	1f078793          	addi	a5,a5,496 # 80058000 <ecall_args>
    80000e18:	4705                	li	a4,1
    excpt.triggered = false;
    excpt.fault_inst = 0;
    80000e1a:	0407b423          	sd	zero,72(a5)
    excpt.testing = true;
    80000e1e:	00e79823          	sh	a4,16(a5)
    __sync_synchronize();
    80000e22:	0330000f          	fence	rw,rw
    DEBUG("setting up exception test");
}
    80000e26:	8082                	ret

0000000080000e28 <set_prev_priv>:
    return priv == PRIV_VU || priv == PRIV_HU;
}

void set_prev_priv(int priv){

    switch(curr_priv){
    80000e28:	0003b797          	auipc	a5,0x3b
    80000e2c:	9fc7a783          	lw	a5,-1540(a5) # 8003b824 <curr_priv>
    80000e30:	470d                	li	a4,3
    80000e32:	06e78963          	beq	a5,a4,80000ea4 <set_prev_priv+0x7c>
    80000e36:	4711                	li	a4,4
    80000e38:	04e78163          	beq	a5,a4,80000e7a <set_prev_priv+0x52>
    80000e3c:	4709                	li	a4,2
    80000e3e:	08e78863          	beq	a5,a4,80000ece <set_prev_priv+0xa6>
void set_prev_priv(int priv){
    80000e42:	1141                	addi	sp,sp,-16
        case PRIV_VS: {
            uint64_t temp = CSRR(sstatus);
            CSRC(sstatus, 0x1ULL << 8);
        }
        break;
        default: ERROR("unknown current priv %d (%s)\n", priv, __func__);
    80000e44:	85aa                	mv	a1,a0
    80000e46:	0002b617          	auipc	a2,0x2b
    80000e4a:	29a60613          	addi	a2,a2,666 # 8002c0e0 <__func__.6>
    80000e4e:	0002d517          	auipc	a0,0x2d
    80000e52:	56a50513          	addi	a0,a0,1386 # 8002e3b8 <__func__.0+0x4d0>
void set_prev_priv(int priv){
    80000e56:	e406                	sd	ra,8(sp)
        default: ERROR("unknown current priv %d (%s)\n", priv, __func__);
    80000e58:	5d22a0ef          	jal	8002b42a <printf>
    80000e5c:	04b00613          	li	a2,75
    80000e60:	0002b597          	auipc	a1,0x2b
    80000e64:	28058593          	addi	a1,a1,640 # 8002c0e0 <__func__.6>
    80000e68:	0002d517          	auipc	a0,0x2d
    80000e6c:	4e850513          	addi	a0,a0,1256 # 8002e350 <__func__.0+0x468>
    80000e70:	5ba2a0ef          	jal	8002b42a <printf>
    80000e74:	4501                	li	a0,0
    80000e76:	16a2a0ef          	jal	8002afe0 <exit>
            uint64_t temp = CSRR(mstatus);
    80000e7a:	30002773          	csrr	a4,mstatus
            temp &= ~((3ULL << 11) | (1ULL << 39));
    80000e7e:	fc0007b7          	lui	a5,0xfc000
    80000e82:	17fd                	addi	a5,a5,-1 # fffffffffbffffff <__stack_top+0xffffffff7bd00fff>
    80000e84:	07b6                	slli	a5,a5,0xd
    80000e86:	7ff78793          	addi	a5,a5,2047
            if(priv == PRIV_VS || priv == PRIV_HS) temp |= (1ULL << 11);    //mpp   
    80000e8a:	ffe5069b          	addiw	a3,a0,-2
    80000e8e:	4605                	li	a2,1
            temp &= ~((3ULL << 11) | (1ULL << 39));
    80000e90:	8ff9                	and	a5,a5,a4
            if(priv == PRIV_VS || priv == PRIV_HS) temp |= (1ULL << 11);    //mpp   
    80000e92:	06d67363          	bgeu	a2,a3,80000ef8 <set_prev_priv+0xd0>
            if(priv == PRIV_VU || priv == PRIV_VS) temp |= (1ULL << 39);     //mpv
    80000e96:	e501                	bnez	a0,80000e9e <set_prev_priv+0x76>
    80000e98:	4705                	li	a4,1
    80000e9a:	171e                	slli	a4,a4,0x27
    80000e9c:	8fd9                	or	a5,a5,a4
            CSRW(mstatus, temp);
    80000e9e:	30079073          	csrw	mstatus,a5
        break;
    80000ea2:	8082                	ret
            uint64_t temp = CSRR(sstatus);
    80000ea4:	100027f3          	csrr	a5,sstatus
            if(priv == PRIV_HS || priv == PRIV_VS) temp |= (0x1ULL << 8);   //spp
    80000ea8:	4705                	li	a4,1
    80000eaa:	ffe5069b          	addiw	a3,a0,-2
    80000eae:	02d77763          	bgeu	a4,a3,80000edc <set_prev_priv+0xb4>
            temp &= ~(0x1ULL << 8);
    80000eb2:	eff7f793          	andi	a5,a5,-257
            CSRW(sstatus, temp);
    80000eb6:	10079073          	csrw	sstatus,a5
            temp = CSRR(CSR_HSTATUS);   //p101
    80000eba:	600027f3          	csrr	a5,hstatus
            temp &= ~(0x3ULL << 7);
    80000ebe:	e7f7f793          	andi	a5,a5,-385
            if(priv == PRIV_VU || priv == PRIV_VS) temp |= (0x1ULL << 7);       //spv
    80000ec2:	e119                	bnez	a0,80000ec8 <set_prev_priv+0xa0>
    80000ec4:	0807e793          	ori	a5,a5,128
            CSRW(CSR_HSTATUS, temp);
    80000ec8:	60079073          	csrw	hstatus,a5
        break;
    80000ecc:	8082                	ret
            uint64_t temp = CSRR(sstatus);
    80000ece:	100027f3          	csrr	a5,sstatus
            CSRC(sstatus, 0x1ULL << 8);
    80000ed2:	10000793          	li	a5,256
    80000ed6:	1007b073          	csrc	sstatus,a5
        break;
    80000eda:	8082                	ret
            if(priv == PRIV_HS || priv == PRIV_VS) temp |= (0x1ULL << 8);   //spp
    80000edc:	1007e793          	ori	a5,a5,256
            CSRW(sstatus, temp);
    80000ee0:	10079073          	csrw	sstatus,a5
            temp = CSRR(CSR_HSTATUS);   //p101
    80000ee4:	600027f3          	csrr	a5,hstatus
            if(priv == PRIV_VS) temp |= (1ULL << 8);        //spvp
    80000ee8:	4709                	li	a4,2
            temp &= ~(0x3ULL << 7);
    80000eea:	e7f7f793          	andi	a5,a5,-385
            if(priv == PRIV_VS) temp |= (1ULL << 8);        //spvp
    80000eee:	fce51de3          	bne	a0,a4,80000ec8 <set_prev_priv+0xa0>
    80000ef2:	1007e793          	ori	a5,a5,256
            if(priv == PRIV_VU || priv == PRIV_VS) temp |= (0x1ULL << 7);       //spv
    80000ef6:	b7f9                	j	80000ec4 <set_prev_priv+0x9c>
            if(priv == PRIV_VS || priv == PRIV_HS) temp |= (1ULL << 11);    //mpp   
    80000ef8:	6705                	lui	a4,0x1
    80000efa:	80070713          	addi	a4,a4,-2048 # 800 <_test_table_size+0x7ff>
            if(priv == PRIV_VU || priv == PRIV_VS) temp |= (1ULL << 39);     //mpv
    80000efe:	4689                	li	a3,2
            if(priv == PRIV_VS || priv == PRIV_HS) temp |= (1ULL << 11);    //mpp   
    80000f00:	8fd9                	or	a5,a5,a4
            if(priv == PRIV_VU || priv == PRIV_VS) temp |= (1ULL << 39);     //mpv
    80000f02:	f8d50be3          	beq	a0,a3,80000e98 <set_prev_priv+0x70>
    80000f06:	bf61                	j	80000e9e <set_prev_priv+0x76>

0000000080000f08 <goto_priv>:
    curr_priv = priv;

}


void goto_priv(int target_priv){
    80000f08:	1101                	addi	sp,sp,-32
    80000f0a:	e822                	sd	s0,16(sp)
    80000f0c:	ec06                	sd	ra,24(sp)
    80000f0e:	e426                	sd	s1,8(sp)

    static bool on_going = false;

    DEBUG("goto_priv: real = %s, target = %s, curr = %s",  priv_strs[real_priv], priv_strs[target_priv], priv_strs[curr_priv]);

    if(is_user(target_priv) && is_user(curr_priv)) {
    80000f10:	4785                	li	a5,1
void goto_priv(int target_priv){
    80000f12:	842a                	mv	s0,a0
    if(is_user(target_priv) && is_user(curr_priv)) {
    80000f14:	02a7f963          	bgeu	a5,a0,80000f46 <goto_priv+0x3e>
        goto_priv(PRIV_M);
    }

    if(real_priv == target_priv || target_priv >= PRIV_MAX){
    80000f18:	0003b797          	auipc	a5,0x3b
    80000f1c:	9087a783          	lw	a5,-1784(a5) # 8003b820 <real_priv>
    80000f20:	0003b497          	auipc	s1,0x3b
    80000f24:	90448493          	addi	s1,s1,-1788 # 8003b824 <curr_priv>
    80000f28:	00a78963          	beq	a5,a0,80000f3a <goto_priv+0x32>
    80000f2c:	4791                	li	a5,4
    80000f2e:	0003b497          	auipc	s1,0x3b
    80000f32:	8f648493          	addi	s1,s1,-1802 # 8003b824 <curr_priv>
    80000f36:	06a7d363          	bge	a5,a0,80000f9c <goto_priv+0x94>
        if(on_going)
            VERBOSE("...entered %s mode", priv_strs[target_priv]);
        on_going = false;
        curr_priv = target_priv;
    80000f3a:	c080                	sw	s0,0(s1)
        VERBOSE("...entered %s mode", priv_strs[target_priv]);
        on_going = false;
        lower_priv(target_priv);
    }

}
    80000f3c:	60e2                	ld	ra,24(sp)
    80000f3e:	6442                	ld	s0,16(sp)
    80000f40:	64a2                	ld	s1,8(sp)
    80000f42:	6105                	addi	sp,sp,32
    80000f44:	8082                	ret
    if(is_user(target_priv) && is_user(curr_priv)) {
    80000f46:	0003b717          	auipc	a4,0x3b
    80000f4a:	8de72703          	lw	a4,-1826(a4) # 8003b824 <curr_priv>
    80000f4e:	0003b497          	auipc	s1,0x3b
    80000f52:	8d648493          	addi	s1,s1,-1834 # 8003b824 <curr_priv>
    80000f56:	0ae7f863          	bgeu	a5,a4,80001006 <goto_priv+0xfe>
    if(real_priv == target_priv || target_priv >= PRIV_MAX){
    80000f5a:	0003b797          	auipc	a5,0x3b
    80000f5e:	8c67a783          	lw	a5,-1850(a5) # 8003b820 <real_priv>
    80000f62:	fca78ce3          	beq	a5,a0,80000f3a <goto_priv+0x32>
    if(curr_priv == PRIV_VS && priv == PRIV_HU){
    80000f66:	4789                	li	a5,2
    80000f68:	06f71063          	bne	a4,a5,80000fc8 <goto_priv+0xc0>
    80000f6c:	4785                	li	a5,1
    80000f6e:	04f41d63          	bne	s0,a5,80000fc8 <goto_priv+0xc0>
        ERROR("trying to go from vs to hu");
    80000f72:	0002d517          	auipc	a0,0x2d
    80000f76:	47650513          	addi	a0,a0,1142 # 8002e3e8 <__func__.0+0x500>
    80000f7a:	4b02a0ef          	jal	8002b42a <printf>
    80000f7e:	05a00613          	li	a2,90
        ERROR("cant lower priv from u");
    80000f82:	0002b597          	auipc	a1,0x2b
    80000f86:	16e58593          	addi	a1,a1,366 # 8002c0f0 <__func__.4>
    80000f8a:	0002d517          	auipc	a0,0x2d
    80000f8e:	3c650513          	addi	a0,a0,966 # 8002e350 <__func__.0+0x468>
    80000f92:	4982a0ef          	jal	8002b42a <printf>
    80000f96:	4501                	li	a0,0
    80000f98:	0482a0ef          	jal	8002afe0 <exit>
    if(target_priv > curr_priv){
    80000f9c:	0003b797          	auipc	a5,0x3b
    80000fa0:	8887a783          	lw	a5,-1912(a5) # 8003b824 <curr_priv>
    80000fa4:	02a7f063          	bgeu	a5,a0,80000fc4 <goto_priv+0xbc>
    ecall_args[0] = a0;
    80000fa8:	00057797          	auipc	a5,0x57
    80000fac:	05878793          	addi	a5,a5,88 # 80058000 <ecall_args>
    80000fb0:	4705                	li	a4,1
        ecall(ECALL_GOTO_PRIV, target_priv);
    80000fb2:	e780                	sd	s0,8(a5)
    ecall_args[0] = a0;
    80000fb4:	e398                	sd	a4,0(a5)
    asm volatile("ecall" ::: "memory");
    80000fb6:	00000073          	ecall
}
    80000fba:	60e2                	ld	ra,24(sp)
    80000fbc:	6442                	ld	s0,16(sp)
    80000fbe:	64a2                	ld	s1,8(sp)
    80000fc0:	6105                	addi	sp,sp,32
    80000fc2:	8082                	ret
    if(priv == curr_priv) 
    80000fc4:	f6f50ce3          	beq	a0,a5,80000f3c <goto_priv+0x34>
    set_prev_priv(priv);
    80000fc8:	8522                	mv	a0,s0
    80000fca:	e5fff0ef          	jal	80000e28 <set_prev_priv>
    if(curr_priv == PRIV_M) {
    80000fce:	0003b797          	auipc	a5,0x3b
    80000fd2:	8567a783          	lw	a5,-1962(a5) # 8003b824 <curr_priv>
    real_priv = priv;
    80000fd6:	0003b717          	auipc	a4,0x3b
    80000fda:	84872523          	sw	s0,-1974(a4) # 8003b820 <real_priv>
    if(curr_priv == PRIV_M) {
    80000fde:	4711                	li	a4,4
    80000fe0:	04e78e63          	beq	a5,a4,8000103c <goto_priv+0x134>
    } else if(curr_priv == PRIV_VS || curr_priv == PRIV_HS){
    80000fe4:	37f9                	addiw	a5,a5,-2
    80000fe6:	4705                	li	a4,1
    80000fe8:	04f76163          	bltu	a4,a5,8000102a <goto_priv+0x122>
        asm volatile(
    80000fec:	00000297          	auipc	t0,0x0
    80000ff0:	01028293          	addi	t0,t0,16 # 80000ffc <goto_priv+0xf4>
    80000ff4:	14129073          	csrw	sepc,t0
    80000ff8:	10200073          	sret
    curr_priv = priv;
    80000ffc:	0003b797          	auipc	a5,0x3b
    80001000:	8287a423          	sw	s0,-2008(a5) # 8003b824 <curr_priv>
    80001004:	bf25                	j	80000f3c <goto_priv+0x34>
        goto_priv(PRIV_M);
    80001006:	4511                	li	a0,4
    80001008:	f01ff0ef          	jal	80000f08 <goto_priv>
    if(real_priv == target_priv || target_priv >= PRIV_MAX){
    8000100c:	0003b797          	auipc	a5,0x3b
    80001010:	8147a783          	lw	a5,-2028(a5) # 8003b820 <real_priv>
    80001014:	f28783e3          	beq	a5,s0,80000f3a <goto_priv+0x32>
    if(target_priv > curr_priv){
    80001018:	0003b717          	auipc	a4,0x3b
    8000101c:	80c72703          	lw	a4,-2036(a4) # 8003b824 <curr_priv>
    80001020:	f88764e3          	bltu	a4,s0,80000fa8 <goto_priv+0xa0>
    if(priv == curr_priv) 
    80001024:	f0870ce3          	beq	a4,s0,80000f3c <goto_priv+0x34>
    80001028:	bf3d                	j	80000f66 <goto_priv+0x5e>
        ERROR("cant lower priv from u");
    8000102a:	0002d517          	auipc	a0,0x2d
    8000102e:	3ee50513          	addi	a0,a0,1006 # 8002e418 <__func__.0+0x530>
    80001032:	3f82a0ef          	jal	8002b42a <printf>
    80001036:	07200613          	li	a2,114
    8000103a:	b7a1                	j	80000f82 <goto_priv+0x7a>
        asm volatile(
    8000103c:	00000297          	auipc	t0,0x0
    80001040:	01028293          	addi	t0,t0,16 # 8000104c <goto_priv+0x144>
    80001044:	34129073          	csrw	mepc,t0
    80001048:	30200073          	mret
    8000104c:	bf45                	j	80000ffc <goto_priv+0xf4>

000000008000104e <excpt_info>:
    if(((*(uint16_t*)epc) & 0b11) == 0b11) return epc + 4;
    else return epc + 2;
}

void excpt_info(){
    const char* x = excpt.triggered ? "" : "";
    8000104e:	00057797          	auipc	a5,0x57
    80001052:	fc37c783          	lbu	a5,-61(a5) # 80058011 <excpt+0x1>
void excpt_info(){
    80001056:	1141                	addi	sp,sp,-16
    80001058:	e406                	sd	ra,8(sp)
    const char* x = excpt.triggered ? "" : "";
    8000105a:	0002d597          	auipc	a1,0x2d
    8000105e:	3e658593          	addi	a1,a1,998 # 8002e440 <__func__.0+0x558>
    80001062:	e789                	bnez	a5,8000106c <excpt_info+0x1e>
    80001064:	0002d597          	auipc	a1,0x2d
    80001068:	3e458593          	addi	a1,a1,996 # 8002e448 <__func__.0+0x560>
    printf("%s\n",x);
    8000106c:	0002d517          	auipc	a0,0x2d
    80001070:	3e450513          	addi	a0,a0,996 # 8002e450 <__func__.0+0x568>
    80001074:	3b62a0ef          	jal	8002b42a <printf>
    printf("%d\n",excpt.cause);
}
    80001078:	60a2                	ld	ra,8(sp)
    printf("%d\n",excpt.cause);
    8000107a:	00057597          	auipc	a1,0x57
    8000107e:	f9e5b583          	ld	a1,-98(a1) # 80058018 <excpt+0x8>
    80001082:	0002d517          	auipc	a0,0x2d
    80001086:	3e650513          	addi	a0,a0,998 # 8002e468 <__func__.0+0x580>
}
    8000108a:	0141                	addi	sp,sp,16
    printf("%d\n",excpt.cause);
    8000108c:	39e2a06f          	j	8002b42a <printf>

0000000080001090 <mhandler>:
        break;\
    }\
    return from_priv;\
}

uint64_t mhandler(){
    80001090:	715d                	addi	sp,sp,-80
    80001092:	f44e                	sd	s3,40(sp)
    80001094:	e486                	sd	ra,72(sp)
    80001096:	e0a2                	sd	s0,64(sp)
    80001098:	fc26                	sd	s1,56(sp)
    8000109a:	f84a                	sd	s2,48(sp)
    8000109c:	f052                	sd	s4,32(sp)
    8000109e:	ec56                	sd	s5,24(sp)
    800010a0:	e85a                	sd	s6,16(sp)
    800010a2:	e45e                	sd	s7,8(sp)

    real_priv = PRIV_M;
    800010a4:	0003a997          	auipc	s3,0x3a
    800010a8:	77c98993          	addi	s3,s3,1916 # 8003b820 <real_priv>
    800010ac:	4791                	li	a5,4
    800010ae:	00f9a023          	sw	a5,0(s3)

    uint64_t cause = CSRR(mcause);
    800010b2:	342024f3          	csrr	s1,mcause
    uint64_t epc = CSRR(mepc);
    800010b6:	34102973          	csrr	s2,mepc
    800010ba:	8a4a                	mv	s4,s2
    uint64_t tval = CSRR(mtval);
    800010bc:	34302bf3          	csrr	s7,mtval
    uint64_t tval2 = CSRR(CSR_MTVAL2);
    800010c0:	34b02af3          	csrr	s5,0x34b
    uint64_t tinst= CSRR(CSR_MTINST);
    800010c4:	34a02b73          	csrr	s6,0x34a
    if(!(cause == CAUSE_ECU || cause == CAUSE_ECS || 
    800010c8:	478d                	li	a5,3
    800010ca:	ff848713          	addi	a4,s1,-8
    800010ce:	12e7ef63          	bltu	a5,a4,8000120c <mhandler+0x17c>
    DEBUG("mtinst = 0x%lx", tinst);
    DEBUG("mpp = 0x%lx", (CSRR(mstatus) >> 11) & 0x3);
    DEBUG("mpv = 0x%lx", (CSRR(mstatus) >> 39) & 0x1);
    DEBUG("gva = 0x%lx", (CSRR(mstatus) >> MSTATUS_GVA_OFF) & 0x1);
    
    if(is_ecall(cause) && ecall_args[0] == ECALL_GOTO_PRIV){
    800010d2:	00057417          	auipc	s0,0x57
    800010d6:	f2e40413          	addi	s0,s0,-210 # 80058000 <ecall_args>
    800010da:	6018                	ld	a4,0(s0)
    800010dc:	4785                	li	a5,1
    800010de:	1cf70763          	beq	a4,a5,800012ac <mhandler+0x21c>
        goto_priv(ecall_args[1]); 
    } else if(!excpt.testing){
    800010e2:	00057797          	auipc	a5,0x57
    800010e6:	f2e7c783          	lbu	a5,-210(a5) # 80058010 <excpt>
    800010ea:	c3cd                	beqz	a5,8000118c <mhandler+0xfc>

    if(cause & (1ULL << 63)){
        CSRC(mip, 1ULL << (cause &  ~(1ULL << 63)));
    }

    excpt.triggered = true;
    800010ec:	4705                	li	a4,1
    excpt.priv = PRIV_M;
    800010ee:	4791                	li	a5,4
    excpt.cause = cause;
    800010f0:	ec04                	sd	s1,24(s0)
    excpt.epc = epc;
    800010f2:	03243023          	sd	s2,32(s0)
    excpt.tval = tval;
    800010f6:	03743423          	sd	s7,40(s0)
    excpt.tinst = tinst;
    800010fa:	03643823          	sd	s6,48(s0)
    excpt.tval2 = tval2;
    800010fe:	03543c23          	sd	s5,56(s0)
    excpt.triggered = true;
    80001102:	00e408a3          	sb	a4,17(s0)
    excpt.priv = PRIV_M;
    80001106:	c85c                	sw	a5,20(s0)
    excpt.gva = !!((CSRR(mstatus) >> MSTATUS_GVA_OFF) & 0x1);
    80001108:	300027f3          	csrr	a5,mstatus
    8000110c:	9399                	srli	a5,a5,0x26
    8000110e:	8ff9                	and	a5,a5,a4
    80001110:	04f40023          	sb	a5,64(s0)
    excpt.xpv = !!((CSRR(mstatus) >> 39) & 0x1);
    80001114:	300027f3          	csrr	a5,mstatus
    80001118:	939d                	srli	a5,a5,0x27
    8000111a:	8ff9                	and	a5,a5,a4
    8000111c:	04f400a3          	sb	a5,65(s0)
    excpt.testing = false;
    80001120:	00057797          	auipc	a5,0x57
    80001124:	ee078823          	sb	zero,-272(a5) # 80058010 <excpt>
    if(is_inst_fault(cause)){
    80001128:	47d1                	li	a5,20
    8000112a:	0097ed63          	bltu	a5,s1,80001144 <mhandler+0xb4>
    8000112e:	001017b7          	lui	a5,0x101
    80001132:	078d                	addi	a5,a5,3 # 101003 <STACK_SIZE+0x1003>
    80001134:	0097d7b3          	srl	a5,a5,s1
    80001138:	8ff9                	and	a5,a5,a4
    8000113a:	c789                	beqz	a5,80001144 <mhandler+0xb4>
        if(excpt.fault_inst != 0){ 
    8000113c:	04843a03          	ld	s4,72(s0)
    80001140:	0e0a0763          	beqz	s4,8000122e <mhandler+0x19e>
            ERROR("instruction fault without return address");
    }
    excpt.fault_inst = 0;

    unsigned temp_priv = real_priv;
    real_priv = curr_priv;
    80001144:	0003a797          	auipc	a5,0x3a
    80001148:	6e07a783          	lw	a5,1760(a5) # 8003b824 <curr_priv>
    unsigned temp_priv = real_priv;
    8000114c:	0003a517          	auipc	a0,0x3a
    80001150:	6d452503          	lw	a0,1748(a0) # 8003b820 <real_priv>
    excpt.fault_inst = 0;
    80001154:	00057717          	auipc	a4,0x57
    80001158:	ee073a23          	sd	zero,-268(a4) # 80058048 <excpt+0x38>
    real_priv = curr_priv;
    8000115c:	00f9a023          	sw	a5,0(s3)
    return_from_exception(temp_priv, curr_priv, cause, epc);
    80001160:	478d                	li	a5,3
    80001162:	04f50a63          	beq	a0,a5,800011b6 <mhandler+0x126>
    80001166:	4791                	li	a5,4
    80001168:	0ef50363          	beq	a0,a5,8000124e <mhandler+0x1be>
    8000116c:	4789                	li	a5,2
    8000116e:	06f50263          	beq	a0,a5,800011d2 <mhandler+0x142>
}
    80001172:	60a6                	ld	ra,72(sp)
    80001174:	6406                	ld	s0,64(sp)
    80001176:	1502                	slli	a0,a0,0x20
    80001178:	74e2                	ld	s1,56(sp)
    8000117a:	7942                	ld	s2,48(sp)
    8000117c:	79a2                	ld	s3,40(sp)
    8000117e:	7a02                	ld	s4,32(sp)
    80001180:	6ae2                	ld	s5,24(sp)
    80001182:	6b42                	ld	s6,16(sp)
    80001184:	6ba2                	ld	s7,8(sp)
    80001186:	9101                	srli	a0,a0,0x20
    80001188:	6161                	addi	sp,sp,80
    8000118a:	8082                	ret
        ERROR("untested exception!");
    8000118c:	0002d517          	auipc	a0,0x2d
    80001190:	2f450513          	addi	a0,a0,756 # 8002e480 <__func__.0+0x598>
    80001194:	2962a0ef          	jal	8002b42a <printf>
    80001198:	0ec00613          	li	a2,236
            ERROR("instruction fault without return address");
    8000119c:	0002b597          	auipc	a1,0x2b
    800011a0:	f6458593          	addi	a1,a1,-156 # 8002c100 <__func__.3>
    800011a4:	0002d517          	auipc	a0,0x2d
    800011a8:	1ac50513          	addi	a0,a0,428 # 8002e350 <__func__.0+0x468>
    800011ac:	27e2a0ef          	jal	8002b42a <printf>
    800011b0:	4501                	li	a0,0
    800011b2:	62f290ef          	jal	8002afe0 <exit>
    return_from_exception(temp_priv, curr_priv, cause, epc);
    800011b6:	600026f3          	csrr	a3,hstatus
    800011ba:	0003a797          	auipc	a5,0x3a
    800011be:	66a7a783          	lw	a5,1642(a5) # 8003b824 <curr_priv>
    800011c2:	0806e713          	ori	a4,a3,128
    800011c6:	9bf5                	andi	a5,a5,-3
    800011c8:	c399                	beqz	a5,800011ce <mhandler+0x13e>
    800011ca:	f7f6f713          	andi	a4,a3,-129
    800011ce:	60071073          	csrw	hstatus,a4
    800011d2:	100027f3          	csrr	a5,sstatus
    800011d6:	0003a717          	auipc	a4,0x3a
    800011da:	64e72703          	lw	a4,1614(a4) # 8003b824 <curr_priv>
    800011de:	4685                	li	a3,1
    800011e0:	edf7f793          	andi	a5,a5,-289
    800011e4:	3779                	addiw	a4,a4,-2
    800011e6:	04e6fd63          	bgeu	a3,a4,80001240 <mhandler+0x1b0>
    800011ea:	10079073          	csrw	sstatus,a5
    800011ee:	f804c2e3          	bltz	s1,80001172 <mhandler+0xe2>
    if(((*(uint16_t*)epc) & 0b11) == 0b11) return epc + 4;
    800011f2:	000a5783          	lhu	a5,0(s4)
    800011f6:	468d                	li	a3,3
    else return epc + 2;
    800011f8:	002a0713          	addi	a4,s4,2
    if(((*(uint16_t*)epc) & 0b11) == 0b11) return epc + 4;
    800011fc:	8ff5                	and	a5,a5,a3
    800011fe:	00d79463          	bne	a5,a3,80001206 <mhandler+0x176>
    80001202:	004a0713          	addi	a4,s4,4
    return_from_exception(temp_priv, curr_priv, cause, epc);
    80001206:	14171073          	csrw	sepc,a4
    8000120a:	b7a5                	j	80001172 <mhandler+0xe2>
    } else if(!excpt.testing){
    8000120c:	00057797          	auipc	a5,0x57
    80001210:	e047c783          	lbu	a5,-508(a5) # 80058010 <excpt>
    80001214:	dfa5                	beqz	a5,8000118c <mhandler+0xfc>
    if(cause & (1ULL << 63)){
    80001216:	0004d763          	bgez	s1,80001224 <mhandler+0x194>
        CSRC(mip, 1ULL << (cause &  ~(1ULL << 63)));
    8000121a:	4785                	li	a5,1
    8000121c:	009797b3          	sll	a5,a5,s1
    80001220:	3447b073          	csrc	mip,a5
    80001224:	00057417          	auipc	s0,0x57
    80001228:	ddc40413          	addi	s0,s0,-548 # 80058000 <ecall_args>
    8000122c:	b5c1                	j	800010ec <mhandler+0x5c>
            ERROR("instruction fault without return address");
    8000122e:	0002d517          	auipc	a0,0x2d
    80001232:	27a50513          	addi	a0,a0,634 # 8002e4a8 <__func__.0+0x5c0>
    80001236:	1f42a0ef          	jal	8002b42a <printf>
    8000123a:	10200613          	li	a2,258
    8000123e:	bfb9                	j	8000119c <mhandler+0x10c>
    return_from_exception(temp_priv, curr_priv, cause, epc);
    80001240:	1007e793          	ori	a5,a5,256
    80001244:	10079073          	csrw	sstatus,a5
    80001248:	fa04d5e3          	bgez	s1,800011f2 <mhandler+0x162>
    8000124c:	b71d                	j	80001172 <mhandler+0xe2>
    8000124e:	30002773          	csrr	a4,mstatus
    80001252:	fc0007b7          	lui	a5,0xfc000
    80001256:	17fd                	addi	a5,a5,-1 # fffffffffbffffff <__stack_top+0xffffffff7bd00fff>
    80001258:	0003a697          	auipc	a3,0x3a
    8000125c:	5cc6a683          	lw	a3,1484(a3) # 8003b824 <curr_priv>
    80001260:	07b6                	slli	a5,a5,0xd
    80001262:	77f78793          	addi	a5,a5,1919
    80001266:	8ff9                	and	a5,a5,a4
    80001268:	04a68663          	beq	a3,a0,800012b4 <mhandler+0x224>
    8000126c:	ffe6871b          	addiw	a4,a3,-2
    80001270:	4605                	li	a2,1
    80001272:	04e66663          	bltu	a2,a4,800012be <mhandler+0x22e>
    80001276:	6705                	lui	a4,0x1
    80001278:	80070713          	addi	a4,a4,-2048 # 800 <_test_table_size+0x7ff>
    8000127c:	4609                	li	a2,2
    8000127e:	8fd9                	or	a5,a5,a4
    80001280:	00c69563          	bne	a3,a2,8000128a <mhandler+0x1fa>
    80001284:	4705                	li	a4,1
    80001286:	171e                	slli	a4,a4,0x27
    80001288:	8fd9                	or	a5,a5,a4
    8000128a:	30079073          	csrw	mstatus,a5
    8000128e:	ee04c2e3          	bltz	s1,80001172 <mhandler+0xe2>
    if(((*(uint16_t*)epc) & 0b11) == 0b11) return epc + 4;
    80001292:	000a5783          	lhu	a5,0(s4)
    80001296:	468d                	li	a3,3
    else return epc + 2;
    80001298:	002a0713          	addi	a4,s4,2
    if(((*(uint16_t*)epc) & 0b11) == 0b11) return epc + 4;
    8000129c:	8ff5                	and	a5,a5,a3
    8000129e:	00d79463          	bne	a5,a3,800012a6 <mhandler+0x216>
    800012a2:	004a0713          	addi	a4,s4,4
    return_from_exception(temp_priv, curr_priv, cause, epc);
    800012a6:	34171073          	csrw	mepc,a4
    800012aa:	b5e1                	j	80001172 <mhandler+0xe2>
        goto_priv(ecall_args[1]); 
    800012ac:	4408                	lw	a0,8(s0)
    800012ae:	c5bff0ef          	jal	80000f08 <goto_priv>
    if(cause & (1ULL << 63)){
    800012b2:	bd2d                	j	800010ec <mhandler+0x5c>
    return_from_exception(temp_priv, curr_priv, cause, epc);
    800012b4:	6709                	lui	a4,0x2
    800012b6:	80070713          	addi	a4,a4,-2048 # 1800 <_test_table_size+0x17ff>
    800012ba:	8fd9                	or	a5,a5,a4
    800012bc:	b7f9                	j	8000128a <mhandler+0x1fa>
    800012be:	d2f9                	beqz	a3,80001284 <mhandler+0x1f4>
    800012c0:	b7e9                	j	8000128a <mhandler+0x1fa>

00000000800012c2 <hshandler>:
uint64_t hshandler(){
    800012c2:	715d                	addi	sp,sp,-80
    800012c4:	f44e                	sd	s3,40(sp)
    800012c6:	e486                	sd	ra,72(sp)
    800012c8:	e0a2                	sd	s0,64(sp)
    800012ca:	fc26                	sd	s1,56(sp)
    800012cc:	f84a                	sd	s2,48(sp)
    800012ce:	f052                	sd	s4,32(sp)
    800012d0:	ec56                	sd	s5,24(sp)
    800012d2:	e85a                	sd	s6,16(sp)
    800012d4:	e45e                	sd	s7,8(sp)

    real_priv = PRIV_HS;
    800012d6:	0003a997          	auipc	s3,0x3a
    800012da:	54a98993          	addi	s3,s3,1354 # 8003b820 <real_priv>
    800012de:	478d                	li	a5,3
    800012e0:	00f9a023          	sw	a5,0(s3)

    uint64_t cause = CSRR(scause);
    800012e4:	142024f3          	csrr	s1,scause
    uint64_t epc = CSRR(sepc);
    800012e8:	14102973          	csrr	s2,sepc
    800012ec:	8a4a                	mv	s4,s2
    uint64_t tval = CSRR(stval);
    800012ee:	14302bf3          	csrr	s7,stval
    uint64_t htval = CSRR(CSR_HTVAL);
    800012f2:	64302af3          	csrr	s5,htval
    uint64_t htinst = CSRR(CSR_HTINST);
    800012f6:	64a02b73          	csrr	s6,htinst
    if(!(cause == CAUSE_ECU || cause == CAUSE_ECS || 
    800012fa:	ff848713          	addi	a4,s1,-8
    800012fe:	02e7ef63          	bltu	a5,a4,8000133c <hshandler+0x7a>
    DEBUG("spv = 0x%lx", (CSRR(CSR_HSTATUS) >> 7) & 0x1);
    DEBUG("spvp = 0x%lx", (CSRR(CSR_HSTATUS) >> 8) & 0x1);
    DEBUG("gva = 0x%lx", (CSRR(CSR_HSTATUS) >> HSTATUS_GVA_OFF) & 0x1);


    if(is_ecall(cause) && ecall_args[0] == ECALL_GOTO_PRIV){ 
    80001302:	00057417          	auipc	s0,0x57
    80001306:	cfe40413          	addi	s0,s0,-770 # 80058000 <ecall_args>
    8000130a:	6018                	ld	a4,0(s0)
    8000130c:	4785                	li	a5,1
    8000130e:	14f70063          	beq	a4,a5,8000144e <hshandler+0x18c>
        goto_priv(ecall_args[1]); 
    } else if(is_ecall(cause)) {
        ERROR("unknown ecall"); 
    80001312:	0002d517          	auipc	a0,0x2d
    80001316:	1d650513          	addi	a0,a0,470 # 8002e4e8 <__func__.0+0x600>
    8000131a:	1102a0ef          	jal	8002b42a <printf>
    8000131e:	12200613          	li	a2,290
    } else if(!excpt.testing){
        ERROR("untested exception!");
    80001322:	0002b597          	auipc	a1,0x2b
    80001326:	dee58593          	addi	a1,a1,-530 # 8002c110 <__func__.2>
    8000132a:	0002d517          	auipc	a0,0x2d
    8000132e:	02650513          	addi	a0,a0,38 # 8002e350 <__func__.0+0x468>
    80001332:	0f82a0ef          	jal	8002b42a <printf>
    80001336:	4501                	li	a0,0
    80001338:	4a9290ef          	jal	8002afe0 <exit>
    } else if(!excpt.testing){
    8000133c:	00057797          	auipc	a5,0x57
    80001340:	cd47c783          	lbu	a5,-812(a5) # 80058010 <excpt>
    80001344:	cfe5                	beqz	a5,8000143c <hshandler+0x17a>
    }
    
    if(cause & (1ULL << 63)){
    80001346:	0004d963          	bgez	s1,80001358 <hshandler+0x96>
        CSRC(sip, 1ULL << (cause &  ~(1ULL << 63)));
    8000134a:	4785                	li	a5,1
    8000134c:	009797b3          	sll	a5,a5,s1
    80001350:	1447b073          	csrc	sip,a5
        //CSRC(CSR_HVIP, 1ULL << (cause &  ~(1ULL << 63)));
        CSRC(CSR_HIP, 1ULL << (cause &  ~(1ULL << 63)));
    80001354:	6447b073          	csrc	hip,a5
    80001358:	00057417          	auipc	s0,0x57
    8000135c:	ca840413          	addi	s0,s0,-856 # 80058000 <ecall_args>
    }

    excpt.triggered = true;
    80001360:	4705                	li	a4,1
    excpt.priv = PRIV_HS;
    80001362:	478d                	li	a5,3
    excpt.cause = cause;
    80001364:	ec04                	sd	s1,24(s0)
    excpt.epc = epc;
    80001366:	03243023          	sd	s2,32(s0)
    excpt.tval = tval;
    8000136a:	03743423          	sd	s7,40(s0)
    excpt.tinst = htinst;
    8000136e:	03643823          	sd	s6,48(s0)
    excpt.tval2 = htval;
    80001372:	03543c23          	sd	s5,56(s0)
    excpt.triggered = true;
    80001376:	00e408a3          	sb	a4,17(s0)
    excpt.priv = PRIV_HS;
    8000137a:	c85c                	sw	a5,20(s0)
    excpt.gva = !!((CSRR(CSR_HSTATUS) >> HSTATUS_GVA_OFF) & 0x1);
    8000137c:	600027f3          	csrr	a5,hstatus
    80001380:	8399                	srli	a5,a5,0x6
    80001382:	8ff9                	and	a5,a5,a4
    80001384:	04f40023          	sb	a5,64(s0)
    excpt.xpv = !!((CSRR(CSR_HSTATUS) >> 7) & 0x1);
    80001388:	600027f3          	csrr	a5,hstatus
    8000138c:	839d                	srli	a5,a5,0x7
    8000138e:	8ff9                	and	a5,a5,a4
    80001390:	04f400a3          	sb	a5,65(s0)
    excpt.testing = false;
    80001394:	00057797          	auipc	a5,0x57
    80001398:	c6078e23          	sb	zero,-900(a5) # 80058010 <excpt>
    if(is_inst_fault(cause)){
    8000139c:	47d1                	li	a5,20
    8000139e:	0097ed63          	bltu	a5,s1,800013b8 <hshandler+0xf6>
    800013a2:	001017b7          	lui	a5,0x101
    800013a6:	078d                	addi	a5,a5,3 # 101003 <STACK_SIZE+0x1003>
    800013a8:	0097d7b3          	srl	a5,a5,s1
    800013ac:	8ff9                	and	a5,a5,a4
    800013ae:	c789                	beqz	a5,800013b8 <hshandler+0xf6>
        if(excpt.fault_inst != 0){ 
    800013b0:	04843a03          	ld	s4,72(s0)
    800013b4:	0a0a0163          	beqz	s4,80001456 <hshandler+0x194>
            ERROR("instruction fault without return address");
    }
    excpt.fault_inst = 0;

    unsigned temp_priv = real_priv;
    real_priv = curr_priv;
    800013b8:	0003a797          	auipc	a5,0x3a
    800013bc:	46c7a783          	lw	a5,1132(a5) # 8003b824 <curr_priv>
    unsigned temp_priv = real_priv;
    800013c0:	0003a517          	auipc	a0,0x3a
    800013c4:	46052503          	lw	a0,1120(a0) # 8003b820 <real_priv>
    excpt.fault_inst = 0;
    800013c8:	00057717          	auipc	a4,0x57
    800013cc:	c8073023          	sd	zero,-896(a4) # 80058048 <excpt+0x38>
    real_priv = curr_priv;
    800013d0:	00f9a023          	sw	a5,0(s3)
    return_from_exception(temp_priv, curr_priv, cause, epc);
    800013d4:	478d                	li	a5,3
    800013d6:	0ef50863          	beq	a0,a5,800014c6 <hshandler+0x204>
    800013da:	4791                	li	a5,4
    800013dc:	08f50663          	beq	a0,a5,80001468 <hshandler+0x1a6>
    800013e0:	4789                	li	a5,2
    800013e2:	04f51063          	bne	a0,a5,80001422 <hshandler+0x160>
    800013e6:	100027f3          	csrr	a5,sstatus
    800013ea:	0003a717          	auipc	a4,0x3a
    800013ee:	43a72703          	lw	a4,1082(a4) # 8003b824 <curr_priv>
    800013f2:	4685                	li	a3,1
    800013f4:	edf7f793          	andi	a5,a5,-289
    800013f8:	3779                	addiw	a4,a4,-2
    800013fa:	00e6e463          	bltu	a3,a4,80001402 <hshandler+0x140>
    800013fe:	1007e793          	ori	a5,a5,256
    80001402:	10079073          	csrw	sstatus,a5
    80001406:	0004ce63          	bltz	s1,80001422 <hshandler+0x160>
    if(((*(uint16_t*)epc) & 0b11) == 0b11) return epc + 4;
    8000140a:	000a5783          	lhu	a5,0(s4)
    8000140e:	468d                	li	a3,3
    else return epc + 2;
    80001410:	002a0713          	addi	a4,s4,2
    if(((*(uint16_t*)epc) & 0b11) == 0b11) return epc + 4;
    80001414:	8ff5                	and	a5,a5,a3
    80001416:	00d79463          	bne	a5,a3,8000141e <hshandler+0x15c>
    8000141a:	004a0713          	addi	a4,s4,4
    return_from_exception(temp_priv, curr_priv, cause, epc);
    8000141e:	14171073          	csrw	sepc,a4
}
    80001422:	60a6                	ld	ra,72(sp)
    80001424:	6406                	ld	s0,64(sp)
    80001426:	1502                	slli	a0,a0,0x20
    80001428:	74e2                	ld	s1,56(sp)
    8000142a:	7942                	ld	s2,48(sp)
    8000142c:	79a2                	ld	s3,40(sp)
    8000142e:	7a02                	ld	s4,32(sp)
    80001430:	6ae2                	ld	s5,24(sp)
    80001432:	6b42                	ld	s6,16(sp)
    80001434:	6ba2                	ld	s7,8(sp)
    80001436:	9101                	srli	a0,a0,0x20
    80001438:	6161                	addi	sp,sp,80
    8000143a:	8082                	ret
        ERROR("untested exception!");
    8000143c:	0002d517          	auipc	a0,0x2d
    80001440:	04450513          	addi	a0,a0,68 # 8002e480 <__func__.0+0x598>
    80001444:	7e7290ef          	jal	8002b42a <printf>
    80001448:	12400613          	li	a2,292
    8000144c:	bdd9                	j	80001322 <hshandler+0x60>
        goto_priv(ecall_args[1]); 
    8000144e:	4408                	lw	a0,8(s0)
    80001450:	ab9ff0ef          	jal	80000f08 <goto_priv>
    if(cause & (1ULL << 63)){
    80001454:	b731                	j	80001360 <hshandler+0x9e>
            ERROR("instruction fault without return address");
    80001456:	0002d517          	auipc	a0,0x2d
    8000145a:	05250513          	addi	a0,a0,82 # 8002e4a8 <__func__.0+0x5c0>
    8000145e:	7cd290ef          	jal	8002b42a <printf>
    80001462:	13c00613          	li	a2,316
    80001466:	bd75                	j	80001322 <hshandler+0x60>
    return_from_exception(temp_priv, curr_priv, cause, epc);
    80001468:	30002773          	csrr	a4,mstatus
    8000146c:	fc0007b7          	lui	a5,0xfc000
    80001470:	17fd                	addi	a5,a5,-1 # fffffffffbffffff <__stack_top+0xffffffff7bd00fff>
    80001472:	0003a697          	auipc	a3,0x3a
    80001476:	3b26a683          	lw	a3,946(a3) # 8003b824 <curr_priv>
    8000147a:	07b6                	slli	a5,a5,0xd
    8000147c:	77f78793          	addi	a5,a5,1919
    80001480:	8ff9                	and	a5,a5,a4
    80001482:	06a68263          	beq	a3,a0,800014e6 <hshandler+0x224>
    80001486:	ffe6871b          	addiw	a4,a3,-2
    8000148a:	4605                	li	a2,1
    8000148c:	06e66263          	bltu	a2,a4,800014f0 <hshandler+0x22e>
    80001490:	6705                	lui	a4,0x1
    80001492:	80070713          	addi	a4,a4,-2048 # 800 <_test_table_size+0x7ff>
    80001496:	4609                	li	a2,2
    80001498:	8fd9                	or	a5,a5,a4
    8000149a:	00c69563          	bne	a3,a2,800014a4 <hshandler+0x1e2>
    8000149e:	4705                	li	a4,1
    800014a0:	171e                	slli	a4,a4,0x27
    800014a2:	8fd9                	or	a5,a5,a4
    800014a4:	30079073          	csrw	mstatus,a5
    800014a8:	f604cde3          	bltz	s1,80001422 <hshandler+0x160>
    if(((*(uint16_t*)epc) & 0b11) == 0b11) return epc + 4;
    800014ac:	000a5783          	lhu	a5,0(s4)
    800014b0:	468d                	li	a3,3
    else return epc + 2;
    800014b2:	002a0713          	addi	a4,s4,2
    if(((*(uint16_t*)epc) & 0b11) == 0b11) return epc + 4;
    800014b6:	8ff5                	and	a5,a5,a3
    800014b8:	00d79463          	bne	a5,a3,800014c0 <hshandler+0x1fe>
    800014bc:	004a0713          	addi	a4,s4,4
    return_from_exception(temp_priv, curr_priv, cause, epc);
    800014c0:	34171073          	csrw	mepc,a4
    800014c4:	bfb9                	j	80001422 <hshandler+0x160>
    800014c6:	600026f3          	csrr	a3,hstatus
    800014ca:	0003a797          	auipc	a5,0x3a
    800014ce:	35a7a783          	lw	a5,858(a5) # 8003b824 <curr_priv>
    800014d2:	0806e713          	ori	a4,a3,128
    800014d6:	9bf5                	andi	a5,a5,-3
    800014d8:	e781                	bnez	a5,800014e0 <hshandler+0x21e>
    800014da:	60071073          	csrw	hstatus,a4
    800014de:	b721                	j	800013e6 <hshandler+0x124>
    800014e0:	f7f6f713          	andi	a4,a3,-129
    800014e4:	bfdd                	j	800014da <hshandler+0x218>
    800014e6:	6709                	lui	a4,0x2
    800014e8:	80070713          	addi	a4,a4,-2048 # 1800 <_test_table_size+0x17ff>
    800014ec:	8fd9                	or	a5,a5,a4
    800014ee:	bf5d                	j	800014a4 <hshandler+0x1e2>
    800014f0:	d6dd                	beqz	a3,8000149e <hshandler+0x1dc>
    800014f2:	bf4d                	j	800014a4 <hshandler+0x1e2>

00000000800014f4 <vshandler>:

uint64_t vshandler(){
    800014f4:	7139                	addi	sp,sp,-64
    800014f6:	f04a                	sd	s2,32(sp)
    800014f8:	fc06                	sd	ra,56(sp)
    800014fa:	f822                	sd	s0,48(sp)
    800014fc:	f426                	sd	s1,40(sp)
    800014fe:	ec4e                	sd	s3,24(sp)
    80001500:	e852                	sd	s4,16(sp)
    80001502:	e456                	sd	s5,8(sp)

    real_priv = PRIV_VS;
    80001504:	0003a917          	auipc	s2,0x3a
    80001508:	31c90913          	addi	s2,s2,796 # 8003b820 <real_priv>
    8000150c:	4709                	li	a4,2
    8000150e:	00e92023          	sw	a4,0(s2)

    uint64_t cause = CSRR(scause);
    80001512:	14202473          	csrr	s0,scause
    uint64_t epc = CSRR(sepc);
    80001516:	141029f3          	csrr	s3,sepc
    8000151a:	84ce                	mv	s1,s3
    uint64_t tval = CSRR(stval);
    8000151c:	14302a73          	csrr	s4,stval
    if(!(cause == CAUSE_ECU || cause == CAUSE_ECS || 
    80001520:	478d                	li	a5,3
    80001522:	ff840693          	addi	a3,s0,-8
    80001526:	04d7e663          	bltu	a5,a3,80001572 <vshandler+0x7e>
    VERBOSE("virtual supervisor handler (scause = 0x%llx)", cause);
    DEBUG("scause = 0x%llx", cause);
    DEBUG("sepc = 0x%lx", epc);
    DEBUG("stval = 0x%lx", tval);
    
    if(is_ecall(cause) && ecall_args[0] ==ECALL_GOTO_PRIV ){
    8000152a:	00057a97          	auipc	s5,0x57
    8000152e:	ad6a8a93          	addi	s5,s5,-1322 # 80058000 <ecall_args>
    80001532:	000ab703          	ld	a4,0(s5)
    80001536:	4785                	li	a5,1
    80001538:	1cf70563          	beq	a4,a5,80001702 <vshandler+0x20e>
        goto_priv(ecall_args[1]); 
    } else if(!excpt.testing){
    8000153c:	00057797          	auipc	a5,0x57
    80001540:	ad47c783          	lbu	a5,-1324(a5) # 80058010 <excpt>
    80001544:	1c079363          	bnez	a5,8000170a <vshandler+0x216>
        ERROR("untested exception!");
    80001548:	0002d517          	auipc	a0,0x2d
    8000154c:	f3850513          	addi	a0,a0,-200 # 8002e480 <__func__.0+0x598>
    80001550:	6db290ef          	jal	8002b42a <printf>
    80001554:	15500613          	li	a2,341
    excpt.epc = epc;
    excpt.tval = tval;
    excpt.testing = false;
    if(is_inst_fault(cause)){
        if(excpt.fault_inst != 0) epc = excpt.fault_inst;
        else ERROR("instruction fault without return address");
    80001558:	0002b597          	auipc	a1,0x2b
    8000155c:	bc858593          	addi	a1,a1,-1080 # 8002c120 <__func__.1>
    80001560:	0002d517          	auipc	a0,0x2d
    80001564:	df050513          	addi	a0,a0,-528 # 8002e350 <__func__.0+0x468>
    80001568:	6c3290ef          	jal	8002b42a <printf>
    8000156c:	4501                	li	a0,0
    8000156e:	273290ef          	jal	8002afe0 <exit>
    } else if(!excpt.testing){
    80001572:	00057697          	auipc	a3,0x57
    80001576:	a9e6c683          	lbu	a3,-1378(a3) # 80058010 <excpt>
    8000157a:	00057797          	auipc	a5,0x57
    8000157e:	a8678793          	addi	a5,a5,-1402 # 80058000 <ecall_args>
    80001582:	d2f9                	beqz	a3,80001548 <vshandler+0x54>
    if(cause & (1ULL << 63)){
    80001584:	0c045463          	bgez	s0,8000164c <vshandler+0x158>
        CSRC(sip, 1ULL << (cause &  ~(1ULL << 63)));
    80001588:	4685                	li	a3,1
    8000158a:	008696b3          	sll	a3,a3,s0
    8000158e:	1446b073          	csrc	sip,a3
    excpt.testing = false;
    80001592:	cc517057          	vsetivli	zero,2,e8,mf8,ta,ma
    80001596:	5208a0d7          	vid.v	v1
    8000159a:	00057697          	auipc	a3,0x57
    8000159e:	a7668693          	addi	a3,a3,-1418 # 80058010 <excpt>
    800015a2:	020680a7          	vse8.v	v1,(a3)
    excpt.priv = PRIV_VS;
    800015a6:	cbd8                	sw	a4,20(a5)
    excpt.cause = cause;
    800015a8:	ef80                	sd	s0,24(a5)
    excpt.epc = epc;
    800015aa:	0337b023          	sd	s3,32(a5)
    excpt.tval = tval;
    800015ae:	0347b423          	sd	s4,40(a5)
    }
    excpt.fault_inst = 0;

    unsigned temp_priv = real_priv;
    real_priv = curr_priv;
    800015b2:	0003a797          	auipc	a5,0x3a
    800015b6:	2727a783          	lw	a5,626(a5) # 8003b824 <curr_priv>
    unsigned temp_priv = real_priv;
    800015ba:	0003a517          	auipc	a0,0x3a
    800015be:	26652503          	lw	a0,614(a0) # 8003b820 <real_priv>
    excpt.fault_inst = 0;
    800015c2:	00057717          	auipc	a4,0x57
    800015c6:	a8073323          	sd	zero,-1402(a4) # 80058048 <excpt+0x38>
    real_priv = curr_priv;
    800015ca:	00f92023          	sw	a5,0(s2)
    return_from_exception(temp_priv, curr_priv, cause, epc);
    800015ce:	478d                	li	a5,3
    800015d0:	02f50363          	beq	a0,a5,800015f6 <vshandler+0x102>
    800015d4:	4791                	li	a5,4
    800015d6:	0cf50763          	beq	a0,a5,800016a4 <vshandler+0x1b0>
    800015da:	4789                	li	a5,2
    800015dc:	02f50b63          	beq	a0,a5,80001612 <vshandler+0x11e>
}
    800015e0:	70e2                	ld	ra,56(sp)
    800015e2:	7442                	ld	s0,48(sp)
    return_from_exception(temp_priv, curr_priv, cause, epc);
    800015e4:	1502                	slli	a0,a0,0x20
}
    800015e6:	74a2                	ld	s1,40(sp)
    800015e8:	7902                	ld	s2,32(sp)
    800015ea:	69e2                	ld	s3,24(sp)
    800015ec:	6a42                	ld	s4,16(sp)
    800015ee:	6aa2                	ld	s5,8(sp)
    return_from_exception(temp_priv, curr_priv, cause, epc);
    800015f0:	9101                	srli	a0,a0,0x20
}
    800015f2:	6121                	addi	sp,sp,64
    800015f4:	8082                	ret
    return_from_exception(temp_priv, curr_priv, cause, epc);
    800015f6:	600026f3          	csrr	a3,hstatus
    800015fa:	0003a797          	auipc	a5,0x3a
    800015fe:	22a7a783          	lw	a5,554(a5) # 8003b824 <curr_priv>
    80001602:	0806e713          	ori	a4,a3,128
    80001606:	9bf5                	andi	a5,a5,-3
    80001608:	c399                	beqz	a5,8000160e <vshandler+0x11a>
    8000160a:	f7f6f713          	andi	a4,a3,-129
    8000160e:	60071073          	csrw	hstatus,a4
    80001612:	100027f3          	csrr	a5,sstatus
    80001616:	0003a717          	auipc	a4,0x3a
    8000161a:	20e72703          	lw	a4,526(a4) # 8003b824 <curr_priv>
    8000161e:	4685                	li	a3,1
    80001620:	edf7f793          	andi	a5,a5,-289
    80001624:	3779                	addiw	a4,a4,-2
    80001626:	06e6f863          	bgeu	a3,a4,80001696 <vshandler+0x1a2>
    8000162a:	10079073          	csrw	sstatus,a5
    8000162e:	fa0449e3          	bltz	s0,800015e0 <vshandler+0xec>
    if(((*(uint16_t*)epc) & 0b11) == 0b11) return epc + 4;
    80001632:	0004d783          	lhu	a5,0(s1)
    80001636:	468d                	li	a3,3
    else return epc + 2;
    80001638:	00248713          	addi	a4,s1,2
    if(((*(uint16_t*)epc) & 0b11) == 0b11) return epc + 4;
    8000163c:	8ff5                	and	a5,a5,a3
    8000163e:	00d79463          	bne	a5,a3,80001646 <vshandler+0x152>
    80001642:	00448713          	addi	a4,s1,4
    return_from_exception(temp_priv, curr_priv, cause, epc);
    80001646:	14171073          	csrw	sepc,a4
    8000164a:	bf59                	j	800015e0 <vshandler+0xec>
    excpt.testing = false;
    8000164c:	cc517057          	vsetivli	zero,2,e8,mf8,ta,ma
    80001650:	5208a0d7          	vid.v	v1
    80001654:	00057697          	auipc	a3,0x57
    80001658:	9bc68693          	addi	a3,a3,-1604 # 80058010 <excpt>
    8000165c:	020680a7          	vse8.v	v1,(a3)
    excpt.priv = PRIV_VS;
    80001660:	cbd8                	sw	a4,20(a5)
    excpt.cause = cause;
    80001662:	ef80                	sd	s0,24(a5)
    excpt.epc = epc;
    80001664:	0337b023          	sd	s3,32(a5)
    excpt.tval = tval;
    80001668:	0347b423          	sd	s4,40(a5)
    if(is_inst_fault(cause)){
    8000166c:	4751                	li	a4,20
    8000166e:	f48762e3          	bltu	a4,s0,800015b2 <vshandler+0xbe>
    80001672:	00101737          	lui	a4,0x101
    80001676:	070d                	addi	a4,a4,3 # 101003 <STACK_SIZE+0x1003>
    80001678:	00875733          	srl	a4,a4,s0
    8000167c:	8b05                	andi	a4,a4,1
    8000167e:	db15                	beqz	a4,800015b2 <vshandler+0xbe>
        if(excpt.fault_inst != 0) epc = excpt.fault_inst;
    80001680:	67a4                	ld	s1,72(a5)
    80001682:	f885                	bnez	s1,800015b2 <vshandler+0xbe>
        else ERROR("instruction fault without return address");
    80001684:	0002d517          	auipc	a0,0x2d
    80001688:	e2450513          	addi	a0,a0,-476 # 8002e4a8 <__func__.0+0x5c0>
    8000168c:	59f290ef          	jal	8002b42a <printf>
    80001690:	16400613          	li	a2,356
    80001694:	b5d1                	j	80001558 <vshandler+0x64>
    return_from_exception(temp_priv, curr_priv, cause, epc);
    80001696:	1007e793          	ori	a5,a5,256
    8000169a:	10079073          	csrw	sstatus,a5
    8000169e:	f8045ae3          	bgez	s0,80001632 <vshandler+0x13e>
    800016a2:	bf3d                	j	800015e0 <vshandler+0xec>
    800016a4:	30002773          	csrr	a4,mstatus
    800016a8:	fc0007b7          	lui	a5,0xfc000
    800016ac:	17fd                	addi	a5,a5,-1 # fffffffffbffffff <__stack_top+0xffffffff7bd00fff>
    800016ae:	0003a697          	auipc	a3,0x3a
    800016b2:	1766a683          	lw	a3,374(a3) # 8003b824 <curr_priv>
    800016b6:	07b6                	slli	a5,a5,0xd
    800016b8:	77f78793          	addi	a5,a5,1919
    800016bc:	8ff9                	and	a5,a5,a4
    800016be:	06a68a63          	beq	a3,a0,80001732 <vshandler+0x23e>
    800016c2:	ffe6871b          	addiw	a4,a3,-2
    800016c6:	4605                	li	a2,1
    800016c8:	06e66a63          	bltu	a2,a4,8000173c <vshandler+0x248>
    800016cc:	6705                	lui	a4,0x1
    800016ce:	80070713          	addi	a4,a4,-2048 # 800 <_test_table_size+0x7ff>
    800016d2:	4609                	li	a2,2
    800016d4:	8fd9                	or	a5,a5,a4
    800016d6:	00c69563          	bne	a3,a2,800016e0 <vshandler+0x1ec>
    800016da:	4705                	li	a4,1
    800016dc:	171e                	slli	a4,a4,0x27
    800016de:	8fd9                	or	a5,a5,a4
    800016e0:	30079073          	csrw	mstatus,a5
    800016e4:	ee044ee3          	bltz	s0,800015e0 <vshandler+0xec>
    if(((*(uint16_t*)epc) & 0b11) == 0b11) return epc + 4;
    800016e8:	0004d783          	lhu	a5,0(s1)
    800016ec:	468d                	li	a3,3
    else return epc + 2;
    800016ee:	00248713          	addi	a4,s1,2
    if(((*(uint16_t*)epc) & 0b11) == 0b11) return epc + 4;
    800016f2:	8ff5                	and	a5,a5,a3
    800016f4:	00d79463          	bne	a5,a3,800016fc <vshandler+0x208>
    800016f8:	00448713          	addi	a4,s1,4
    return_from_exception(temp_priv, curr_priv, cause, epc);
    800016fc:	34171073          	csrw	mepc,a4
    80001700:	b5c5                	j	800015e0 <vshandler+0xec>
        goto_priv(ecall_args[1]); 
    80001702:	008aa503          	lw	a0,8(s5)
    80001706:	803ff0ef          	jal	80000f08 <goto_priv>
    excpt.testing = false;
    8000170a:	cc517057          	vsetivli	zero,2,e8,mf8,ta,ma
    8000170e:	5208a0d7          	vid.v	v1
    80001712:	00057717          	auipc	a4,0x57
    80001716:	8fe70713          	addi	a4,a4,-1794 # 80058010 <excpt>
    excpt.priv = PRIV_VS;
    8000171a:	4789                	li	a5,2
    excpt.testing = false;
    8000171c:	020700a7          	vse8.v	v1,(a4)
    excpt.cause = cause;
    80001720:	008abc23          	sd	s0,24(s5)
    excpt.epc = epc;
    80001724:	033ab023          	sd	s3,32(s5)
    excpt.tval = tval;
    80001728:	034ab423          	sd	s4,40(s5)
    excpt.priv = PRIV_VS;
    8000172c:	00faaa23          	sw	a5,20(s5)
    if(is_inst_fault(cause)){
    80001730:	b549                	j	800015b2 <vshandler+0xbe>
    return_from_exception(temp_priv, curr_priv, cause, epc);
    80001732:	6709                	lui	a4,0x2
    80001734:	80070713          	addi	a4,a4,-2048 # 1800 <_test_table_size+0x17ff>
    80001738:	8fd9                	or	a5,a5,a4
    8000173a:	b75d                	j	800016e0 <vshandler+0x1ec>
    8000173c:	ded9                	beqz	a3,800016da <vshandler+0x1e6>
    8000173e:	b74d                	j	800016e0 <vshandler+0x1ec>

0000000080001740 <expand_compressed_instruction>:

uint32_t expand_compressed_instruction(uint16_t ins) {
    80001740:	1141                	addi	sp,sp,-16
    80001742:	e406                	sd	ra,8(sp)

    if(!INS_COMPRESSED(ins)) {
    80001744:	00357713          	andi	a4,a0,3
    80001748:	478d                	li	a5,3
    8000174a:	04f70763          	beq	a4,a5,80001798 <expand_compressed_instruction+0x58>
        ERROR("trying to expand non-compressed instruction");
    }

    if(INS_MATCH_C_LW(ins) || INS_MATCH_C_LD(ins) || INS_MATCH_C_SW(ins) || INS_MATCH_C_SD(ins)){
    8000174e:	77f9                	lui	a5,0xffffe
    80001750:	078d                	addi	a5,a5,3 # ffffffffffffe003 <__stack_top+0xffffffff7fcff003>
    80001752:	8fe9                	and	a5,a5,a0
    80001754:	6711                	lui	a4,0x4
    80001756:	85aa                	mv	a1,a0
    80001758:	08e78963          	beq	a5,a4,800017ea <expand_compressed_instruction+0xaa>
    8000175c:	6719                	lui	a4,0x6
    8000175e:	04e78663          	beq	a5,a4,800017aa <expand_compressed_instruction+0x6a>
    80001762:	6731                	lui	a4,0xc
    80001764:	0ae78b63          	beq	a5,a4,8000181a <expand_compressed_instruction+0xda>
    80001768:	6739                	lui	a4,0xe
    8000176a:	0ae78363          	beq	a5,a4,80001810 <expand_compressed_instruction+0xd0>
            ((ins & INS_C_IMM0_MASK)  >> INS_C_IMM0_OFF) & 0x1 << 6 |
            ((ins & INS_C_IMM0_MASK)  >> INS_C_IMM0_OFF) >> 1 & 0x1 << 2;
        return opcode_funct3 | rd_rs2 << (is_load ? 7 : 20) | 
            rs1 << 15 | (imm & 0x1f) << 7 | (imm >> 5) << 25;
    } else {
        ERROR("expansion not implemented for target compressed instruction: 0x%x", ins);
    8000176e:	0002d517          	auipc	a0,0x2d
    80001772:	dda50513          	addi	a0,a0,-550 # 8002e548 <__func__.0+0x660>
    80001776:	4b5290ef          	jal	8002b42a <printf>
    8000177a:	18300613          	li	a2,387
    8000177e:	0002b597          	auipc	a1,0x2b
    80001782:	9b258593          	addi	a1,a1,-1614 # 8002c130 <__func__.0>
    80001786:	0002d517          	auipc	a0,0x2d
    8000178a:	bca50513          	addi	a0,a0,-1078 # 8002e350 <__func__.0+0x468>
    8000178e:	49d290ef          	jal	8002b42a <printf>
    80001792:	4501                	li	a0,0
    80001794:	04d290ef          	jal	8002afe0 <exit>
        ERROR("trying to expand non-compressed instruction");
    80001798:	0002d517          	auipc	a0,0x2d
    8000179c:	d7050513          	addi	a0,a0,-656 # 8002e508 <__func__.0+0x620>
    800017a0:	48b290ef          	jal	8002b42a <printf>
    800017a4:	17000613          	li	a2,368
    800017a8:	bfd9                	j	8000177e <expand_compressed_instruction+0x3e>
            (is_load ? MATCH_LD : MATCH_SD):
    800017aa:	668d                	lui	a3,0x3
    800017ac:	068d                	addi	a3,a3,3 # 3003 <_test_table_size+0x3002>
        bool is_load = INS_MATCH_C_LW(ins) || INS_MATCH_C_LD(ins); 
    800017ae:	4505                	li	a0,1
        uint32_t rd_rs2 =  ((ins & INS_C_RDRS2_MASK) >> INS_C_RDRS2_OFF) + 8;
    800017b0:	0025d793          	srli	a5,a1,0x2
        uint32_t rs1 = ((ins & INS_C_RS1_MASK) >> INS_C_RS1_OFF) + 8;
    800017b4:	0075d713          	srli	a4,a1,0x7
        uint32_t rd_rs2 =  ((ins & INS_C_RDRS2_MASK) >> INS_C_RDRS2_OFF) + 8;
    800017b8:	8b9d                	andi	a5,a5,7
        uint32_t rs1 = ((ins & INS_C_RS1_MASK) >> INS_C_RS1_OFF) + 8;
    800017ba:	8b1d                	andi	a4,a4,7
        uint32_t rd_rs2 =  ((ins & INS_C_RDRS2_MASK) >> INS_C_RDRS2_OFF) + 8;
    800017bc:	27a1                	addiw	a5,a5,8
        uint32_t rs1 = ((ins & INS_C_RS1_MASK) >> INS_C_RS1_OFF) + 8;
    800017be:	2721                	addiw	a4,a4,8 # e008 <_test_table_size+0xe007>
            ((ins & INS_C_IMM0_MASK)  >> INS_C_IMM0_OFF) << 6 :
    800017c0:	0055d613          	srli	a2,a1,0x5
            rs1 << 15 | (imm & 0x1f) << 7 | (imm >> 5) << 25;
    800017c4:	0606                	slli	a2,a2,0x1
    800017c6:	0196161b          	slliw	a2,a2,0x19
    800017ca:	0e0005b7          	lui	a1,0xe000
    800017ce:	8e6d                	and	a2,a2,a1
        return opcode_funct3 | rd_rs2 << (is_load ? 7 : 20) | 
    800017d0:	45d1                	li	a1,20
    800017d2:	c111                	beqz	a0,800017d6 <expand_compressed_instruction+0x96>
    800017d4:	459d                	li	a1,7
    }

}
    800017d6:	60a2                	ld	ra,8(sp)
            rs1 << 15 | (imm & 0x1f) << 7 | (imm >> 5) << 25;
    800017d8:	00f7171b          	slliw	a4,a4,0xf
    800017dc:	8ed1                	or	a3,a3,a2
    800017de:	8f55                	or	a4,a4,a3
        return opcode_funct3 | rd_rs2 << (is_load ? 7 : 20) | 
    800017e0:	00b7953b          	sllw	a0,a5,a1
            rs1 << 15 | (imm & 0x1f) << 7 | (imm >> 5) << 25;
    800017e4:	8d59                	or	a0,a0,a4
}
    800017e6:	0141                	addi	sp,sp,16
    800017e8:	8082                	ret
            (is_load ? MATCH_LD : MATCH_SD):
    800017ea:	6689                	lui	a3,0x2
    800017ec:	068d                	addi	a3,a3,3 # 2003 <_test_table_size+0x2002>
    800017ee:	4505                	li	a0,1
        uint32_t rd_rs2 =  ((ins & INS_C_RDRS2_MASK) >> INS_C_RDRS2_OFF) + 8;
    800017f0:	0025d793          	srli	a5,a1,0x2
        uint32_t rs1 = ((ins & INS_C_RS1_MASK) >> INS_C_RS1_OFF) + 8;
    800017f4:	0075d713          	srli	a4,a1,0x7
        uint32_t imm = ((ins & INS_C_IMM1_MASK)  >> INS_C_IMM1_OFF) << 3 |
    800017f8:	00a5d813          	srli	a6,a1,0xa
        uint32_t rd_rs2 =  ((ins & INS_C_RDRS2_MASK) >> INS_C_RDRS2_OFF) + 8;
    800017fc:	8b9d                	andi	a5,a5,7
        uint32_t rs1 = ((ins & INS_C_RS1_MASK) >> INS_C_RS1_OFF) + 8;
    800017fe:	8b1d                	andi	a4,a4,7
        uint32_t imm = ((ins & INS_C_IMM1_MASK)  >> INS_C_IMM1_OFF) << 3 |
    80001800:	00787813          	andi	a6,a6,7
        uint32_t rd_rs2 =  ((ins & INS_C_RDRS2_MASK) >> INS_C_RDRS2_OFF) + 8;
    80001804:	27a1                	addiw	a5,a5,8
        uint32_t rs1 = ((ins & INS_C_RS1_MASK) >> INS_C_RS1_OFF) + 8;
    80001806:	2721                	addiw	a4,a4,8
        uint32_t imm = ((ins & INS_C_IMM1_MASK)  >> INS_C_IMM1_OFF) << 3 |
    80001808:	4601                	li	a2,0
    8000180a:	fc0803e3          	beqz	a6,800017d0 <expand_compressed_instruction+0x90>
    8000180e:	bf4d                	j	800017c0 <expand_compressed_instruction+0x80>
            (is_load ? MATCH_LD : MATCH_SD):
    80001810:	668d                	lui	a3,0x3
    80001812:	02368693          	addi	a3,a3,35 # 3023 <_test_table_size+0x3022>
    80001816:	4501                	li	a0,0
    80001818:	bf61                	j	800017b0 <expand_compressed_instruction+0x70>
    8000181a:	6689                	lui	a3,0x2
    8000181c:	02368693          	addi	a3,a3,35 # 2023 <_test_table_size+0x2022>
    80001820:	4501                	li	a0,0
    80001822:	b7f9                	j	800017f0 <expand_compressed_instruction+0xb0>

0000000080001824 <reset_state>:

extern void hshandler_entry();
extern void mhandler_entry();
extern void vshandler_entry();
    
void reset_state(){
    80001824:	1141                	addi	sp,sp,-16

    goto_priv(PRIV_M);
    80001826:	4511                	li	a0,4
void reset_state(){
    80001828:	e406                	sd	ra,8(sp)
    goto_priv(PRIV_M);
    8000182a:	edeff0ef          	jal	80000f08 <goto_priv>
    CSRW(mstatus, 0ULL);
    8000182e:	30005073          	csrwi	mstatus,0
    //CSRW(mtvec, 0ULL);
    CSRW(medeleg, 0ULL);
    80001832:	30205073          	csrwi	medeleg,0
    CSRW(mideleg, 0ULL);
    80001836:	30305073          	csrwi	mideleg,0
    CSRW(mip, 0ULL);
    8000183a:	34405073          	csrwi	mip,0
    CSRW(mie, 0ULL);
    8000183e:	30405073          	csrwi	mie,0
    //CSRW(mtime, 0ULL); 
    //CSRW(mtimecmp, 0ULL); 
    CSRW(mscratch, 0ULL);
    80001842:	34005073          	csrwi	mscratch,0
    CSRW(mepc, 0ULL);
    80001846:	34105073          	csrwi	mepc,0
    CSRW(mtval, 0ULL);
    8000184a:	34305073          	csrwi	mtval,0
    CSRW(CSR_MTINST, 0ULL);
    8000184e:	34a05073          	csrwi	0x34a,0
    CSRW(CSR_MTVAL2, 0ULL);
    80001852:	34b05073          	csrwi	0x34b,0
    //what about pmp register?
    CSRW(sstatus, 0ULL);
    80001856:	10005073          	csrwi	sstatus,0
    //CSRW(stvec, 0ULL);
    CSRW(sip, 0ULL);
    8000185a:	14405073          	csrwi	sip,0
    CSRW(sie, 0ULL);
    8000185e:	10405073          	csrwi	sie,0
    CSRW(sscratch, 0ULL);
    80001862:	14005073          	csrwi	sscratch,0
    CSRW(sepc, 0ULL);
    80001866:	14105073          	csrwi	sepc,0
    CSRW(scause, 0ULL);
    8000186a:	14205073          	csrwi	scause,0
    CSRW(stval, 0ULL);
    8000186e:	14305073          	csrwi	stval,0
    CSRW(satp, 0ULL);
    80001872:	18005073          	csrwi	satp,0
    CSRW(CSR_HSTATUS, 0ULL);
    80001876:	60005073          	csrwi	hstatus,0
    CSRW(CSR_HIDELEG, 0ULL);
    8000187a:	60305073          	csrwi	hideleg,0
    CSRW(CSR_HEDELEG, 0ULL);
    8000187e:	60205073          	csrwi	hedeleg,0
    CSRW(CSR_HVIP, 0ULL);
    80001882:	64505073          	csrwi	hvip,0
    CSRW(CSR_HIP, 0ULL);
    80001886:	64405073          	csrwi	hip,0
    CSRW(CSR_HIE, 0ULL);  
    8000188a:	60405073          	csrwi	hie,0
    CSRW(CSR_HTVAL, 0ULL);
    8000188e:	64305073          	csrwi	htval,0
    CSRW(CSR_HTINST, 0ULL);
    80001892:	64a05073          	csrwi	htinst,0
    CSRW(CSR_HGATP, 0ULL);
    80001896:	68005073          	csrwi	hgatp,0
    CSRW(CSR_VSSTATUS, 0ULL);
    8000189a:	20005073          	csrwi	vsstatus,0
    CSRW(CSR_VSIP, 0ULL);
    8000189e:	24405073          	csrwi	vsip,0
    CSRW(CSR_VSIE, 0ULL);
    800018a2:	20405073          	csrwi	vsie,0
    //CSRW(CSR_VSTVEC, 0ULL);
    CSRW(CSR_VSSCRATCH, 0ULL);
    800018a6:	24005073          	csrwi	vsscratch,0
    CSRW(CSR_VSEPC, 0ULL);
    800018aa:	24105073          	csrwi	vsepc,0
    CSRW(CSR_VSCAUSE, 0ULL);
    800018ae:	24205073          	csrwi	vscause,0
    CSRW(CSR_VSTVAL, 0ULL);
    800018b2:	24305073          	csrwi	vstval,0
    CSRW(CSR_VSATP, 0ULL);  
    800018b6:	28005073          	csrwi	vsatp,0

    CSRW(mtvec, mhandler_entry);
    800018ba:	0002a797          	auipc	a5,0x2a
    800018be:	da678793          	addi	a5,a5,-602 # 8002b660 <mhandler_entry>
    800018c2:	30579073          	csrw	mtvec,a5
    CSRS(medeleg, (1ULL << 8) | (1ULL << 10));
    800018c6:	50000793          	li	a5,1280
    800018ca:	3027a073          	csrs	medeleg,a5
    // full access to physical memory to other modes
    CSRW(pmpcfg0, 0xf);
    800018ce:	3a07d073          	csrwi	pmpcfg0,15
    CSRW(pmpaddr0, (uint64_t) -1);
    800018d2:	57fd                	li	a5,-1
    800018d4:	3b079073          	csrw	pmpaddr0,a5

    CSRW(stvec, hshandler_entry);
    800018d8:	0002a797          	auipc	a5,0x2a
    800018dc:	dd078793          	addi	a5,a5,-560 # 8002b6a8 <hshandler_entry>
    800018e0:	10579073          	csrw	stvec,a5
    CSRS(CSR_HEDELEG, (1ULL << 8));
    800018e4:	10000793          	li	a5,256
    800018e8:	6027a073          	csrs	hedeleg,a5

    CSRW(CSR_VSTVEC, vshandler_entry);
    800018ec:	0002a797          	auipc	a5,0x2a
    800018f0:	e0478793          	addi	a5,a5,-508 # 8002b6f0 <vshandler_entry>
    800018f4:	20579073          	csrw	vstvec,a5

    CSRS(CSR_MSTATUS, 1ULL << 9);      //mstatus.vs!=0
    800018f8:	20000713          	li	a4,512
    800018fc:	30072073          	csrs	mstatus,a4
    CSRC(CSR_MSTATUS, 1ULL << 10); 
    80001900:	40000793          	li	a5,1024
    80001904:	3007b073          	csrc	mstatus,a5
    CSRS(CSR_VSSTATUS, 1ULL << 9);      //vsstatus.vs!=0
    80001908:	20072073          	csrs	vsstatus,a4
    CSRC(CSR_VSSTATUS, 1ULL << 10); 
    8000190c:	2007b073          	csrc	vsstatus,a5
// }



static inline void sfence(){
    asm volatile ("sfence.vma \n\t");
    80001910:	12000073          	sfence.vma
        ".insn r 0x73, 0x0, 0x31, x0, x0, x0\n\t"
        ::: "memory");
}

static inline void hfence_vvma() {
    asm volatile(
    80001914:	22000073          	.insn	4, 0x22000073
    asm volatile(
    80001918:	62000073          	.insn	4, 0x62000073

    sfence();
    hfence();
}
    8000191c:	60a2                	ld	ra,8(sp)
    8000191e:	0141                	addi	sp,sp,16
    80001920:	8082                	ret

0000000080001922 <random_m_instruction>:
#include <instructions.h> 
#include <csrs.h>

void random_m_instruction(){    

    int rand1=CSRR(CSR_TIME);  
    80001922:	c01027f3          	rdtime	a5
    int rand2=CSRR(CSR_CYCLE);    
    80001926:	c00026f3          	rdcycle	a3
    int num0=rand1+rand2;   
    int num=num0%10;
    8000192a:	66666737          	lui	a4,0x66666
    int num0=rand1+rand2;   
    8000192e:	9fb5                	addw	a5,a5,a3
    int num=num0%10;
    80001930:	66770713          	addi	a4,a4,1639 # 66666667 <STACK_SIZE+0x66566667>
    80001934:	02e78733          	mul	a4,a5,a4
    80001938:	41f7d69b          	sraiw	a3,a5,0x1f

    switch (num)    //
    8000193c:	4625                	li	a2,9
    int num=num0%10;
    8000193e:	9709                	srai	a4,a4,0x22
    80001940:	9f15                	subw	a4,a4,a3
    80001942:	0027169b          	slliw	a3,a4,0x2
    80001946:	9f35                	addw	a4,a4,a3
    80001948:	0017171b          	slliw	a4,a4,0x1
    8000194c:	9f99                	subw	a5,a5,a4
    switch (num)    //
    8000194e:	08f66a63          	bltu	a2,a5,800019e2 <random_m_instruction+0xc0>
    80001952:	02079713          	slli	a4,a5,0x20
    80001956:	01e75793          	srli	a5,a4,0x1e
    8000195a:	0002a717          	auipc	a4,0x2a
    8000195e:	7f670713          	addi	a4,a4,2038 # 8002c150 <__func__.0+0x20>
    80001962:	97ba                	add	a5,a5,a4
    80001964:	439c                	lw	a5,0(a5)
    80001966:	97ba                	add	a5,a5,a4
    80001968:	8782                	jr	a5
        break;
    case 7:
        printf("7\n");
        break;
    case 8:
        printf("8\n");
    8000196a:	0002d517          	auipc	a0,0x2d
    8000196e:	cf650513          	addi	a0,a0,-778 # 8002e660 <__func__.0+0x778>
    80001972:	6f42906f          	j	8002b066 <puts>
        break;
    case 9:
        printf("9\n");
    80001976:	0002d517          	auipc	a0,0x2d
    8000197a:	d0250513          	addi	a0,a0,-766 # 8002e678 <__func__.0+0x790>
    8000197e:	6e82906f          	j	8002b066 <puts>
        printf("0\n");
    80001982:	0002d517          	auipc	a0,0x2d
    80001986:	c1e50513          	addi	a0,a0,-994 # 8002e5a0 <__func__.0+0x6b8>
    8000198a:	6dc2906f          	j	8002b066 <puts>
        printf("1\n");
    8000198e:	0002d517          	auipc	a0,0x2d
    80001992:	c2a50513          	addi	a0,a0,-982 # 8002e5b8 <__func__.0+0x6d0>
    80001996:	6d02906f          	j	8002b066 <puts>
        printf("2\n");
    8000199a:	0002d517          	auipc	a0,0x2d
    8000199e:	c3650513          	addi	a0,a0,-970 # 8002e5d0 <__func__.0+0x6e8>
    800019a2:	6c42906f          	j	8002b066 <puts>
        printf("3\n");
    800019a6:	0002d517          	auipc	a0,0x2d
    800019aa:	c4250513          	addi	a0,a0,-958 # 8002e5e8 <__func__.0+0x700>
    800019ae:	6b82906f          	j	8002b066 <puts>
        printf("4\n");
    800019b2:	0002d517          	auipc	a0,0x2d
    800019b6:	c4e50513          	addi	a0,a0,-946 # 8002e600 <__func__.0+0x718>
    800019ba:	6ac2906f          	j	8002b066 <puts>
        printf("5\n");
    800019be:	0002d517          	auipc	a0,0x2d
    800019c2:	c5a50513          	addi	a0,a0,-934 # 8002e618 <__func__.0+0x730>
    800019c6:	6a02906f          	j	8002b066 <puts>
        printf("6\n");
    800019ca:	0002d517          	auipc	a0,0x2d
    800019ce:	c6650513          	addi	a0,a0,-922 # 8002e630 <__func__.0+0x748>
    800019d2:	6942906f          	j	8002b066 <puts>
        printf("7\n");
    800019d6:	0002d517          	auipc	a0,0x2d
    800019da:	c7250513          	addi	a0,a0,-910 # 8002e648 <__func__.0+0x760>
    800019de:	6882906f          	j	8002b066 <puts>
        break;

    default:
        break;
    }
    800019e2:	8082                	ret

00000000800019e4 <check_xip_regs_1>:
#include <rvh_test.h>

bool check_xip_regs_1(){
    800019e4:	7179                	addi	sp,sp,-48

    TEST_START();
    800019e6:	0002a597          	auipc	a1,0x2a
    800019ea:	79258593          	addi	a1,a1,1938 # 8002c178 <__func__.3>
    800019ee:	0002c517          	auipc	a0,0x2c
    800019f2:	7da50513          	addi	a0,a0,2010 # 8002e1c8 <__func__.0+0x2e0>
bool check_xip_regs_1(){
    800019f6:	f406                	sd	ra,40(sp)
    800019f8:	f022                	sd	s0,32(sp)
    800019fa:	ec26                	sd	s1,24(sp)
    800019fc:	e84a                	sd	s2,16(sp)
    800019fe:	e44e                	sd	s3,8(sp)
    80001a00:	e052                	sd	s4,0(sp)
    TEST_START();
    80001a02:	229290ef          	jal	8002b42a <printf>
    80001a06:	4529                	li	a0,10
    80001a08:	710280ef          	jal	8002a118 <putchar>

    CSRW(mideleg, 0);
    80001a0c:	30305073          	csrwi	mideleg,0

    int64_t mtime_mask = ~((int64_t)0x80);

    CSRW(mideleg, (uint64_t)-1);
    80001a10:	547d                	li	s0,-1
    80001a12:	30341073          	csrw	mideleg,s0
    VERBOSE("setting mideleg and hideleg\n");
    CSRW(CSR_HIDELEG, (uint64_t)-1);
    80001a16:	60341073          	csrw	hideleg,s0
    check_csr_wrrd("vsip", CSR_VSIP, (uint64_t) -1, 0x2002);
    80001a1a:	244029f3          	csrr	s3,vsip
    80001a1e:	24441073          	csrw	vsip,s0
    80001a22:	24402973          	csrr	s2,vsip
    80001a26:	6489                	lui	s1,0x2
    80001a28:	0002d617          	auipc	a2,0x2d
    80001a2c:	c6860613          	addi	a2,a2,-920 # 8002e690 <__func__.0+0x7a8>
    80001a30:	08200593          	li	a1,130
    80001a34:	0002c517          	auipc	a0,0x2c
    80001a38:	7ac50513          	addi	a0,a0,1964 # 8002e1e0 <__func__.0+0x2f8>
    80001a3c:	0489                	addi	s1,s1,2 # 2002 <_test_table_size+0x2001>
    80001a3e:	1ed290ef          	jal	8002b42a <printf>
    80001a42:	10990f63          	beq	s2,s1,80001b60 <check_xip_regs_1+0x17c>
    80001a46:	0002c597          	auipc	a1,0x2c
    80001a4a:	77258593          	addi	a1,a1,1906 # 8002e1b8 <__func__.0+0x2d0>
    80001a4e:	0002c517          	auipc	a0,0x2c
    80001a52:	7aa50513          	addi	a0,a0,1962 # 8002e1f8 <__func__.0+0x310>
    80001a56:	1d5290ef          	jal	8002b42a <printf>
    80001a5a:	0002c517          	auipc	a0,0x2c
    80001a5e:	7a650513          	addi	a0,a0,1958 # 8002e200 <__func__.0+0x318>
    80001a62:	1c9290ef          	jal	8002b42a <printf>
    80001a66:	86a6                	mv	a3,s1
    80001a68:	864a                	mv	a2,s2
    80001a6a:	85a2                	mv	a1,s0
    80001a6c:	0002c517          	auipc	a0,0x2c
    80001a70:	79c50513          	addi	a0,a0,1948 # 8002e208 <__func__.0+0x320>
    80001a74:	1b7290ef          	jal	8002b42a <printf>
    80001a78:	02900513          	li	a0,41
    80001a7c:	69c280ef          	jal	8002a118 <putchar>
    80001a80:	4529                	li	a0,10
    80001a82:	696280ef          	jal	8002a118 <putchar>
    80001a86:	4a01                	li	s4,0
    80001a88:	24499073          	csrw	vsip,s3
    check_csr_wrrd("vsie", CSR_VSIE, (uint64_t) -1, 0x2222);        //Shlcofideleg 2222222
    80001a8c:	204029f3          	csrr	s3,vsie
    80001a90:	54fd                	li	s1,-1
    80001a92:	20449073          	csrw	vsie,s1
    80001a96:	20402973          	csrr	s2,vsie
    80001a9a:	6409                	lui	s0,0x2
    80001a9c:	0002d617          	auipc	a2,0x2d
    80001aa0:	bfc60613          	addi	a2,a2,-1028 # 8002e698 <__func__.0+0x7b0>
    80001aa4:	08200593          	li	a1,130
    80001aa8:	0002c517          	auipc	a0,0x2c
    80001aac:	73850513          	addi	a0,a0,1848 # 8002e1e0 <__func__.0+0x2f8>
    80001ab0:	22240413          	addi	s0,s0,546 # 2222 <_test_table_size+0x2221>
    80001ab4:	177290ef          	jal	8002b42a <printf>
    80001ab8:	06890d63          	beq	s2,s0,80001b32 <check_xip_regs_1+0x14e>
    80001abc:	0002c597          	auipc	a1,0x2c
    80001ac0:	6fc58593          	addi	a1,a1,1788 # 8002e1b8 <__func__.0+0x2d0>
    80001ac4:	0002c517          	auipc	a0,0x2c
    80001ac8:	73450513          	addi	a0,a0,1844 # 8002e1f8 <__func__.0+0x310>
    80001acc:	15f290ef          	jal	8002b42a <printf>
    80001ad0:	0002c517          	auipc	a0,0x2c
    80001ad4:	73050513          	addi	a0,a0,1840 # 8002e200 <__func__.0+0x318>
    80001ad8:	153290ef          	jal	8002b42a <printf>
    80001adc:	86a2                	mv	a3,s0
    80001ade:	864a                	mv	a2,s2
    80001ae0:	85a6                	mv	a1,s1
    80001ae2:	0002c517          	auipc	a0,0x2c
    80001ae6:	72650513          	addi	a0,a0,1830 # 8002e208 <__func__.0+0x320>
    80001aea:	141290ef          	jal	8002b42a <printf>
    80001aee:	02900513          	li	a0,41
    80001af2:	626280ef          	jal	8002a118 <putchar>
    80001af6:	4529                	li	a0,10
    80001af8:	620280ef          	jal	8002a118 <putchar>
    80001afc:	20499073          	csrw	vsie,s3
    80001b00:	4401                	li	s0,0
    
    TEST_END();
    80001b02:	0002c597          	auipc	a1,0x2c
    80001b06:	6b658593          	addi	a1,a1,1718 # 8002e1b8 <__func__.0+0x2d0>
    80001b0a:	0002c517          	auipc	a0,0x2c
    80001b0e:	75650513          	addi	a0,a0,1878 # 8002e260 <__func__.0+0x378>
    80001b12:	119290ef          	jal	8002b42a <printf>
    80001b16:	4511                	li	a0,4
    80001b18:	bf0ff0ef          	jal	80000f08 <goto_priv>
    80001b1c:	d09ff0ef          	jal	80001824 <reset_state>
}
    80001b20:	70a2                	ld	ra,40(sp)
    80001b22:	8522                	mv	a0,s0
    80001b24:	7402                	ld	s0,32(sp)
    80001b26:	64e2                	ld	s1,24(sp)
    80001b28:	6942                	ld	s2,16(sp)
    80001b2a:	69a2                	ld	s3,8(sp)
    80001b2c:	6a02                	ld	s4,0(sp)
    80001b2e:	6145                	addi	sp,sp,48
    80001b30:	8082                	ret
    check_csr_wrrd("vsie", CSR_VSIE, (uint64_t) -1, 0x2222);        //Shlcofideleg 2222222
    80001b32:	0002c597          	auipc	a1,0x2c
    80001b36:	67658593          	addi	a1,a1,1654 # 8002e1a8 <__func__.0+0x2c0>
    80001b3a:	0002c517          	auipc	a0,0x2c
    80001b3e:	6be50513          	addi	a0,a0,1726 # 8002e1f8 <__func__.0+0x310>
    80001b42:	0e9290ef          	jal	8002b42a <printf>
    80001b46:	4529                	li	a0,10
    80001b48:	5d0280ef          	jal	8002a118 <putchar>
    80001b4c:	fa0a08e3          	beqz	s4,80001afc <check_xip_regs_1+0x118>
    80001b50:	20499073          	csrw	vsie,s3
    80001b54:	4405                	li	s0,1
    TEST_END();
    80001b56:	0002c597          	auipc	a1,0x2c
    80001b5a:	65258593          	addi	a1,a1,1618 # 8002e1a8 <__func__.0+0x2c0>
    80001b5e:	b775                	j	80001b0a <check_xip_regs_1+0x126>
    check_csr_wrrd("vsip", CSR_VSIP, (uint64_t) -1, 0x2002);
    80001b60:	0002c597          	auipc	a1,0x2c
    80001b64:	64858593          	addi	a1,a1,1608 # 8002e1a8 <__func__.0+0x2c0>
    80001b68:	0002c517          	auipc	a0,0x2c
    80001b6c:	69050513          	addi	a0,a0,1680 # 8002e1f8 <__func__.0+0x310>
    80001b70:	0bb290ef          	jal	8002b42a <printf>
    80001b74:	4529                	li	a0,10
    80001b76:	5a2280ef          	jal	8002a118 <putchar>
    80001b7a:	4a05                	li	s4,1
    80001b7c:	b731                	j	80001a88 <check_xip_regs_1+0xa4>

0000000080001b7e <check_xip_regs_2>:

bool check_xip_regs_2(){
    80001b7e:	1101                	addi	sp,sp,-32

    TEST_START();
    80001b80:	0002a597          	auipc	a1,0x2a
    80001b84:	61058593          	addi	a1,a1,1552 # 8002c190 <__func__.2>
    80001b88:	0002c517          	auipc	a0,0x2c
    80001b8c:	64050513          	addi	a0,a0,1600 # 8002e1c8 <__func__.0+0x2e0>
bool check_xip_regs_2(){
    80001b90:	ec06                	sd	ra,24(sp)
    80001b92:	e822                	sd	s0,16(sp)
    80001b94:	e426                	sd	s1,8(sp)
    80001b96:	e04a                	sd	s2,0(sp)
    TEST_START();
    80001b98:	093290ef          	jal	8002b42a <printf>
    80001b9c:	4529                	li	a0,10
    80001b9e:	57a280ef          	jal	8002a118 <putchar>

    CSRC(CSR_MENVCFG,1ULL<<63);                   //menvcfg.stce=0,mipstip1
    80001ba2:	57fd                	li	a5,-1
    80001ba4:	03f79713          	slli	a4,a5,0x3f
    80001ba8:	30a73073          	csrc	0x30a,a4

    CSRW(mideleg, (uint64_t)-1);
    80001bac:	30379073          	csrw	mideleg,a5
    VERBOSE("setting mideleg and hideleg\n");
    
    CSRW(CSR_HIDELEG, (uint64_t)-1);
    80001bb0:	60379073          	csrw	hideleg,a5

    VERBOSE("setting all in mip\n");
    CSRW(mip, (uint64_t)-1);
    80001bb4:	34479073          	csrw	mip,a5
    check_csr_rd("hip", CSR_HIP, 0x4);
    80001bb8:	64402473          	csrr	s0,hip
    80001bbc:	0002d617          	auipc	a2,0x2d
    80001bc0:	ae460613          	addi	a2,a2,-1308 # 8002e6a0 <__func__.0+0x7b8>
    80001bc4:	08200593          	li	a1,130
    80001bc8:	0002c517          	auipc	a0,0x2c
    80001bcc:	61850513          	addi	a0,a0,1560 # 8002e1e0 <__func__.0+0x2f8>
    80001bd0:	4491                	li	s1,4
    80001bd2:	059290ef          	jal	8002b42a <printf>
    80001bd6:	46940763          	beq	s0,s1,80002044 <check_xip_regs_2+0x4c6>
    80001bda:	0002c597          	auipc	a1,0x2c
    80001bde:	5de58593          	addi	a1,a1,1502 # 8002e1b8 <__func__.0+0x2d0>
    80001be2:	0002c517          	auipc	a0,0x2c
    80001be6:	61650513          	addi	a0,a0,1558 # 8002e1f8 <__func__.0+0x310>
    80001bea:	041290ef          	jal	8002b42a <printf>
    80001bee:	0002c517          	auipc	a0,0x2c
    80001bf2:	61250513          	addi	a0,a0,1554 # 8002e200 <__func__.0+0x318>
    80001bf6:	035290ef          	jal	8002b42a <printf>
    80001bfa:	8622                	mv	a2,s0
    80001bfc:	86a6                	mv	a3,s1
    80001bfe:	02d00593          	li	a1,45
    80001c02:	0002d517          	auipc	a0,0x2d
    80001c06:	aa650513          	addi	a0,a0,-1370 # 8002e6a8 <__func__.0+0x7c0>
    80001c0a:	021290ef          	jal	8002b42a <printf>
    80001c0e:	02900513          	li	a0,41
    80001c12:	506280ef          	jal	8002a118 <putchar>
    80001c16:	4529                	li	a0,10
    80001c18:	500280ef          	jal	8002a118 <putchar>
    80001c1c:	4401                	li	s0,0
    check_csr_rd("sip", sip, 0x2222);    
    80001c1e:	14402973          	csrr	s2,sip
    80001c22:	6489                	lui	s1,0x2
    80001c24:	0002d617          	auipc	a2,0x2d
    80001c28:	a9c60613          	addi	a2,a2,-1380 # 8002e6c0 <__func__.0+0x7d8>
    80001c2c:	08200593          	li	a1,130
    80001c30:	0002c517          	auipc	a0,0x2c
    80001c34:	5b050513          	addi	a0,a0,1456 # 8002e1e0 <__func__.0+0x2f8>
    80001c38:	22248493          	addi	s1,s1,546 # 2222 <_test_table_size+0x2221>
    80001c3c:	7ee290ef          	jal	8002b42a <printf>
    80001c40:	3a990863          	beq	s2,s1,80001ff0 <check_xip_regs_2+0x472>
    80001c44:	0002c597          	auipc	a1,0x2c
    80001c48:	57458593          	addi	a1,a1,1396 # 8002e1b8 <__func__.0+0x2d0>
    80001c4c:	0002c517          	auipc	a0,0x2c
    80001c50:	5ac50513          	addi	a0,a0,1452 # 8002e1f8 <__func__.0+0x310>
    80001c54:	7d6290ef          	jal	8002b42a <printf>
    80001c58:	0002c517          	auipc	a0,0x2c
    80001c5c:	5a850513          	addi	a0,a0,1448 # 8002e200 <__func__.0+0x318>
    80001c60:	7ca290ef          	jal	8002b42a <printf>
    80001c64:	86a6                	mv	a3,s1
    80001c66:	864a                	mv	a2,s2
    80001c68:	02d00593          	li	a1,45
    80001c6c:	0002d517          	auipc	a0,0x2d
    80001c70:	a3c50513          	addi	a0,a0,-1476 # 8002e6a8 <__func__.0+0x7c0>
    80001c74:	7b6290ef          	jal	8002b42a <printf>
    80001c78:	02900513          	li	a0,41
    80001c7c:	49c280ef          	jal	8002a118 <putchar>
    80001c80:	4529                	li	a0,10
    80001c82:	496280ef          	jal	8002a118 <putchar>
    80001c86:	4401                	li	s0,0

    // check_csr_rd_mask("mip", mip, 0x226, mtime_mask); // only test when nemu don't use difftest because spike, as ref, shut up time interrupt
    check_csr_rd("vsip", CSR_VSIP, 0x2002);
    80001c88:	24402973          	csrr	s2,vsip
    80001c8c:	6489                	lui	s1,0x2
    80001c8e:	0002d617          	auipc	a2,0x2d
    80001c92:	a0260613          	addi	a2,a2,-1534 # 8002e690 <__func__.0+0x7a8>
    80001c96:	08200593          	li	a1,130
    80001c9a:	0002c517          	auipc	a0,0x2c
    80001c9e:	54650513          	addi	a0,a0,1350 # 8002e1e0 <__func__.0+0x2f8>
    80001ca2:	0489                	addi	s1,s1,2 # 2002 <_test_table_size+0x2001>
    80001ca4:	786290ef          	jal	8002b42a <printf>
    80001ca8:	38990063          	beq	s2,s1,80002028 <check_xip_regs_2+0x4aa>
    80001cac:	0002c597          	auipc	a1,0x2c
    80001cb0:	50c58593          	addi	a1,a1,1292 # 8002e1b8 <__func__.0+0x2d0>
    80001cb4:	0002c517          	auipc	a0,0x2c
    80001cb8:	54450513          	addi	a0,a0,1348 # 8002e1f8 <__func__.0+0x310>
    80001cbc:	76e290ef          	jal	8002b42a <printf>
    80001cc0:	0002c517          	auipc	a0,0x2c
    80001cc4:	54050513          	addi	a0,a0,1344 # 8002e200 <__func__.0+0x318>
    80001cc8:	762290ef          	jal	8002b42a <printf>
    80001ccc:	86a6                	mv	a3,s1
    80001cce:	864a                	mv	a2,s2
    80001cd0:	02d00593          	li	a1,45
    80001cd4:	0002d517          	auipc	a0,0x2d
    80001cd8:	9d450513          	addi	a0,a0,-1580 # 8002e6a8 <__func__.0+0x7c0>
    80001cdc:	74e290ef          	jal	8002b42a <printf>
    80001ce0:	02900513          	li	a0,41
    80001ce4:	434280ef          	jal	8002a118 <putchar>
    80001ce8:	4529                	li	a0,10
    80001cea:	42e280ef          	jal	8002a118 <putchar>
    80001cee:	4401                	li	s0,0
    goto_priv(PRIV_VS);
    80001cf0:	4509                	li	a0,2
    80001cf2:	a16ff0ef          	jal	80000f08 <goto_priv>
    check_csr_rd("sip (vs perspective)", sip, 0x2002);
    80001cf6:	14402973          	csrr	s2,sip
    80001cfa:	6489                	lui	s1,0x2
    80001cfc:	0002d617          	auipc	a2,0x2d
    80001d00:	9cc60613          	addi	a2,a2,-1588 # 8002e6c8 <__func__.0+0x7e0>
    80001d04:	08200593          	li	a1,130
    80001d08:	0002c517          	auipc	a0,0x2c
    80001d0c:	4d850513          	addi	a0,a0,1240 # 8002e1e0 <__func__.0+0x2f8>
    80001d10:	0489                	addi	s1,s1,2 # 2002 <_test_table_size+0x2001>
    80001d12:	718290ef          	jal	8002b42a <printf>
    80001d16:	2e990b63          	beq	s2,s1,8000200c <check_xip_regs_2+0x48e>
    80001d1a:	0002c597          	auipc	a1,0x2c
    80001d1e:	49e58593          	addi	a1,a1,1182 # 8002e1b8 <__func__.0+0x2d0>
    80001d22:	0002c517          	auipc	a0,0x2c
    80001d26:	4d650513          	addi	a0,a0,1238 # 8002e1f8 <__func__.0+0x310>
    80001d2a:	700290ef          	jal	8002b42a <printf>
    80001d2e:	0002c517          	auipc	a0,0x2c
    80001d32:	4d250513          	addi	a0,a0,1234 # 8002e200 <__func__.0+0x318>
    80001d36:	6f4290ef          	jal	8002b42a <printf>
    80001d3a:	86a6                	mv	a3,s1
    80001d3c:	864a                	mv	a2,s2
    80001d3e:	02d00593          	li	a1,45
    80001d42:	0002d517          	auipc	a0,0x2d
    80001d46:	96650513          	addi	a0,a0,-1690 # 8002e6a8 <__func__.0+0x7c0>
    80001d4a:	6e0290ef          	jal	8002b42a <printf>
    80001d4e:	02900513          	li	a0,41
    80001d52:	3c6280ef          	jal	8002a118 <putchar>
    80001d56:	4529                	li	a0,10
    80001d58:	3c0280ef          	jal	8002a118 <putchar>
    80001d5c:	4401                	li	s0,0
    goto_priv(PRIV_M);
    80001d5e:	4511                	li	a0,4
    80001d60:	9a8ff0ef          	jal	80000f08 <goto_priv>

    VERBOSE("clearing all in mip\n");
    CSRW(mip, (uint64_t)0);
    80001d64:	34405073          	csrwi	mip,0
    check_csr_rd("hip", CSR_HIP, 0x0);
    80001d68:	644024f3          	csrr	s1,hip
    80001d6c:	0002d617          	auipc	a2,0x2d
    80001d70:	93460613          	addi	a2,a2,-1740 # 8002e6a0 <__func__.0+0x7b8>
    80001d74:	08200593          	li	a1,130
    80001d78:	0002c517          	auipc	a0,0x2c
    80001d7c:	46850513          	addi	a0,a0,1128 # 8002e1e0 <__func__.0+0x2f8>
    80001d80:	6aa290ef          	jal	8002b42a <printf>
    80001d84:	1a048663          	beqz	s1,80001f30 <check_xip_regs_2+0x3b2>
    80001d88:	0002c597          	auipc	a1,0x2c
    80001d8c:	43058593          	addi	a1,a1,1072 # 8002e1b8 <__func__.0+0x2d0>
    80001d90:	0002c517          	auipc	a0,0x2c
    80001d94:	46850513          	addi	a0,a0,1128 # 8002e1f8 <__func__.0+0x310>
    80001d98:	692290ef          	jal	8002b42a <printf>
    80001d9c:	0002c517          	auipc	a0,0x2c
    80001da0:	46450513          	addi	a0,a0,1124 # 8002e200 <__func__.0+0x318>
    80001da4:	686290ef          	jal	8002b42a <printf>
    80001da8:	8626                	mv	a2,s1
    80001daa:	4681                	li	a3,0
    80001dac:	02d00593          	li	a1,45
    80001db0:	0002d517          	auipc	a0,0x2d
    80001db4:	8f850513          	addi	a0,a0,-1800 # 8002e6a8 <__func__.0+0x7c0>
    80001db8:	672290ef          	jal	8002b42a <printf>
    80001dbc:	02900513          	li	a0,41
    80001dc0:	358280ef          	jal	8002a118 <putchar>
    80001dc4:	4529                	li	a0,10
    80001dc6:	352280ef          	jal	8002a118 <putchar>
    80001dca:	4401                	li	s0,0
    check_csr_rd("sip", sip, 0x0);
    80001dcc:	144024f3          	csrr	s1,sip
    80001dd0:	0002d617          	auipc	a2,0x2d
    80001dd4:	8f060613          	addi	a2,a2,-1808 # 8002e6c0 <__func__.0+0x7d8>
    80001dd8:	08200593          	li	a1,130
    80001ddc:	0002c517          	auipc	a0,0x2c
    80001de0:	40450513          	addi	a0,a0,1028 # 8002e1e0 <__func__.0+0x2f8>
    80001de4:	646290ef          	jal	8002b42a <printf>
    80001de8:	18048163          	beqz	s1,80001f6a <check_xip_regs_2+0x3ec>
    80001dec:	0002c597          	auipc	a1,0x2c
    80001df0:	3cc58593          	addi	a1,a1,972 # 8002e1b8 <__func__.0+0x2d0>
    80001df4:	0002c517          	auipc	a0,0x2c
    80001df8:	40450513          	addi	a0,a0,1028 # 8002e1f8 <__func__.0+0x310>
    80001dfc:	62e290ef          	jal	8002b42a <printf>
    80001e00:	0002c517          	auipc	a0,0x2c
    80001e04:	40050513          	addi	a0,a0,1024 # 8002e200 <__func__.0+0x318>
    80001e08:	622290ef          	jal	8002b42a <printf>
    80001e0c:	8626                	mv	a2,s1
    80001e0e:	4681                	li	a3,0
    80001e10:	02d00593          	li	a1,45
    80001e14:	0002d517          	auipc	a0,0x2d
    80001e18:	89450513          	addi	a0,a0,-1900 # 8002e6a8 <__func__.0+0x7c0>
    80001e1c:	60e290ef          	jal	8002b42a <printf>
    80001e20:	02900513          	li	a0,41
    80001e24:	2f4280ef          	jal	8002a118 <putchar>
    80001e28:	4529                	li	a0,10
    80001e2a:	2ee280ef          	jal	8002a118 <putchar>
    80001e2e:	4401                	li	s0,0
    // check_csr_rd_mask("mip", mip, 0x000, mtime_mask);
    check_csr_rd("vsip", CSR_VSIP, 0x0);
    80001e30:	244024f3          	csrr	s1,vsip
    80001e34:	0002d617          	auipc	a2,0x2d
    80001e38:	85c60613          	addi	a2,a2,-1956 # 8002e690 <__func__.0+0x7a8>
    80001e3c:	08200593          	li	a1,130
    80001e40:	0002c517          	auipc	a0,0x2c
    80001e44:	3a050513          	addi	a0,a0,928 # 8002e1e0 <__func__.0+0x2f8>
    80001e48:	5e2290ef          	jal	8002b42a <printf>
    80001e4c:	14048c63          	beqz	s1,80001fa4 <check_xip_regs_2+0x426>
    80001e50:	0002c597          	auipc	a1,0x2c
    80001e54:	36858593          	addi	a1,a1,872 # 8002e1b8 <__func__.0+0x2d0>
    80001e58:	0002c517          	auipc	a0,0x2c
    80001e5c:	3a050513          	addi	a0,a0,928 # 8002e1f8 <__func__.0+0x310>
    80001e60:	5ca290ef          	jal	8002b42a <printf>
    80001e64:	0002c517          	auipc	a0,0x2c
    80001e68:	39c50513          	addi	a0,a0,924 # 8002e200 <__func__.0+0x318>
    80001e6c:	5be290ef          	jal	8002b42a <printf>
    80001e70:	8626                	mv	a2,s1
    80001e72:	4681                	li	a3,0
    80001e74:	02d00593          	li	a1,45
    80001e78:	0002d517          	auipc	a0,0x2d
    80001e7c:	83050513          	addi	a0,a0,-2000 # 8002e6a8 <__func__.0+0x7c0>
    80001e80:	5aa290ef          	jal	8002b42a <printf>
    80001e84:	02900513          	li	a0,41
    80001e88:	290280ef          	jal	8002a118 <putchar>
    80001e8c:	4529                	li	a0,10
    80001e8e:	28a280ef          	jal	8002a118 <putchar>
    80001e92:	4401                	li	s0,0
    goto_priv(PRIV_VS);
    80001e94:	4509                	li	a0,2
    80001e96:	872ff0ef          	jal	80000f08 <goto_priv>
    check_csr_rd("sip (vs perspective)", sip, 0x0);
    80001e9a:	144024f3          	csrr	s1,sip
    80001e9e:	0002d617          	auipc	a2,0x2d
    80001ea2:	82a60613          	addi	a2,a2,-2006 # 8002e6c8 <__func__.0+0x7e0>
    80001ea6:	08200593          	li	a1,130
    80001eaa:	0002c517          	auipc	a0,0x2c
    80001eae:	33650513          	addi	a0,a0,822 # 8002e1e0 <__func__.0+0x2f8>
    80001eb2:	578290ef          	jal	8002b42a <printf>
    80001eb6:	10048563          	beqz	s1,80001fc0 <check_xip_regs_2+0x442>
    80001eba:	0002c597          	auipc	a1,0x2c
    80001ebe:	2fe58593          	addi	a1,a1,766 # 8002e1b8 <__func__.0+0x2d0>
    80001ec2:	0002c517          	auipc	a0,0x2c
    80001ec6:	33650513          	addi	a0,a0,822 # 8002e1f8 <__func__.0+0x310>
    80001eca:	560290ef          	jal	8002b42a <printf>
    80001ece:	0002c517          	auipc	a0,0x2c
    80001ed2:	33250513          	addi	a0,a0,818 # 8002e200 <__func__.0+0x318>
    80001ed6:	554290ef          	jal	8002b42a <printf>
    80001eda:	8626                	mv	a2,s1
    80001edc:	4681                	li	a3,0
    80001ede:	02d00593          	li	a1,45
    80001ee2:	0002c517          	auipc	a0,0x2c
    80001ee6:	7c650513          	addi	a0,a0,1990 # 8002e6a8 <__func__.0+0x7c0>
    80001eea:	540290ef          	jal	8002b42a <printf>
    80001eee:	02900513          	li	a0,41
    80001ef2:	226280ef          	jal	8002a118 <putchar>
    80001ef6:	4529                	li	a0,10
    80001ef8:	220280ef          	jal	8002a118 <putchar>
    goto_priv(PRIV_M);   
    80001efc:	4511                	li	a0,4
    80001efe:	80aff0ef          	jal	80000f08 <goto_priv>
    check_csr_rd("sip (vs perspective)", sip, 0x0);
    80001f02:	4401                	li	s0,0

    TEST_END();
    80001f04:	0002c597          	auipc	a1,0x2c
    80001f08:	2b458593          	addi	a1,a1,692 # 8002e1b8 <__func__.0+0x2d0>
    80001f0c:	0002c517          	auipc	a0,0x2c
    80001f10:	35450513          	addi	a0,a0,852 # 8002e260 <__func__.0+0x378>
    80001f14:	516290ef          	jal	8002b42a <printf>
    80001f18:	4511                	li	a0,4
    80001f1a:	feffe0ef          	jal	80000f08 <goto_priv>
    80001f1e:	907ff0ef          	jal	80001824 <reset_state>
}
    80001f22:	60e2                	ld	ra,24(sp)
    80001f24:	8522                	mv	a0,s0
    80001f26:	6442                	ld	s0,16(sp)
    80001f28:	64a2                	ld	s1,8(sp)
    80001f2a:	6902                	ld	s2,0(sp)
    80001f2c:	6105                	addi	sp,sp,32
    80001f2e:	8082                	ret
    check_csr_rd("hip", CSR_HIP, 0x0);
    80001f30:	0002c597          	auipc	a1,0x2c
    80001f34:	27858593          	addi	a1,a1,632 # 8002e1a8 <__func__.0+0x2c0>
    80001f38:	0002c517          	auipc	a0,0x2c
    80001f3c:	2c050513          	addi	a0,a0,704 # 8002e1f8 <__func__.0+0x310>
    80001f40:	4ea290ef          	jal	8002b42a <printf>
    80001f44:	4529                	li	a0,10
    80001f46:	1d2280ef          	jal	8002a118 <putchar>
    check_csr_rd("sip", sip, 0x0);
    80001f4a:	144024f3          	csrr	s1,sip
    80001f4e:	0002c617          	auipc	a2,0x2c
    80001f52:	77260613          	addi	a2,a2,1906 # 8002e6c0 <__func__.0+0x7d8>
    80001f56:	08200593          	li	a1,130
    80001f5a:	0002c517          	auipc	a0,0x2c
    80001f5e:	28650513          	addi	a0,a0,646 # 8002e1e0 <__func__.0+0x2f8>
    80001f62:	4c8290ef          	jal	8002b42a <printf>
    80001f66:	e80493e3          	bnez	s1,80001dec <check_xip_regs_2+0x26e>
    80001f6a:	0002c597          	auipc	a1,0x2c
    80001f6e:	23e58593          	addi	a1,a1,574 # 8002e1a8 <__func__.0+0x2c0>
    80001f72:	0002c517          	auipc	a0,0x2c
    80001f76:	28650513          	addi	a0,a0,646 # 8002e1f8 <__func__.0+0x310>
    80001f7a:	4b0290ef          	jal	8002b42a <printf>
    80001f7e:	4529                	li	a0,10
    80001f80:	198280ef          	jal	8002a118 <putchar>
    check_csr_rd("vsip", CSR_VSIP, 0x0);
    80001f84:	244024f3          	csrr	s1,vsip
    80001f88:	0002c617          	auipc	a2,0x2c
    80001f8c:	70860613          	addi	a2,a2,1800 # 8002e690 <__func__.0+0x7a8>
    80001f90:	08200593          	li	a1,130
    80001f94:	0002c517          	auipc	a0,0x2c
    80001f98:	24c50513          	addi	a0,a0,588 # 8002e1e0 <__func__.0+0x2f8>
    80001f9c:	48e290ef          	jal	8002b42a <printf>
    80001fa0:	ea0498e3          	bnez	s1,80001e50 <check_xip_regs_2+0x2d2>
    80001fa4:	0002c597          	auipc	a1,0x2c
    80001fa8:	20458593          	addi	a1,a1,516 # 8002e1a8 <__func__.0+0x2c0>
    80001fac:	0002c517          	auipc	a0,0x2c
    80001fb0:	24c50513          	addi	a0,a0,588 # 8002e1f8 <__func__.0+0x310>
    80001fb4:	476290ef          	jal	8002b42a <printf>
    80001fb8:	4529                	li	a0,10
    80001fba:	15e280ef          	jal	8002a118 <putchar>
    80001fbe:	bdd9                	j	80001e94 <check_xip_regs_2+0x316>
    check_csr_rd("sip (vs perspective)", sip, 0x0);
    80001fc0:	0002c597          	auipc	a1,0x2c
    80001fc4:	1e858593          	addi	a1,a1,488 # 8002e1a8 <__func__.0+0x2c0>
    80001fc8:	0002c517          	auipc	a0,0x2c
    80001fcc:	23050513          	addi	a0,a0,560 # 8002e1f8 <__func__.0+0x310>
    80001fd0:	45a290ef          	jal	8002b42a <printf>
    80001fd4:	4529                	li	a0,10
    80001fd6:	142280ef          	jal	8002a118 <putchar>
    80001fda:	f20401e3          	beqz	s0,80001efc <check_xip_regs_2+0x37e>
    goto_priv(PRIV_M);   
    80001fde:	4511                	li	a0,4
    80001fe0:	f29fe0ef          	jal	80000f08 <goto_priv>
    check_csr_rd("sip (vs perspective)", sip, 0x0);
    80001fe4:	4405                	li	s0,1
    TEST_END();
    80001fe6:	0002c597          	auipc	a1,0x2c
    80001fea:	1c258593          	addi	a1,a1,450 # 8002e1a8 <__func__.0+0x2c0>
    80001fee:	bf39                	j	80001f0c <check_xip_regs_2+0x38e>
    check_csr_rd("sip", sip, 0x2222);    
    80001ff0:	0002c597          	auipc	a1,0x2c
    80001ff4:	1b858593          	addi	a1,a1,440 # 8002e1a8 <__func__.0+0x2c0>
    80001ff8:	0002c517          	auipc	a0,0x2c
    80001ffc:	20050513          	addi	a0,a0,512 # 8002e1f8 <__func__.0+0x310>
    80002000:	42a290ef          	jal	8002b42a <printf>
    80002004:	4529                	li	a0,10
    80002006:	112280ef          	jal	8002a118 <putchar>
    8000200a:	b9bd                	j	80001c88 <check_xip_regs_2+0x10a>
    check_csr_rd("sip (vs perspective)", sip, 0x2002);
    8000200c:	0002c597          	auipc	a1,0x2c
    80002010:	19c58593          	addi	a1,a1,412 # 8002e1a8 <__func__.0+0x2c0>
    80002014:	0002c517          	auipc	a0,0x2c
    80002018:	1e450513          	addi	a0,a0,484 # 8002e1f8 <__func__.0+0x310>
    8000201c:	40e290ef          	jal	8002b42a <printf>
    80002020:	4529                	li	a0,10
    80002022:	0f6280ef          	jal	8002a118 <putchar>
    80002026:	bb25                	j	80001d5e <check_xip_regs_2+0x1e0>
    check_csr_rd("vsip", CSR_VSIP, 0x2002);
    80002028:	0002c597          	auipc	a1,0x2c
    8000202c:	18058593          	addi	a1,a1,384 # 8002e1a8 <__func__.0+0x2c0>
    80002030:	0002c517          	auipc	a0,0x2c
    80002034:	1c850513          	addi	a0,a0,456 # 8002e1f8 <__func__.0+0x310>
    80002038:	3f2290ef          	jal	8002b42a <printf>
    8000203c:	4529                	li	a0,10
    8000203e:	0da280ef          	jal	8002a118 <putchar>
    80002042:	b17d                	j	80001cf0 <check_xip_regs_2+0x172>
    check_csr_rd("hip", CSR_HIP, 0x4);
    80002044:	0002c597          	auipc	a1,0x2c
    80002048:	16458593          	addi	a1,a1,356 # 8002e1a8 <__func__.0+0x2c0>
    8000204c:	0002c517          	auipc	a0,0x2c
    80002050:	1ac50513          	addi	a0,a0,428 # 8002e1f8 <__func__.0+0x310>
    80002054:	3d6290ef          	jal	8002b42a <printf>
    80002058:	4529                	li	a0,10
    8000205a:	0be280ef          	jal	8002a118 <putchar>
    8000205e:	4405                	li	s0,1
    80002060:	be7d                	j	80001c1e <check_xip_regs_2+0xa0>

0000000080002062 <check_xip_regs_3>:

bool check_xip_regs_3(){
    80002062:	1101                	addi	sp,sp,-32

    TEST_START();
    80002064:	0002a597          	auipc	a1,0x2a
    80002068:	14458593          	addi	a1,a1,324 # 8002c1a8 <__func__.1>
    8000206c:	0002c517          	auipc	a0,0x2c
    80002070:	15c50513          	addi	a0,a0,348 # 8002e1c8 <__func__.0+0x2e0>
bool check_xip_regs_3(){
    80002074:	ec06                	sd	ra,24(sp)
    80002076:	e822                	sd	s0,16(sp)
    80002078:	e426                	sd	s1,8(sp)
    8000207a:	e04a                	sd	s2,0(sp)
    TEST_START();
    8000207c:	3ae290ef          	jal	8002b42a <printf>
    80002080:	4529                	li	a0,10
    80002082:	096280ef          	jal	8002a118 <putchar>

    CSRW(mideleg, (uint64_t)-1);
    80002086:	57fd                	li	a5,-1
    80002088:	30379073          	csrw	mideleg,a5
    VERBOSE("setting mideleg and hideleg\n");
    CSRW(CSR_HIDELEG, (uint64_t)-1);
    8000208c:	60379073          	csrw	hideleg,a5

    VERBOSE("setting all in hvip\n");
    CSRW(CSR_HVIP, (uint64_t)-1);
    80002090:	64579073          	csrw	hvip,a5
    check_csr_rd("hvip", CSR_HVIP, 0x2444);
    80002094:	645024f3          	csrr	s1,hvip
    80002098:	6409                	lui	s0,0x2
    8000209a:	0002c617          	auipc	a2,0x2c
    8000209e:	64660613          	addi	a2,a2,1606 # 8002e6e0 <__func__.0+0x7f8>
    800020a2:	08200593          	li	a1,130
    800020a6:	0002c517          	auipc	a0,0x2c
    800020aa:	13a50513          	addi	a0,a0,314 # 8002e1e0 <__func__.0+0x2f8>
    800020ae:	44440413          	addi	s0,s0,1092 # 2444 <_test_table_size+0x2443>
    800020b2:	378290ef          	jal	8002b42a <printf>
    800020b6:	4a848663          	beq	s1,s0,80002562 <check_xip_regs_3+0x500>
    800020ba:	0002c597          	auipc	a1,0x2c
    800020be:	0fe58593          	addi	a1,a1,254 # 8002e1b8 <__func__.0+0x2d0>
    800020c2:	0002c517          	auipc	a0,0x2c
    800020c6:	13650513          	addi	a0,a0,310 # 8002e1f8 <__func__.0+0x310>
    800020ca:	360290ef          	jal	8002b42a <printf>
    800020ce:	0002c517          	auipc	a0,0x2c
    800020d2:	13250513          	addi	a0,a0,306 # 8002e200 <__func__.0+0x318>
    800020d6:	354290ef          	jal	8002b42a <printf>
    800020da:	86a2                	mv	a3,s0
    800020dc:	8626                	mv	a2,s1
    800020de:	02d00593          	li	a1,45
    800020e2:	0002c517          	auipc	a0,0x2c
    800020e6:	5c650513          	addi	a0,a0,1478 # 8002e6a8 <__func__.0+0x7c0>
    800020ea:	340290ef          	jal	8002b42a <printf>
    800020ee:	02900513          	li	a0,41
    800020f2:	026280ef          	jal	8002a118 <putchar>
    800020f6:	4529                	li	a0,10
    800020f8:	020280ef          	jal	8002a118 <putchar>
    800020fc:	4401                	li	s0,0
    check_csr_rd("hip", CSR_HIP, 0x444);
    800020fe:	644024f3          	csrr	s1,hip
    80002102:	0002c617          	auipc	a2,0x2c
    80002106:	59e60613          	addi	a2,a2,1438 # 8002e6a0 <__func__.0+0x7b8>
    8000210a:	08200593          	li	a1,130
    8000210e:	0002c517          	auipc	a0,0x2c
    80002112:	0d250513          	addi	a0,a0,210 # 8002e1e0 <__func__.0+0x2f8>
    80002116:	44400913          	li	s2,1092
    8000211a:	310290ef          	jal	8002b42a <printf>
    8000211e:	3f248863          	beq	s1,s2,8000250e <check_xip_regs_3+0x4ac>
    80002122:	0002c597          	auipc	a1,0x2c
    80002126:	09658593          	addi	a1,a1,150 # 8002e1b8 <__func__.0+0x2d0>
    8000212a:	0002c517          	auipc	a0,0x2c
    8000212e:	0ce50513          	addi	a0,a0,206 # 8002e1f8 <__func__.0+0x310>
    80002132:	2f8290ef          	jal	8002b42a <printf>
    80002136:	0002c517          	auipc	a0,0x2c
    8000213a:	0ca50513          	addi	a0,a0,202 # 8002e200 <__func__.0+0x318>
    8000213e:	2ec290ef          	jal	8002b42a <printf>
    80002142:	86ca                	mv	a3,s2
    80002144:	8626                	mv	a2,s1
    80002146:	02d00593          	li	a1,45
    8000214a:	0002c517          	auipc	a0,0x2c
    8000214e:	55e50513          	addi	a0,a0,1374 # 8002e6a8 <__func__.0+0x7c0>
    80002152:	2d8290ef          	jal	8002b42a <printf>
    80002156:	02900513          	li	a0,41
    8000215a:	7bf270ef          	jal	8002a118 <putchar>
    8000215e:	4529                	li	a0,10
    80002160:	7b9270ef          	jal	8002a118 <putchar>
    80002164:	4401                	li	s0,0
    check_csr_rd("sip", sip, 0x0);
    80002166:	144024f3          	csrr	s1,sip
    8000216a:	0002c617          	auipc	a2,0x2c
    8000216e:	55660613          	addi	a2,a2,1366 # 8002e6c0 <__func__.0+0x7d8>
    80002172:	08200593          	li	a1,130
    80002176:	0002c517          	auipc	a0,0x2c
    8000217a:	06a50513          	addi	a0,a0,106 # 8002e1e0 <__func__.0+0x2f8>
    8000217e:	2ac290ef          	jal	8002b42a <printf>
    80002182:	2e048763          	beqz	s1,80002470 <check_xip_regs_3+0x40e>
    80002186:	0002c597          	auipc	a1,0x2c
    8000218a:	03258593          	addi	a1,a1,50 # 8002e1b8 <__func__.0+0x2d0>
    8000218e:	0002c517          	auipc	a0,0x2c
    80002192:	06a50513          	addi	a0,a0,106 # 8002e1f8 <__func__.0+0x310>
    80002196:	294290ef          	jal	8002b42a <printf>
    8000219a:	0002c517          	auipc	a0,0x2c
    8000219e:	06650513          	addi	a0,a0,102 # 8002e200 <__func__.0+0x318>
    800021a2:	288290ef          	jal	8002b42a <printf>
    800021a6:	8626                	mv	a2,s1
    800021a8:	4681                	li	a3,0
    800021aa:	02d00593          	li	a1,45
    800021ae:	0002c517          	auipc	a0,0x2c
    800021b2:	4fa50513          	addi	a0,a0,1274 # 8002e6a8 <__func__.0+0x7c0>
    800021b6:	274290ef          	jal	8002b42a <printf>
    800021ba:	02900513          	li	a0,41
    800021be:	75b270ef          	jal	8002a118 <putchar>
    800021c2:	4529                	li	a0,10
    800021c4:	755270ef          	jal	8002a118 <putchar>
    800021c8:	4401                	li	s0,0
    // check_csr_rd_mask("mip", mip, 0x444, mtime_mask);
    check_csr_rd("vsip", CSR_VSIP, 0x222);
    800021ca:	244024f3          	csrr	s1,vsip
    800021ce:	0002c617          	auipc	a2,0x2c
    800021d2:	4c260613          	addi	a2,a2,1218 # 8002e690 <__func__.0+0x7a8>
    800021d6:	08200593          	li	a1,130
    800021da:	0002c517          	auipc	a0,0x2c
    800021de:	00650513          	addi	a0,a0,6 # 8002e1e0 <__func__.0+0x2f8>
    800021e2:	22200913          	li	s2,546
    800021e6:	244290ef          	jal	8002b42a <printf>
    800021ea:	35248e63          	beq	s1,s2,80002546 <check_xip_regs_3+0x4e4>
    800021ee:	0002c597          	auipc	a1,0x2c
    800021f2:	fca58593          	addi	a1,a1,-54 # 8002e1b8 <__func__.0+0x2d0>
    800021f6:	0002c517          	auipc	a0,0x2c
    800021fa:	00250513          	addi	a0,a0,2 # 8002e1f8 <__func__.0+0x310>
    800021fe:	22c290ef          	jal	8002b42a <printf>
    80002202:	0002c517          	auipc	a0,0x2c
    80002206:	ffe50513          	addi	a0,a0,-2 # 8002e200 <__func__.0+0x318>
    8000220a:	220290ef          	jal	8002b42a <printf>
    8000220e:	86ca                	mv	a3,s2
    80002210:	8626                	mv	a2,s1
    80002212:	02d00593          	li	a1,45
    80002216:	0002c517          	auipc	a0,0x2c
    8000221a:	49250513          	addi	a0,a0,1170 # 8002e6a8 <__func__.0+0x7c0>
    8000221e:	20c290ef          	jal	8002b42a <printf>
    80002222:	02900513          	li	a0,41
    80002226:	6f3270ef          	jal	8002a118 <putchar>
    8000222a:	4529                	li	a0,10
    8000222c:	6ed270ef          	jal	8002a118 <putchar>
    80002230:	4401                	li	s0,0
    goto_priv(PRIV_VS);
    80002232:	4509                	li	a0,2
    80002234:	cd5fe0ef          	jal	80000f08 <goto_priv>
    check_csr_rd("sip (vs perspective)", sip, 0x222);
    80002238:	144024f3          	csrr	s1,sip
    8000223c:	0002c617          	auipc	a2,0x2c
    80002240:	48c60613          	addi	a2,a2,1164 # 8002e6c8 <__func__.0+0x7e0>
    80002244:	08200593          	li	a1,130
    80002248:	0002c517          	auipc	a0,0x2c
    8000224c:	f9850513          	addi	a0,a0,-104 # 8002e1e0 <__func__.0+0x2f8>
    80002250:	22200913          	li	s2,546
    80002254:	1d6290ef          	jal	8002b42a <printf>
    80002258:	2d248963          	beq	s1,s2,8000252a <check_xip_regs_3+0x4c8>
    8000225c:	0002c597          	auipc	a1,0x2c
    80002260:	f5c58593          	addi	a1,a1,-164 # 8002e1b8 <__func__.0+0x2d0>
    80002264:	0002c517          	auipc	a0,0x2c
    80002268:	f9450513          	addi	a0,a0,-108 # 8002e1f8 <__func__.0+0x310>
    8000226c:	1be290ef          	jal	8002b42a <printf>
    80002270:	0002c517          	auipc	a0,0x2c
    80002274:	f9050513          	addi	a0,a0,-112 # 8002e200 <__func__.0+0x318>
    80002278:	1b2290ef          	jal	8002b42a <printf>
    8000227c:	86ca                	mv	a3,s2
    8000227e:	8626                	mv	a2,s1
    80002280:	02d00593          	li	a1,45
    80002284:	0002c517          	auipc	a0,0x2c
    80002288:	42450513          	addi	a0,a0,1060 # 8002e6a8 <__func__.0+0x7c0>
    8000228c:	19e290ef          	jal	8002b42a <printf>
    80002290:	02900513          	li	a0,41
    80002294:	685270ef          	jal	8002a118 <putchar>
    80002298:	4529                	li	a0,10
    8000229a:	67f270ef          	jal	8002a118 <putchar>
    8000229e:	4401                	li	s0,0
    goto_priv(PRIV_M);
    800022a0:	4511                	li	a0,4
    800022a2:	c67fe0ef          	jal	80000f08 <goto_priv>

    VERBOSE("clearing all in hvip\n");
    CSRW(CSR_HVIP, (uint64_t)0);
    800022a6:	64505073          	csrwi	hvip,0
    check_csr_rd("hip", CSR_HIP, 0x0);
    800022aa:	644024f3          	csrr	s1,hip
    800022ae:	0002c617          	auipc	a2,0x2c
    800022b2:	3f260613          	addi	a2,a2,1010 # 8002e6a0 <__func__.0+0x7b8>
    800022b6:	08200593          	li	a1,130
    800022ba:	0002c517          	auipc	a0,0x2c
    800022be:	f2650513          	addi	a0,a0,-218 # 8002e1e0 <__func__.0+0x2f8>
    800022c2:	168290ef          	jal	8002b42a <printf>
    800022c6:	22048663          	beqz	s1,800024f2 <check_xip_regs_3+0x490>
    800022ca:	0002c597          	auipc	a1,0x2c
    800022ce:	eee58593          	addi	a1,a1,-274 # 8002e1b8 <__func__.0+0x2d0>
    800022d2:	0002c517          	auipc	a0,0x2c
    800022d6:	f2650513          	addi	a0,a0,-218 # 8002e1f8 <__func__.0+0x310>
    800022da:	150290ef          	jal	8002b42a <printf>
    800022de:	0002c517          	auipc	a0,0x2c
    800022e2:	f2250513          	addi	a0,a0,-222 # 8002e200 <__func__.0+0x318>
    800022e6:	144290ef          	jal	8002b42a <printf>
    800022ea:	8626                	mv	a2,s1
    800022ec:	4681                	li	a3,0
    800022ee:	02d00593          	li	a1,45
    800022f2:	0002c517          	auipc	a0,0x2c
    800022f6:	3b650513          	addi	a0,a0,950 # 8002e6a8 <__func__.0+0x7c0>
    800022fa:	130290ef          	jal	8002b42a <printf>
    800022fe:	02900513          	li	a0,41
    80002302:	617270ef          	jal	8002a118 <putchar>
    80002306:	4529                	li	a0,10
    80002308:	611270ef          	jal	8002a118 <putchar>
    8000230c:	4401                	li	s0,0
    check_csr_rd("sip", sip, 0x0);
    8000230e:	144024f3          	csrr	s1,sip
    80002312:	0002c617          	auipc	a2,0x2c
    80002316:	3ae60613          	addi	a2,a2,942 # 8002e6c0 <__func__.0+0x7d8>
    8000231a:	08200593          	li	a1,130
    8000231e:	0002c517          	auipc	a0,0x2c
    80002322:	ec250513          	addi	a0,a0,-318 # 8002e1e0 <__func__.0+0x2f8>
    80002326:	104290ef          	jal	8002b42a <printf>
    8000232a:	1a048663          	beqz	s1,800024d6 <check_xip_regs_3+0x474>
    8000232e:	0002c597          	auipc	a1,0x2c
    80002332:	e8a58593          	addi	a1,a1,-374 # 8002e1b8 <__func__.0+0x2d0>
    80002336:	0002c517          	auipc	a0,0x2c
    8000233a:	ec250513          	addi	a0,a0,-318 # 8002e1f8 <__func__.0+0x310>
    8000233e:	0ec290ef          	jal	8002b42a <printf>
    80002342:	0002c517          	auipc	a0,0x2c
    80002346:	ebe50513          	addi	a0,a0,-322 # 8002e200 <__func__.0+0x318>
    8000234a:	0e0290ef          	jal	8002b42a <printf>
    8000234e:	8626                	mv	a2,s1
    80002350:	4681                	li	a3,0
    80002352:	02d00593          	li	a1,45
    80002356:	0002c517          	auipc	a0,0x2c
    8000235a:	35250513          	addi	a0,a0,850 # 8002e6a8 <__func__.0+0x7c0>
    8000235e:	0cc290ef          	jal	8002b42a <printf>
    80002362:	02900513          	li	a0,41
    80002366:	5b3270ef          	jal	8002a118 <putchar>
    8000236a:	4529                	li	a0,10
    8000236c:	5ad270ef          	jal	8002a118 <putchar>
    80002370:	4401                	li	s0,0
    // check_csr_rd_mask("mip", mip, 0x000, mtime_mask);
    check_csr_rd("vsip", CSR_VSIP, 0x0);
    80002372:	244024f3          	csrr	s1,vsip
    80002376:	0002c617          	auipc	a2,0x2c
    8000237a:	31a60613          	addi	a2,a2,794 # 8002e690 <__func__.0+0x7a8>
    8000237e:	08200593          	li	a1,130
    80002382:	0002c517          	auipc	a0,0x2c
    80002386:	e5e50513          	addi	a0,a0,-418 # 8002e1e0 <__func__.0+0x2f8>
    8000238a:	0a0290ef          	jal	8002b42a <printf>
    8000238e:	12048663          	beqz	s1,800024ba <check_xip_regs_3+0x458>
    80002392:	0002c597          	auipc	a1,0x2c
    80002396:	e2658593          	addi	a1,a1,-474 # 8002e1b8 <__func__.0+0x2d0>
    8000239a:	0002c517          	auipc	a0,0x2c
    8000239e:	e5e50513          	addi	a0,a0,-418 # 8002e1f8 <__func__.0+0x310>
    800023a2:	088290ef          	jal	8002b42a <printf>
    800023a6:	0002c517          	auipc	a0,0x2c
    800023aa:	e5a50513          	addi	a0,a0,-422 # 8002e200 <__func__.0+0x318>
    800023ae:	07c290ef          	jal	8002b42a <printf>
    800023b2:	8626                	mv	a2,s1
    800023b4:	4681                	li	a3,0
    800023b6:	02d00593          	li	a1,45
    800023ba:	0002c517          	auipc	a0,0x2c
    800023be:	2ee50513          	addi	a0,a0,750 # 8002e6a8 <__func__.0+0x7c0>
    800023c2:	068290ef          	jal	8002b42a <printf>
    800023c6:	02900513          	li	a0,41
    800023ca:	54f270ef          	jal	8002a118 <putchar>
    800023ce:	4529                	li	a0,10
    800023d0:	549270ef          	jal	8002a118 <putchar>
    800023d4:	4401                	li	s0,0
    goto_priv(PRIV_VS);
    800023d6:	4509                	li	a0,2
    800023d8:	b31fe0ef          	jal	80000f08 <goto_priv>
    check_csr_rd("sip (vs perspective)", sip, 0x0);
    800023dc:	144024f3          	csrr	s1,sip
    800023e0:	0002c617          	auipc	a2,0x2c
    800023e4:	2e860613          	addi	a2,a2,744 # 8002e6c8 <__func__.0+0x7e0>
    800023e8:	08200593          	li	a1,130
    800023ec:	0002c517          	auipc	a0,0x2c
    800023f0:	df450513          	addi	a0,a0,-524 # 8002e1e0 <__func__.0+0x2f8>
    800023f4:	036290ef          	jal	8002b42a <printf>
    800023f8:	c8d1                	beqz	s1,8000248c <check_xip_regs_3+0x42a>
    800023fa:	0002c597          	auipc	a1,0x2c
    800023fe:	dbe58593          	addi	a1,a1,-578 # 8002e1b8 <__func__.0+0x2d0>
    80002402:	0002c517          	auipc	a0,0x2c
    80002406:	df650513          	addi	a0,a0,-522 # 8002e1f8 <__func__.0+0x310>
    8000240a:	020290ef          	jal	8002b42a <printf>
    8000240e:	0002c517          	auipc	a0,0x2c
    80002412:	df250513          	addi	a0,a0,-526 # 8002e200 <__func__.0+0x318>
    80002416:	014290ef          	jal	8002b42a <printf>
    8000241a:	8626                	mv	a2,s1
    8000241c:	4681                	li	a3,0
    8000241e:	02d00593          	li	a1,45
    80002422:	0002c517          	auipc	a0,0x2c
    80002426:	28650513          	addi	a0,a0,646 # 8002e6a8 <__func__.0+0x7c0>
    8000242a:	000290ef          	jal	8002b42a <printf>
    8000242e:	02900513          	li	a0,41
    80002432:	4e7270ef          	jal	8002a118 <putchar>
    80002436:	4529                	li	a0,10
    80002438:	4e1270ef          	jal	8002a118 <putchar>
    goto_priv(PRIV_M);
    8000243c:	4511                	li	a0,4
    8000243e:	acbfe0ef          	jal	80000f08 <goto_priv>
    check_csr_rd("sip (vs perspective)", sip, 0x0);
    80002442:	4401                	li	s0,0

    TEST_END();
    80002444:	0002c597          	auipc	a1,0x2c
    80002448:	d7458593          	addi	a1,a1,-652 # 8002e1b8 <__func__.0+0x2d0>
    8000244c:	0002c517          	auipc	a0,0x2c
    80002450:	e1450513          	addi	a0,a0,-492 # 8002e260 <__func__.0+0x378>
    80002454:	7d7280ef          	jal	8002b42a <printf>
    80002458:	4511                	li	a0,4
    8000245a:	aaffe0ef          	jal	80000f08 <goto_priv>
    8000245e:	bc6ff0ef          	jal	80001824 <reset_state>
}
    80002462:	60e2                	ld	ra,24(sp)
    80002464:	8522                	mv	a0,s0
    80002466:	6442                	ld	s0,16(sp)
    80002468:	64a2                	ld	s1,8(sp)
    8000246a:	6902                	ld	s2,0(sp)
    8000246c:	6105                	addi	sp,sp,32
    8000246e:	8082                	ret
    check_csr_rd("sip", sip, 0x0);
    80002470:	0002c597          	auipc	a1,0x2c
    80002474:	d3858593          	addi	a1,a1,-712 # 8002e1a8 <__func__.0+0x2c0>
    80002478:	0002c517          	auipc	a0,0x2c
    8000247c:	d8050513          	addi	a0,a0,-640 # 8002e1f8 <__func__.0+0x310>
    80002480:	7ab280ef          	jal	8002b42a <printf>
    80002484:	4529                	li	a0,10
    80002486:	493270ef          	jal	8002a118 <putchar>
    8000248a:	b381                	j	800021ca <check_xip_regs_3+0x168>
    check_csr_rd("sip (vs perspective)", sip, 0x0);
    8000248c:	0002c597          	auipc	a1,0x2c
    80002490:	d1c58593          	addi	a1,a1,-740 # 8002e1a8 <__func__.0+0x2c0>
    80002494:	0002c517          	auipc	a0,0x2c
    80002498:	d6450513          	addi	a0,a0,-668 # 8002e1f8 <__func__.0+0x310>
    8000249c:	78f280ef          	jal	8002b42a <printf>
    800024a0:	4529                	li	a0,10
    800024a2:	477270ef          	jal	8002a118 <putchar>
    800024a6:	d859                	beqz	s0,8000243c <check_xip_regs_3+0x3da>
    goto_priv(PRIV_M);
    800024a8:	4511                	li	a0,4
    800024aa:	a5ffe0ef          	jal	80000f08 <goto_priv>
    check_csr_rd("sip (vs perspective)", sip, 0x0);
    800024ae:	4405                	li	s0,1
    TEST_END();
    800024b0:	0002c597          	auipc	a1,0x2c
    800024b4:	cf858593          	addi	a1,a1,-776 # 8002e1a8 <__func__.0+0x2c0>
    800024b8:	bf51                	j	8000244c <check_xip_regs_3+0x3ea>
    check_csr_rd("vsip", CSR_VSIP, 0x0);
    800024ba:	0002c597          	auipc	a1,0x2c
    800024be:	cee58593          	addi	a1,a1,-786 # 8002e1a8 <__func__.0+0x2c0>
    800024c2:	0002c517          	auipc	a0,0x2c
    800024c6:	d3650513          	addi	a0,a0,-714 # 8002e1f8 <__func__.0+0x310>
    800024ca:	761280ef          	jal	8002b42a <printf>
    800024ce:	4529                	li	a0,10
    800024d0:	449270ef          	jal	8002a118 <putchar>
    800024d4:	b709                	j	800023d6 <check_xip_regs_3+0x374>
    check_csr_rd("sip", sip, 0x0);
    800024d6:	0002c597          	auipc	a1,0x2c
    800024da:	cd258593          	addi	a1,a1,-814 # 8002e1a8 <__func__.0+0x2c0>
    800024de:	0002c517          	auipc	a0,0x2c
    800024e2:	d1a50513          	addi	a0,a0,-742 # 8002e1f8 <__func__.0+0x310>
    800024e6:	745280ef          	jal	8002b42a <printf>
    800024ea:	4529                	li	a0,10
    800024ec:	42d270ef          	jal	8002a118 <putchar>
    800024f0:	b549                	j	80002372 <check_xip_regs_3+0x310>
    check_csr_rd("hip", CSR_HIP, 0x0);
    800024f2:	0002c597          	auipc	a1,0x2c
    800024f6:	cb658593          	addi	a1,a1,-842 # 8002e1a8 <__func__.0+0x2c0>
    800024fa:	0002c517          	auipc	a0,0x2c
    800024fe:	cfe50513          	addi	a0,a0,-770 # 8002e1f8 <__func__.0+0x310>
    80002502:	729280ef          	jal	8002b42a <printf>
    80002506:	4529                	li	a0,10
    80002508:	411270ef          	jal	8002a118 <putchar>
    8000250c:	b509                	j	8000230e <check_xip_regs_3+0x2ac>
    check_csr_rd("hip", CSR_HIP, 0x444);
    8000250e:	0002c597          	auipc	a1,0x2c
    80002512:	c9a58593          	addi	a1,a1,-870 # 8002e1a8 <__func__.0+0x2c0>
    80002516:	0002c517          	auipc	a0,0x2c
    8000251a:	ce250513          	addi	a0,a0,-798 # 8002e1f8 <__func__.0+0x310>
    8000251e:	70d280ef          	jal	8002b42a <printf>
    80002522:	4529                	li	a0,10
    80002524:	3f5270ef          	jal	8002a118 <putchar>
    80002528:	b93d                	j	80002166 <check_xip_regs_3+0x104>
    check_csr_rd("sip (vs perspective)", sip, 0x222);
    8000252a:	0002c597          	auipc	a1,0x2c
    8000252e:	c7e58593          	addi	a1,a1,-898 # 8002e1a8 <__func__.0+0x2c0>
    80002532:	0002c517          	auipc	a0,0x2c
    80002536:	cc650513          	addi	a0,a0,-826 # 8002e1f8 <__func__.0+0x310>
    8000253a:	6f1280ef          	jal	8002b42a <printf>
    8000253e:	4529                	li	a0,10
    80002540:	3d9270ef          	jal	8002a118 <putchar>
    80002544:	bbb1                	j	800022a0 <check_xip_regs_3+0x23e>
    check_csr_rd("vsip", CSR_VSIP, 0x222);
    80002546:	0002c597          	auipc	a1,0x2c
    8000254a:	c6258593          	addi	a1,a1,-926 # 8002e1a8 <__func__.0+0x2c0>
    8000254e:	0002c517          	auipc	a0,0x2c
    80002552:	caa50513          	addi	a0,a0,-854 # 8002e1f8 <__func__.0+0x310>
    80002556:	6d5280ef          	jal	8002b42a <printf>
    8000255a:	4529                	li	a0,10
    8000255c:	3bd270ef          	jal	8002a118 <putchar>
    80002560:	b9c9                	j	80002232 <check_xip_regs_3+0x1d0>
    check_csr_rd("hvip", CSR_HVIP, 0x2444);
    80002562:	0002c597          	auipc	a1,0x2c
    80002566:	c4658593          	addi	a1,a1,-954 # 8002e1a8 <__func__.0+0x2c0>
    8000256a:	0002c517          	auipc	a0,0x2c
    8000256e:	c8e50513          	addi	a0,a0,-882 # 8002e1f8 <__func__.0+0x310>
    80002572:	6b9280ef          	jal	8002b42a <printf>
    80002576:	4529                	li	a0,10
    80002578:	3a1270ef          	jal	8002a118 <putchar>
    8000257c:	4405                	li	s0,1
    8000257e:	b641                	j	800020fe <check_xip_regs_3+0x9c>

0000000080002580 <interrupt_tests>:

bool interrupt_tests(){
    80002580:	1101                	addi	sp,sp,-32

    TEST_START();
    80002582:	0002a597          	auipc	a1,0x2a
    80002586:	c3e58593          	addi	a1,a1,-962 # 8002c1c0 <__func__.0>
    8000258a:	0002c517          	auipc	a0,0x2c
    8000258e:	c3e50513          	addi	a0,a0,-962 # 8002e1c8 <__func__.0+0x2e0>
bool interrupt_tests(){
    80002592:	ec06                	sd	ra,24(sp)
    80002594:	e822                	sd	s0,16(sp)
    80002596:	e426                	sd	s1,8(sp)
    TEST_START();
    80002598:	693280ef          	jal	8002b42a <printf>
    8000259c:	4529                	li	a0,10
    8000259e:	37b270ef          	jal	8002a118 <putchar>
    /**
     * Test trigerring VSSI without delegating it. 
     * It assumes it is already delegated in miedeleg (it should be hardwired)
     */
    
    goto_priv(PRIV_HS);
    800025a2:	450d                	li	a0,3
    800025a4:	965fe0ef          	jal	80000f08 <goto_priv>
    CSRC(sstatus, SSTATUS_SPIE_BIT | SSTATUS_SIE_BIT); 
    800025a8:	02200793          	li	a5,34
    800025ac:	1007b073          	csrc	sstatus,a5
    CSRS(CSR_HIE, 0x4);
    800025b0:	60426073          	csrsi	hie,4
    CSRS(CSR_HIP, 0x4);
    800025b4:	64426073          	csrsi	hip,4
    TEST_SETUP_EXCEPT();
    800025b8:	855fe0ef          	jal	80000e0c <test_setup_except_function>
    goto_priv(PRIV_VS);
    800025bc:	4509                	li	a0,2
    800025be:	94bfe0ef          	jal	80000f08 <goto_priv>
    //CSRS(sstatus, SSTATUS_SIE_BIT);
    TEST_ASSERT("vs sw irq with no delegation", 
    800025c2:	08200593          	li	a1,130
    800025c6:	0002c617          	auipc	a2,0x2c
    800025ca:	12260613          	addi	a2,a2,290 # 8002e6e8 <__func__.0+0x800>
    800025ce:	0002c517          	auipc	a0,0x2c
    800025d2:	c1250513          	addi	a0,a0,-1006 # 8002e1e0 <__func__.0+0x2f8>
    800025d6:	655280ef          	jal	8002b42a <printf>
    800025da:	00056797          	auipc	a5,0x56
    800025de:	a377c783          	lbu	a5,-1481(a5) # 80058011 <excpt+0x1>
    800025e2:	00056417          	auipc	s0,0x56
    800025e6:	a2e40413          	addi	s0,s0,-1490 # 80058010 <excpt>
    800025ea:	0002c597          	auipc	a1,0x2c
    800025ee:	bce58593          	addi	a1,a1,-1074 # 8002e1b8 <__func__.0+0x2d0>
    800025f2:	c799                	beqz	a5,80002600 <interrupt_tests+0x80>
    800025f4:	57fd                	li	a5,-1
    800025f6:	6418                	ld	a4,8(s0)
    800025f8:	17fe                	slli	a5,a5,0x3f
    800025fa:	0789                	addi	a5,a5,2
    800025fc:	16f70863          	beq	a4,a5,8000276c <interrupt_tests+0x1ec>
    80002600:	0002c517          	auipc	a0,0x2c
    80002604:	bf850513          	addi	a0,a0,-1032 # 8002e1f8 <__func__.0+0x310>
    80002608:	623280ef          	jal	8002b42a <printf>
    8000260c:	00056797          	auipc	a5,0x56
    80002610:	a057c783          	lbu	a5,-1531(a5) # 80058011 <excpt+0x1>
    80002614:	c799                	beqz	a5,80002622 <interrupt_tests+0xa2>
    80002616:	57fd                	li	a5,-1
    80002618:	6418                	ld	a4,8(s0)
    8000261a:	17fe                	slli	a5,a5,0x3f
    8000261c:	0789                	addi	a5,a5,2
    8000261e:	12f70f63          	beq	a4,a5,8000275c <interrupt_tests+0x1dc>
    80002622:	0002c517          	auipc	a0,0x2c
    80002626:	bde50513          	addi	a0,a0,-1058 # 8002e200 <__func__.0+0x318>
    8000262a:	601280ef          	jal	8002b42a <printf>
    8000262e:	02900513          	li	a0,41
    80002632:	2e7270ef          	jal	8002a118 <putchar>
    80002636:	4529                	li	a0,10
    80002638:	2e1270ef          	jal	8002a118 <putchar>
    8000263c:	00056797          	auipc	a5,0x56
    80002640:	9d57c783          	lbu	a5,-1579(a5) # 80058011 <excpt+0x1>
    80002644:	4481                	li	s1,0
    80002646:	c799                	beqz	a5,80002654 <interrupt_tests+0xd4>
    80002648:	57fd                	li	a5,-1
    8000264a:	6418                	ld	a4,8(s0)
    8000264c:	17fe                	slli	a5,a5,0x3f
    8000264e:	0789                	addi	a5,a5,2
    80002650:	12f70e63          	beq	a4,a5,8000278c <interrupt_tests+0x20c>
   
    /**
     * Test trigerring VSSI and delegating it. Should trap to VS with cause SSI.
     * It assumes it is already delegated in miedeleg (it should be hardwired)
     */
    goto_priv(PRIV_HS);
    80002654:	450d                	li	a0,3
    80002656:	8b3fe0ef          	jal	80000f08 <goto_priv>
    CSRS(CSR_HIDELEG, 0x4);
    8000265a:	60326073          	csrsi	hideleg,4
    CSRS(CSR_HIP, 0x4);
    8000265e:	64426073          	csrsi	hip,4
    TEST_SETUP_EXCEPT();
    80002662:	faafe0ef          	jal	80000e0c <test_setup_except_function>
    goto_priv(PRIV_VS);
    80002666:	4509                	li	a0,2
    80002668:	8a1fe0ef          	jal	80000f08 <goto_priv>
    CSRS(sie, 0x2);
    8000266c:	10416073          	csrsi	sie,2
    CSRS(sstatus, 0x2);
    80002670:	10016073          	csrsi	sstatus,2
    TEST_ASSERT("vs sw irq with delegation", 
    80002674:	08200593          	li	a1,130
    80002678:	0002c617          	auipc	a2,0x2c
    8000267c:	09060613          	addi	a2,a2,144 # 8002e708 <__func__.0+0x820>
    80002680:	0002c517          	auipc	a0,0x2c
    80002684:	b6050513          	addi	a0,a0,-1184 # 8002e1e0 <__func__.0+0x2f8>
    80002688:	5a3280ef          	jal	8002b42a <printf>
    8000268c:	00056797          	auipc	a5,0x56
    80002690:	9857c783          	lbu	a5,-1659(a5) # 80058011 <excpt+0x1>
    80002694:	0002c597          	auipc	a1,0x2c
    80002698:	b2458593          	addi	a1,a1,-1244 # 8002e1b8 <__func__.0+0x2d0>
    8000269c:	c799                	beqz	a5,800026aa <interrupt_tests+0x12a>
    8000269e:	57fd                	li	a5,-1
    800026a0:	6418                	ld	a4,8(s0)
    800026a2:	17fe                	slli	a5,a5,0x3f
    800026a4:	0785                	addi	a5,a5,1
    800026a6:	0ef70b63          	beq	a4,a5,8000279c <interrupt_tests+0x21c>
    800026aa:	0002c517          	auipc	a0,0x2c
    800026ae:	b4e50513          	addi	a0,a0,-1202 # 8002e1f8 <__func__.0+0x310>
    800026b2:	579280ef          	jal	8002b42a <printf>
    800026b6:	00056797          	auipc	a5,0x56
    800026ba:	95b7c783          	lbu	a5,-1701(a5) # 80058011 <excpt+0x1>
    800026be:	c799                	beqz	a5,800026cc <interrupt_tests+0x14c>
    800026c0:	57fd                	li	a5,-1
    800026c2:	6418                	ld	a4,8(s0)
    800026c4:	17fe                	slli	a5,a5,0x3f
    800026c6:	0785                	addi	a5,a5,1
    800026c8:	08f70263          	beq	a4,a5,8000274c <interrupt_tests+0x1cc>
    800026cc:	0002c517          	auipc	a0,0x2c
    800026d0:	b3450513          	addi	a0,a0,-1228 # 8002e200 <__func__.0+0x318>
    800026d4:	557280ef          	jal	8002b42a <printf>
    800026d8:	02900513          	li	a0,41
    800026dc:	23d270ef          	jal	8002a118 <putchar>
    800026e0:	4529                	li	a0,10
    800026e2:	237270ef          	jal	8002a118 <putchar>
    800026e6:	cca9                	beqz	s1,80002740 <interrupt_tests+0x1c0>
    800026e8:	00056497          	auipc	s1,0x56
    800026ec:	9294c483          	lbu	s1,-1751(s1) # 80058011 <excpt+0x1>


    //Mbitmstatus.mie=1mipmieMEIPMEIE
    

    TEST_END();
    800026f0:	0002c597          	auipc	a1,0x2c
    800026f4:	ac858593          	addi	a1,a1,-1336 # 8002e1b8 <__func__.0+0x2d0>
    TEST_ASSERT("vs sw irq with delegation", 
    800026f8:	c881                	beqz	s1,80002708 <interrupt_tests+0x188>
    800026fa:	57fd                	li	a5,-1
    800026fc:	6418                	ld	a4,8(s0)
    800026fe:	17fe                	slli	a5,a5,0x3f
    80002700:	0785                	addi	a5,a5,1
    80002702:	02f70463          	beq	a4,a5,8000272a <interrupt_tests+0x1aa>
    80002706:	4481                	li	s1,0
    TEST_END();
    80002708:	0002c517          	auipc	a0,0x2c
    8000270c:	b5850513          	addi	a0,a0,-1192 # 8002e260 <__func__.0+0x378>
    80002710:	51b280ef          	jal	8002b42a <printf>
    80002714:	4511                	li	a0,4
    80002716:	ff2fe0ef          	jal	80000f08 <goto_priv>
    8000271a:	90aff0ef          	jal	80001824 <reset_state>
}
    8000271e:	60e2                	ld	ra,24(sp)
    80002720:	6442                	ld	s0,16(sp)
    80002722:	8526                	mv	a0,s1
    80002724:	64a2                	ld	s1,8(sp)
    80002726:	6105                	addi	sp,sp,32
    80002728:	8082                	ret
    TEST_ASSERT("vs sw irq with delegation", 
    8000272a:	00056717          	auipc	a4,0x56
    8000272e:	8ea72703          	lw	a4,-1814(a4) # 80058014 <excpt+0x4>
    80002732:	4789                	li	a5,2
    TEST_END();
    80002734:	0002c597          	auipc	a1,0x2c
    80002738:	a7458593          	addi	a1,a1,-1420 # 8002e1a8 <__func__.0+0x2c0>
    TEST_ASSERT("vs sw irq with delegation", 
    8000273c:	fcf706e3          	beq	a4,a5,80002708 <interrupt_tests+0x188>
    80002740:	4481                	li	s1,0
    TEST_END();
    80002742:	0002c597          	auipc	a1,0x2c
    80002746:	a7658593          	addi	a1,a1,-1418 # 8002e1b8 <__func__.0+0x2d0>
    8000274a:	bf7d                	j	80002708 <interrupt_tests+0x188>
    TEST_ASSERT("vs sw irq with delegation", 
    8000274c:	00056717          	auipc	a4,0x56
    80002750:	8c872703          	lw	a4,-1848(a4) # 80058014 <excpt+0x4>
    80002754:	4789                	li	a5,2
    80002756:	f6f71be3          	bne	a4,a5,800026cc <interrupt_tests+0x14c>
    8000275a:	b759                	j	800026e0 <interrupt_tests+0x160>
    TEST_ASSERT("vs sw irq with no delegation", 
    8000275c:	00056717          	auipc	a4,0x56
    80002760:	8b872703          	lw	a4,-1864(a4) # 80058014 <excpt+0x4>
    80002764:	478d                	li	a5,3
    80002766:	eaf71ee3          	bne	a4,a5,80002622 <interrupt_tests+0xa2>
    8000276a:	b5f1                	j	80002636 <interrupt_tests+0xb6>
    8000276c:	00056717          	auipc	a4,0x56
    80002770:	8a872703          	lw	a4,-1880(a4) # 80058014 <excpt+0x4>
    80002774:	478d                	li	a5,3
    80002776:	0002c597          	auipc	a1,0x2c
    8000277a:	a3258593          	addi	a1,a1,-1486 # 8002e1a8 <__func__.0+0x2c0>
    8000277e:	e8f701e3          	beq	a4,a5,80002600 <interrupt_tests+0x80>
    80002782:	0002c597          	auipc	a1,0x2c
    80002786:	a3658593          	addi	a1,a1,-1482 # 8002e1b8 <__func__.0+0x2d0>
    8000278a:	bd9d                	j	80002600 <interrupt_tests+0x80>
    8000278c:	00056497          	auipc	s1,0x56
    80002790:	8884a483          	lw	s1,-1912(s1) # 80058014 <excpt+0x4>
    80002794:	14f5                	addi	s1,s1,-3
    80002796:	0014b493          	seqz	s1,s1
    8000279a:	bd6d                	j	80002654 <interrupt_tests+0xd4>
    TEST_ASSERT("vs sw irq with delegation", 
    8000279c:	00056717          	auipc	a4,0x56
    800027a0:	87872703          	lw	a4,-1928(a4) # 80058014 <excpt+0x4>
    800027a4:	4789                	li	a5,2
    800027a6:	0002c597          	auipc	a1,0x2c
    800027aa:	a0258593          	addi	a1,a1,-1534 # 8002e1a8 <__func__.0+0x2c0>
    800027ae:	eef70ee3          	beq	a4,a5,800026aa <interrupt_tests+0x12a>
    800027b2:	0002c597          	auipc	a1,0x2c
    800027b6:	a0658593          	addi	a1,a1,-1530 # 8002e1b8 <__func__.0+0x2d0>
    800027ba:	bdc5                	j	800026aa <interrupt_tests+0x12a>

00000000800027bc <two_stage_translation_1>:

static inline void touch(uintptr_t addr){
    touchwrite(addr);
}

bool two_stage_translation_1(){
    800027bc:	7139                	addi	sp,sp,-64
    
    TEST_START();
    800027be:	0002a597          	auipc	a1,0x2a
    800027c2:	a1258593          	addi	a1,a1,-1518 # 8002c1d0 <__func__.20>
    800027c6:	0002c517          	auipc	a0,0x2c
    800027ca:	a0250513          	addi	a0,a0,-1534 # 8002e1c8 <__func__.0+0x2e0>
bool two_stage_translation_1(){
    800027ce:	fc06                	sd	ra,56(sp)
    800027d0:	f822                	sd	s0,48(sp)
    800027d2:	f426                	sd	s1,40(sp)
    800027d4:	f04a                	sd	s2,32(sp)
    800027d6:	ec4e                	sd	s3,24(sp)
    TEST_START();
    800027d8:	453280ef          	jal	8002b42a <printf>
    800027dc:	4529                	li	a0,10
    800027de:	13b270ef          	jal	8002a118 <putchar>
static inline uint8_t read8(uintptr_t addr){
    return *((volatile uint8_t*) addr);    
}

static inline void write64(uintptr_t addr, uint64_t val){
    *((volatile uint64_t*) addr) = val;
    800027e2:	2201b737          	lui	a4,0x2201b
    800027e6:	000887b7          	lui	a5,0x88
    800027ea:	070a                	slli	a4,a4,0x2
    800027ec:	44c5                	li	s1,17
    800027ee:	06d78793          	addi	a5,a5,109 # 8806d <_test_table_size+0x8806c>
    800027f2:	e304                	sd	s1,0(a4)
    800027f4:	07b2                	slli	a5,a5,0xc
    800027f6:	02200913          	li	s2,34
    800027fa:	0127b023          	sd	s2,0(a5)
    write64(addr2, 0x22);

    /**
     * Setup hyp page_tables.
     */
    goto_priv(PRIV_HS);
    800027fe:	450d                	li	a0,3
    80002800:	f08fe0ef          	jal	80000f08 <goto_priv>
    hspt_init();
    80002804:	dddfd0ef          	jal	800005e0 <hspt_init>
    hpt_init();
    80002808:	9bcfe0ef          	jal	800009c4 <hpt_init>

    /**
     * Setup guest page tables.
     */
    vspt_init();
    8000280c:	f71fd0ef          	jal	8000077c <vspt_init>
    return *((volatile uint64_t*) addr);
    80002810:	4001b737          	lui	a4,0x4001b
    80002814:	070a                	slli	a4,a4,0x2
    80002816:	00073983          	ld	s3,0(a4) # 4001b000 <STACK_SIZE+0x3ff1b000>
    8000281a:	001007b7          	lui	a5,0x100
    8000281e:	06d78793          	addi	a5,a5,109 # 10006d <STACK_SIZE+0x6d>
    80002822:	07b2                	slli	a5,a5,0xc

    bool check1 = read64(vaddr1) == 0x11;
    bool check2 = read64(vaddr2) == 0x22;
    TEST_ASSERT("vs gets right values", check1 && check2);
    80002824:	0002c617          	auipc	a2,0x2c
    80002828:	f0460613          	addi	a2,a2,-252 # 8002e728 <__func__.0+0x840>
    8000282c:	08200593          	li	a1,130
    80002830:	0002c517          	auipc	a0,0x2c
    80002834:	9b050513          	addi	a0,a0,-1616 # 8002e1e0 <__func__.0+0x2f8>
    80002838:	6380                	ld	s0,0(a5)
    8000283a:	3f1280ef          	jal	8002b42a <printf>
    8000283e:	3a998963          	beq	s3,s1,80002bf0 <two_stage_translation_1+0x434>
    80002842:	0002c597          	auipc	a1,0x2c
    80002846:	97658593          	addi	a1,a1,-1674 # 8002e1b8 <__func__.0+0x2d0>
    8000284a:	0002c517          	auipc	a0,0x2c
    8000284e:	9ae50513          	addi	a0,a0,-1618 # 8002e1f8 <__func__.0+0x310>
    80002852:	3d9280ef          	jal	8002b42a <printf>
    80002856:	0002c517          	auipc	a0,0x2c
    8000285a:	9aa50513          	addi	a0,a0,-1622 # 8002e200 <__func__.0+0x318>
    8000285e:	3cd280ef          	jal	8002b42a <printf>
    80002862:	02900513          	li	a0,41
    80002866:	0b3270ef          	jal	8002a118 <putchar>
    8000286a:	4529                	li	a0,10
    8000286c:	0ad270ef          	jal	8002a118 <putchar>
    80002870:	4401                	li	s0,0
    
    goto_priv(PRIV_HS);
    80002872:	450d                	li	a0,3
    80002874:	e94fe0ef          	jal	80000f08 <goto_priv>
    hpt_switch();
    80002878:	d5efe0ef          	jal	80000dd6 <hpt_switch>
    asm volatile(
    8000287c:	22000073          	.insn	4, 0x22000073
    asm volatile(
    80002880:	62000073          	.insn	4, 0x62000073
    hfence();
    goto_priv(PRIV_VS);
    80002884:	4509                	li	a0,2
    80002886:	e82fe0ef          	jal	80000f08 <goto_priv>
    8000288a:	001007b7          	lui	a5,0x100
    8000288e:	4001b737          	lui	a4,0x4001b
    80002892:	070a                	slli	a4,a4,0x2
    80002894:	06d78793          	addi	a5,a5,109 # 10006d <STACK_SIZE+0x6d>
    80002898:	07b2                	slli	a5,a5,0xc
    8000289a:	00073903          	ld	s2,0(a4) # 4001b000 <STACK_SIZE+0x3ff1b000>
    check1 = read64(vaddr1) == 0x22;
    check2 = read64(vaddr2) == 0x11;   
    // INFO("0%lx 0x%lx", read64(vaddr1), read64(vaddr2));
    TEST_ASSERT("vs gets right values after changing 2nd stage pt", check1 && check2);
    8000289e:	0002c617          	auipc	a2,0x2c
    800028a2:	ea260613          	addi	a2,a2,-350 # 8002e740 <__func__.0+0x858>
    800028a6:	08200593          	li	a1,130
    800028aa:	0002c517          	auipc	a0,0x2c
    800028ae:	93650513          	addi	a0,a0,-1738 # 8002e1e0 <__func__.0+0x2f8>
    800028b2:	6384                	ld	s1,0(a5)
    800028b4:	377280ef          	jal	8002b42a <printf>
    800028b8:	02200793          	li	a5,34
    800028bc:	2ef90a63          	beq	s2,a5,80002bb0 <two_stage_translation_1+0x3f4>
    800028c0:	0002c597          	auipc	a1,0x2c
    800028c4:	8f858593          	addi	a1,a1,-1800 # 8002e1b8 <__func__.0+0x2d0>
    800028c8:	0002c517          	auipc	a0,0x2c
    800028cc:	93050513          	addi	a0,a0,-1744 # 8002e1f8 <__func__.0+0x310>
    800028d0:	35b280ef          	jal	8002b42a <printf>
    800028d4:	0002c517          	auipc	a0,0x2c
    800028d8:	92c50513          	addi	a0,a0,-1748 # 8002e200 <__func__.0+0x318>
    800028dc:	34f280ef          	jal	8002b42a <printf>
    800028e0:	02900513          	li	a0,41
    800028e4:	035270ef          	jal	8002a118 <putchar>
    800028e8:	4529                	li	a0,10
    800028ea:	02f270ef          	jal	8002a118 <putchar>
    800028ee:	4401                	li	s0,0

    vspt_switch();
    800028f0:	cc4fe0ef          	jal	80000db4 <vspt_switch>
    asm volatile ("sfence.vma \n\t");
    800028f4:	12000073          	sfence.vma
    800028f8:	001007b7          	lui	a5,0x100
    800028fc:	4001b737          	lui	a4,0x4001b
    80002900:	070a                	slli	a4,a4,0x2
    80002902:	06d78793          	addi	a5,a5,109 # 10006d <STACK_SIZE+0x6d>
    80002906:	07b2                	slli	a5,a5,0xc
    80002908:	00073903          	ld	s2,0(a4) # 4001b000 <STACK_SIZE+0x3ff1b000>
    sfence();
    check1 = read64(vaddr1) == 0x11;
    check2 = read64(vaddr2) == 0x22;   
    TEST_ASSERT("vs gets right values after changing 1st stage pt", check1 && check2);
    8000290c:	0002c617          	auipc	a2,0x2c
    80002910:	e6c60613          	addi	a2,a2,-404 # 8002e778 <__func__.0+0x890>
    80002914:	08200593          	li	a1,130
    80002918:	0002c517          	auipc	a0,0x2c
    8000291c:	8c850513          	addi	a0,a0,-1848 # 8002e1e0 <__func__.0+0x2f8>
    80002920:	6384                	ld	s1,0(a5)
    80002922:	309280ef          	jal	8002b42a <printf>
    80002926:	47c5                	li	a5,17
    80002928:	32f90063          	beq	s2,a5,80002c48 <two_stage_translation_1+0x48c>
    8000292c:	0002c597          	auipc	a1,0x2c
    80002930:	88c58593          	addi	a1,a1,-1908 # 8002e1b8 <__func__.0+0x2d0>
    80002934:	0002c517          	auipc	a0,0x2c
    80002938:	8c450513          	addi	a0,a0,-1852 # 8002e1f8 <__func__.0+0x310>
    8000293c:	2ef280ef          	jal	8002b42a <printf>
    80002940:	0002c517          	auipc	a0,0x2c
    80002944:	8c050513          	addi	a0,a0,-1856 # 8002e200 <__func__.0+0x318>
    80002948:	2e3280ef          	jal	8002b42a <printf>
    8000294c:	02900513          	li	a0,41
    80002950:	7c8270ef          	jal	8002a118 <putchar>
    80002954:	4529                	li	a0,10
    80002956:	7c2270ef          	jal	8002a118 <putchar>
    8000295a:	4481                	li	s1,0

    goto_priv(PRIV_M); 
    8000295c:	4511                	li	a0,4
    8000295e:	daafe0ef          	jal	80000f08 <goto_priv>
    CSRS(medeleg, 1ull << CAUSE_LGPF);
    80002962:	002007b7          	lui	a5,0x200
    80002966:	3027a073          	csrs	medeleg,a5
    goto_priv(PRIV_VS);
    8000296a:	4509                	li	a0,2
    8000296c:	d9cfe0ef          	jal	80000f08 <goto_priv>
    TEST_SETUP_EXCEPT();
    80002970:	c9cfe0ef          	jal	80000e0c <test_setup_except_function>
    80002974:	001007b7          	lui	a5,0x100
    80002978:	06578793          	addi	a5,a5,101 # 100065 <STACK_SIZE+0x65>
    8000297c:	07b2                	slli	a5,a5,0xc
    8000297e:	639c                	ld	a5,0(a5)
    read64(vs_page_base(VSRWX_GI));    
    TEST_ASSERT(
    80002980:	08200593          	li	a1,130
    80002984:	0002c617          	auipc	a2,0x2c
    80002988:	e2c60613          	addi	a2,a2,-468 # 8002e7b0 <__func__.0+0x8c8>
    8000298c:	0002c517          	auipc	a0,0x2c
    80002990:	85450513          	addi	a0,a0,-1964 # 8002e1e0 <__func__.0+0x2f8>
    80002994:	297280ef          	jal	8002b42a <printf>
    80002998:	00055797          	auipc	a5,0x55
    8000299c:	6797c783          	lbu	a5,1657(a5) # 80058011 <excpt+0x1>
    800029a0:	00055417          	auipc	s0,0x55
    800029a4:	67040413          	addi	s0,s0,1648 # 80058010 <excpt>
    800029a8:	0002c597          	auipc	a1,0x2c
    800029ac:	81058593          	addi	a1,a1,-2032 # 8002e1b8 <__func__.0+0x2d0>
    800029b0:	c789                	beqz	a5,800029ba <two_stage_translation_1+0x1fe>
    800029b2:	6418                	ld	a4,8(s0)
    800029b4:	47d5                	li	a5,21
    800029b6:	3ef70963          	beq	a4,a5,80002da8 <two_stage_translation_1+0x5ec>
    800029ba:	0002c517          	auipc	a0,0x2c
    800029be:	83e50513          	addi	a0,a0,-1986 # 8002e1f8 <__func__.0+0x310>
    800029c2:	269280ef          	jal	8002b42a <printf>
    800029c6:	00055797          	auipc	a5,0x55
    800029ca:	64b7c783          	lbu	a5,1611(a5) # 80058011 <excpt+0x1>
    800029ce:	c789                	beqz	a5,800029d8 <two_stage_translation_1+0x21c>
    800029d0:	6418                	ld	a4,8(s0)
    800029d2:	47d5                	li	a5,21
    800029d4:	2af70c63          	beq	a4,a5,80002c8c <two_stage_translation_1+0x4d0>
    800029d8:	0002c517          	auipc	a0,0x2c
    800029dc:	82850513          	addi	a0,a0,-2008 # 8002e200 <__func__.0+0x318>
    800029e0:	24b280ef          	jal	8002b42a <printf>
    800029e4:	02900513          	li	a0,41
    800029e8:	730270ef          	jal	8002a118 <putchar>
    800029ec:	4529                	li	a0,10
    800029ee:	72a270ef          	jal	8002a118 <putchar>
    800029f2:	c899                	beqz	s1,80002a08 <two_stage_translation_1+0x24c>
    800029f4:	00055797          	auipc	a5,0x55
    800029f8:	61d7c783          	lbu	a5,1565(a5) # 80058011 <excpt+0x1>
    800029fc:	4481                	li	s1,0
    800029fe:	c789                	beqz	a5,80002a08 <two_stage_translation_1+0x24c>
    80002a00:	6418                	ld	a4,8(s0)
    80002a02:	47d5                	li	a5,21
    80002a04:	32f70d63          	beq	a4,a5,80002d3e <two_stage_translation_1+0x582>
        excpt.priv == PRIV_HS &&
        excpt.gva == true &&
        excpt.xpv == true
    );

    TEST_SETUP_EXCEPT();
    80002a08:	c04fe0ef          	jal	80000e0c <test_setup_except_function>
    TEST_EXEC_EXCEPT(vs_page_base(VSRWX_GI)); 
    80002a0c:	001007b7          	lui	a5,0x100
    80002a10:	06578793          	addi	a5,a5,101 # 100065 <STACK_SIZE+0x65>
    80002a14:	07b2                	slli	a5,a5,0xc
    80002a16:	00000297          	auipc	t0,0x0
    80002a1a:	00c28293          	addi	t0,t0,12 # 80002a22 <two_stage_translation_1+0x266>
    80002a1e:	02543c23          	sd	t0,56(s0)
    80002a22:	8782                	jr	a5
    TEST_ASSERT(
    80002a24:	08200593          	li	a1,130
    80002a28:	0002c617          	auipc	a2,0x2c
    80002a2c:	db860613          	addi	a2,a2,-584 # 8002e7e0 <__func__.0+0x8f8>
    80002a30:	0002b517          	auipc	a0,0x2b
    80002a34:	7b050513          	addi	a0,a0,1968 # 8002e1e0 <__func__.0+0x2f8>
    80002a38:	1f3280ef          	jal	8002b42a <printf>
    80002a3c:	00055797          	auipc	a5,0x55
    80002a40:	5d57c783          	lbu	a5,1493(a5) # 80058011 <excpt+0x1>
    80002a44:	0002b597          	auipc	a1,0x2b
    80002a48:	77458593          	addi	a1,a1,1908 # 8002e1b8 <__func__.0+0x2d0>
    80002a4c:	c789                	beqz	a5,80002a56 <two_stage_translation_1+0x29a>
    80002a4e:	6418                	ld	a4,8(s0)
    80002a50:	47d1                	li	a5,20
    80002a52:	3af70e63          	beq	a4,a5,80002e0e <two_stage_translation_1+0x652>
    80002a56:	0002b517          	auipc	a0,0x2b
    80002a5a:	7a250513          	addi	a0,a0,1954 # 8002e1f8 <__func__.0+0x310>
    80002a5e:	1cd280ef          	jal	8002b42a <printf>
    80002a62:	00055797          	auipc	a5,0x55
    80002a66:	5af7c783          	lbu	a5,1455(a5) # 80058011 <excpt+0x1>
    80002a6a:	c789                	beqz	a5,80002a74 <two_stage_translation_1+0x2b8>
    80002a6c:	6418                	ld	a4,8(s0)
    80002a6e:	47d1                	li	a5,20
    80002a70:	24f70963          	beq	a4,a5,80002cc2 <two_stage_translation_1+0x506>
    80002a74:	0002b517          	auipc	a0,0x2b
    80002a78:	78c50513          	addi	a0,a0,1932 # 8002e200 <__func__.0+0x318>
    80002a7c:	1af280ef          	jal	8002b42a <printf>
    80002a80:	02900513          	li	a0,41
    80002a84:	694270ef          	jal	8002a118 <putchar>
    80002a88:	4529                	li	a0,10
    80002a8a:	68e270ef          	jal	8002a118 <putchar>
    80002a8e:	c899                	beqz	s1,80002aa4 <two_stage_translation_1+0x2e8>
    80002a90:	00055797          	auipc	a5,0x55
    80002a94:	5817c783          	lbu	a5,1409(a5) # 80058011 <excpt+0x1>
    80002a98:	4481                	li	s1,0
    80002a9a:	c789                	beqz	a5,80002aa4 <two_stage_translation_1+0x2e8>
    80002a9c:	6418                	ld	a4,8(s0)
    80002a9e:	47d1                	li	a5,20
    80002aa0:	26f70a63          	beq	a4,a5,80002d14 <two_stage_translation_1+0x558>
        excpt.priv == PRIV_M  &&
        excpt.gva == true &&
        excpt.xpv == true
    );

    goto_priv(PRIV_M);
    80002aa4:	4511                	li	a0,4
    80002aa6:	c62fe0ef          	jal	80000f08 <goto_priv>
    CSRS(medeleg, 1 << CAUSE_LPF | 1 << CAUSE_LGPF);
    80002aaa:	002027b7          	lui	a5,0x202
    80002aae:	3027a073          	csrs	medeleg,a5
    goto_priv(PRIV_HS); 
    80002ab2:	450d                	li	a0,3
    80002ab4:	c54fe0ef          	jal	80000f08 <goto_priv>
    CSRS(CSR_HEDELEG, 1 << CAUSE_LPF);
    80002ab8:	6789                	lui	a5,0x2
    80002aba:	6027a073          	csrs	hedeleg,a5
    goto_priv(PRIV_VS);
    80002abe:	4509                	li	a0,2
    80002ac0:	c48fe0ef          	jal	80000f08 <goto_priv>
    80002ac4:	12000073          	sfence.vma
    sfence();
    TEST_SETUP_EXCEPT();
    80002ac8:	b44fe0ef          	jal	80000e0c <test_setup_except_function>
    volatile uint64_t x = *(volatile uint64_t *)addr;
    80002acc:	400197b7          	lui	a5,0x40019
    80002ad0:	078a                	slli	a5,a5,0x2
    80002ad2:	639c                	ld	a5,0(a5)
    touchread(vs_page_base(VSI_GI));    
    TEST_ASSERT(
    80002ad4:	08200593          	li	a1,130
    80002ad8:	0002c617          	auipc	a2,0x2c
    80002adc:	d4860613          	addi	a2,a2,-696 # 8002e820 <__func__.0+0x938>
    80002ae0:	0002b517          	auipc	a0,0x2b
    80002ae4:	70050513          	addi	a0,a0,1792 # 8002e1e0 <__func__.0+0x2f8>
    volatile uint64_t x = *(volatile uint64_t *)addr;
    80002ae8:	e43e                	sd	a5,8(sp)
    TEST_ASSERT(
    80002aea:	141280ef          	jal	8002b42a <printf>
    80002aee:	00055797          	auipc	a5,0x55
    80002af2:	5237c783          	lbu	a5,1315(a5) # 80058011 <excpt+0x1>
    80002af6:	0002b597          	auipc	a1,0x2b
    80002afa:	6c258593          	addi	a1,a1,1730 # 8002e1b8 <__func__.0+0x2d0>
    80002afe:	c789                	beqz	a5,80002b08 <two_stage_translation_1+0x34c>
    80002b00:	6418                	ld	a4,8(s0)
    80002b02:	47b5                	li	a5,13
    80002b04:	2cf70f63          	beq	a4,a5,80002de2 <two_stage_translation_1+0x626>
    80002b08:	0002b517          	auipc	a0,0x2b
    80002b0c:	6f050513          	addi	a0,a0,1776 # 8002e1f8 <__func__.0+0x310>
    80002b10:	11b280ef          	jal	8002b42a <printf>
    80002b14:	00055797          	auipc	a5,0x55
    80002b18:	4fd7c783          	lbu	a5,1277(a5) # 80058011 <excpt+0x1>
    80002b1c:	c789                	beqz	a5,80002b26 <two_stage_translation_1+0x36a>
    80002b1e:	6418                	ld	a4,8(s0)
    80002b20:	47b5                	li	a5,13
    80002b22:	1cf70b63          	beq	a4,a5,80002cf8 <two_stage_translation_1+0x53c>
    80002b26:	0002b517          	auipc	a0,0x2b
    80002b2a:	6da50513          	addi	a0,a0,1754 # 8002e200 <__func__.0+0x318>
    80002b2e:	0fd280ef          	jal	8002b42a <printf>
    80002b32:	02900513          	li	a0,41
    80002b36:	5e2270ef          	jal	8002a118 <putchar>
    80002b3a:	4529                	li	a0,10
    80002b3c:	5dc270ef          	jal	8002a118 <putchar>
    80002b40:	c0b5                	beqz	s1,80002ba4 <two_stage_translation_1+0x3e8>
    80002b42:	00055497          	auipc	s1,0x55
    80002b46:	4cf4c483          	lbu	s1,1231(s1) # 80058011 <excpt+0x1>
        excpt.cause == CAUSE_LPF &&
        excpt.priv == PRIV_VS && 
        excpt.gva == false
    );

    TEST_END();
    80002b4a:	0002b597          	auipc	a1,0x2b
    80002b4e:	66e58593          	addi	a1,a1,1646 # 8002e1b8 <__func__.0+0x2d0>
    TEST_ASSERT(
    80002b52:	c491                	beqz	s1,80002b5e <two_stage_translation_1+0x3a2>
    80002b54:	6418                	ld	a4,8(s0)
    80002b56:	47b5                	li	a5,13
    80002b58:	02f70663          	beq	a4,a5,80002b84 <two_stage_translation_1+0x3c8>
    80002b5c:	4481                	li	s1,0
    TEST_END();
    80002b5e:	0002b517          	auipc	a0,0x2b
    80002b62:	70250513          	addi	a0,a0,1794 # 8002e260 <__func__.0+0x378>
    80002b66:	0c5280ef          	jal	8002b42a <printf>
    80002b6a:	4511                	li	a0,4
    80002b6c:	b9cfe0ef          	jal	80000f08 <goto_priv>
    80002b70:	cb5fe0ef          	jal	80001824 <reset_state>
}
    80002b74:	70e2                	ld	ra,56(sp)
    80002b76:	7442                	ld	s0,48(sp)
    80002b78:	7902                	ld	s2,32(sp)
    80002b7a:	69e2                	ld	s3,24(sp)
    80002b7c:	8526                	mv	a0,s1
    80002b7e:	74a2                	ld	s1,40(sp)
    80002b80:	6121                	addi	sp,sp,64
    80002b82:	8082                	ret
    TEST_ASSERT(
    80002b84:	00055717          	auipc	a4,0x55
    80002b88:	49072703          	lw	a4,1168(a4) # 80058014 <excpt+0x4>
    80002b8c:	4789                	li	a5,2
    80002b8e:	fcf717e3          	bne	a4,a5,80002b5c <two_stage_translation_1+0x3a0>
    80002b92:	00055797          	auipc	a5,0x55
    80002b96:	4ae7c783          	lbu	a5,1198(a5) # 80058040 <excpt+0x30>
    TEST_END();
    80002b9a:	0002b597          	auipc	a1,0x2b
    80002b9e:	60e58593          	addi	a1,a1,1550 # 8002e1a8 <__func__.0+0x2c0>
    TEST_ASSERT(
    80002ba2:	dfd5                	beqz	a5,80002b5e <two_stage_translation_1+0x3a2>
    80002ba4:	4481                	li	s1,0
    TEST_END();
    80002ba6:	0002b597          	auipc	a1,0x2b
    80002baa:	61258593          	addi	a1,a1,1554 # 8002e1b8 <__func__.0+0x2d0>
    80002bae:	bf45                	j	80002b5e <two_stage_translation_1+0x3a2>
    TEST_ASSERT("vs gets right values after changing 2nd stage pt", check1 && check2);
    80002bb0:	47c5                	li	a5,17
    80002bb2:	1cf48b63          	beq	s1,a5,80002d88 <two_stage_translation_1+0x5cc>
    80002bb6:	0002b597          	auipc	a1,0x2b
    80002bba:	60258593          	addi	a1,a1,1538 # 8002e1b8 <__func__.0+0x2d0>
    80002bbe:	0002b517          	auipc	a0,0x2b
    80002bc2:	63a50513          	addi	a0,a0,1594 # 8002e1f8 <__func__.0+0x310>
    80002bc6:	065280ef          	jal	8002b42a <printf>
    80002bca:	0002b517          	auipc	a0,0x2b
    80002bce:	63650513          	addi	a0,a0,1590 # 8002e200 <__func__.0+0x318>
    80002bd2:	059280ef          	jal	8002b42a <printf>
    80002bd6:	02900513          	li	a0,41
    80002bda:	53e270ef          	jal	8002a118 <putchar>
    80002bde:	4529                	li	a0,10
    80002be0:	538270ef          	jal	8002a118 <putchar>
    80002be4:	d00405e3          	beqz	s0,800028ee <two_stage_translation_1+0x132>
    80002be8:	14bd                	addi	s1,s1,-17
    80002bea:	0014b413          	seqz	s0,s1
    80002bee:	b309                	j	800028f0 <two_stage_translation_1+0x134>
    TEST_ASSERT("vs gets right values", check1 && check2);
    80002bf0:	03240e63          	beq	s0,s2,80002c2c <two_stage_translation_1+0x470>
    80002bf4:	0002b597          	auipc	a1,0x2b
    80002bf8:	5c458593          	addi	a1,a1,1476 # 8002e1b8 <__func__.0+0x2d0>
    80002bfc:	0002b517          	auipc	a0,0x2b
    80002c00:	5fc50513          	addi	a0,a0,1532 # 8002e1f8 <__func__.0+0x310>
    80002c04:	027280ef          	jal	8002b42a <printf>
    80002c08:	0002b517          	auipc	a0,0x2b
    80002c0c:	5f850513          	addi	a0,a0,1528 # 8002e200 <__func__.0+0x318>
    80002c10:	01b280ef          	jal	8002b42a <printf>
    80002c14:	02900513          	li	a0,41
    80002c18:	500270ef          	jal	8002a118 <putchar>
    80002c1c:	4529                	li	a0,10
    80002c1e:	4fa270ef          	jal	8002a118 <putchar>
    80002c22:	fde40413          	addi	s0,s0,-34
    80002c26:	00143413          	seqz	s0,s0
    80002c2a:	b1a1                	j	80002872 <two_stage_translation_1+0xb6>
    80002c2c:	0002b597          	auipc	a1,0x2b
    80002c30:	57c58593          	addi	a1,a1,1404 # 8002e1a8 <__func__.0+0x2c0>
    80002c34:	0002b517          	auipc	a0,0x2b
    80002c38:	5c450513          	addi	a0,a0,1476 # 8002e1f8 <__func__.0+0x310>
    80002c3c:	7ee280ef          	jal	8002b42a <printf>
    80002c40:	4529                	li	a0,10
    80002c42:	4d6270ef          	jal	8002a118 <putchar>
    80002c46:	bff1                	j	80002c22 <two_stage_translation_1+0x466>
    TEST_ASSERT("vs gets right values after changing 1st stage pt", check1 && check2);
    80002c48:	02200793          	li	a5,34
    80002c4c:	10f48e63          	beq	s1,a5,80002d68 <two_stage_translation_1+0x5ac>
    80002c50:	0002b597          	auipc	a1,0x2b
    80002c54:	56858593          	addi	a1,a1,1384 # 8002e1b8 <__func__.0+0x2d0>
    80002c58:	0002b517          	auipc	a0,0x2b
    80002c5c:	5a050513          	addi	a0,a0,1440 # 8002e1f8 <__func__.0+0x310>
    80002c60:	7ca280ef          	jal	8002b42a <printf>
    80002c64:	0002b517          	auipc	a0,0x2b
    80002c68:	59c50513          	addi	a0,a0,1436 # 8002e200 <__func__.0+0x318>
    80002c6c:	7be280ef          	jal	8002b42a <printf>
    80002c70:	02900513          	li	a0,41
    80002c74:	4a4270ef          	jal	8002a118 <putchar>
    80002c78:	4529                	li	a0,10
    80002c7a:	49e270ef          	jal	8002a118 <putchar>
    80002c7e:	cc040ee3          	beqz	s0,8000295a <two_stage_translation_1+0x19e>
    80002c82:	fde48493          	addi	s1,s1,-34
    80002c86:	0014b493          	seqz	s1,s1
    80002c8a:	b9c9                	j	8000295c <two_stage_translation_1+0x1a0>
    TEST_ASSERT(
    80002c8c:	7418                	ld	a4,40(s0)
    80002c8e:	400197b7          	lui	a5,0x40019
    80002c92:	40078793          	addi	a5,a5,1024 # 40019400 <STACK_SIZE+0x3ff19400>
    80002c96:	d4f711e3          	bne	a4,a5,800029d8 <two_stage_translation_1+0x21c>
    80002c9a:	00055717          	auipc	a4,0x55
    80002c9e:	37a72703          	lw	a4,890(a4) # 80058014 <excpt+0x4>
    80002ca2:	478d                	li	a5,3
    80002ca4:	d2f71ae3          	bne	a4,a5,800029d8 <two_stage_translation_1+0x21c>
    80002ca8:	00055797          	auipc	a5,0x55
    80002cac:	3987c783          	lbu	a5,920(a5) # 80058040 <excpt+0x30>
    80002cb0:	d20784e3          	beqz	a5,800029d8 <two_stage_translation_1+0x21c>
    80002cb4:	00055797          	auipc	a5,0x55
    80002cb8:	38d7c783          	lbu	a5,909(a5) # 80058041 <excpt+0x31>
    80002cbc:	d20798e3          	bnez	a5,800029ec <two_stage_translation_1+0x230>
    80002cc0:	bb21                	j	800029d8 <two_stage_translation_1+0x21c>
    TEST_ASSERT(
    80002cc2:	7418                	ld	a4,40(s0)
    80002cc4:	400197b7          	lui	a5,0x40019
    80002cc8:	40078793          	addi	a5,a5,1024 # 40019400 <STACK_SIZE+0x3ff19400>
    80002ccc:	daf714e3          	bne	a4,a5,80002a74 <two_stage_translation_1+0x2b8>
    80002cd0:	00055717          	auipc	a4,0x55
    80002cd4:	34472703          	lw	a4,836(a4) # 80058014 <excpt+0x4>
    80002cd8:	4791                	li	a5,4
    80002cda:	d8f71de3          	bne	a4,a5,80002a74 <two_stage_translation_1+0x2b8>
    80002cde:	00055797          	auipc	a5,0x55
    80002ce2:	3627c783          	lbu	a5,866(a5) # 80058040 <excpt+0x30>
    80002ce6:	d80787e3          	beqz	a5,80002a74 <two_stage_translation_1+0x2b8>
    80002cea:	00055797          	auipc	a5,0x55
    80002cee:	3577c783          	lbu	a5,855(a5) # 80058041 <excpt+0x31>
    80002cf2:	d8079be3          	bnez	a5,80002a88 <two_stage_translation_1+0x2cc>
    80002cf6:	bbbd                	j	80002a74 <two_stage_translation_1+0x2b8>
    TEST_ASSERT(
    80002cf8:	00055717          	auipc	a4,0x55
    80002cfc:	31c72703          	lw	a4,796(a4) # 80058014 <excpt+0x4>
    80002d00:	4789                	li	a5,2
    80002d02:	e2f712e3          	bne	a4,a5,80002b26 <two_stage_translation_1+0x36a>
    80002d06:	00055797          	auipc	a5,0x55
    80002d0a:	33a7c783          	lbu	a5,826(a5) # 80058040 <excpt+0x30>
    80002d0e:	e20786e3          	beqz	a5,80002b3a <two_stage_translation_1+0x37e>
    80002d12:	bd11                	j	80002b26 <two_stage_translation_1+0x36a>
    TEST_ASSERT(
    80002d14:	7418                	ld	a4,40(s0)
    80002d16:	400197b7          	lui	a5,0x40019
    80002d1a:	40078793          	addi	a5,a5,1024 # 40019400 <STACK_SIZE+0x3ff19400>
    80002d1e:	d8f713e3          	bne	a4,a5,80002aa4 <two_stage_translation_1+0x2e8>
    80002d22:	00055717          	auipc	a4,0x55
    80002d26:	2f272703          	lw	a4,754(a4) # 80058014 <excpt+0x4>
    80002d2a:	4791                	li	a5,4
    80002d2c:	d6f71ce3          	bne	a4,a5,80002aa4 <two_stage_translation_1+0x2e8>
    80002d30:	03045483          	lhu	s1,48(s0)
    80002d34:	eff48493          	addi	s1,s1,-257
    80002d38:	0014b493          	seqz	s1,s1
    80002d3c:	b3a5                	j	80002aa4 <two_stage_translation_1+0x2e8>
    TEST_ASSERT(
    80002d3e:	7418                	ld	a4,40(s0)
    80002d40:	400197b7          	lui	a5,0x40019
    80002d44:	40078793          	addi	a5,a5,1024 # 40019400 <STACK_SIZE+0x3ff19400>
    80002d48:	ccf710e3          	bne	a4,a5,80002a08 <two_stage_translation_1+0x24c>
    80002d4c:	00055717          	auipc	a4,0x55
    80002d50:	2c872703          	lw	a4,712(a4) # 80058014 <excpt+0x4>
    80002d54:	478d                	li	a5,3
    80002d56:	caf719e3          	bne	a4,a5,80002a08 <two_stage_translation_1+0x24c>
    80002d5a:	03045483          	lhu	s1,48(s0)
    80002d5e:	eff48493          	addi	s1,s1,-257
    80002d62:	0014b493          	seqz	s1,s1
    80002d66:	b14d                	j	80002a08 <two_stage_translation_1+0x24c>
    TEST_ASSERT("vs gets right values after changing 1st stage pt", check1 && check2);
    80002d68:	0002b597          	auipc	a1,0x2b
    80002d6c:	44058593          	addi	a1,a1,1088 # 8002e1a8 <__func__.0+0x2c0>
    80002d70:	0002b517          	auipc	a0,0x2b
    80002d74:	48850513          	addi	a0,a0,1160 # 8002e1f8 <__func__.0+0x310>
    80002d78:	6b2280ef          	jal	8002b42a <printf>
    80002d7c:	4529                	li	a0,10
    80002d7e:	39a270ef          	jal	8002a118 <putchar>
    80002d82:	bc040ce3          	beqz	s0,8000295a <two_stage_translation_1+0x19e>
    80002d86:	bdf5                	j	80002c82 <two_stage_translation_1+0x4c6>
    TEST_ASSERT("vs gets right values after changing 2nd stage pt", check1 && check2);
    80002d88:	0002b597          	auipc	a1,0x2b
    80002d8c:	42058593          	addi	a1,a1,1056 # 8002e1a8 <__func__.0+0x2c0>
    80002d90:	0002b517          	auipc	a0,0x2b
    80002d94:	46850513          	addi	a0,a0,1128 # 8002e1f8 <__func__.0+0x310>
    80002d98:	692280ef          	jal	8002b42a <printf>
    80002d9c:	4529                	li	a0,10
    80002d9e:	37a270ef          	jal	8002a118 <putchar>
    80002da2:	b40406e3          	beqz	s0,800028ee <two_stage_translation_1+0x132>
    80002da6:	b589                	j	80002be8 <two_stage_translation_1+0x42c>
    TEST_ASSERT(
    80002da8:	7418                	ld	a4,40(s0)
    80002daa:	400197b7          	lui	a5,0x40019
    80002dae:	40078793          	addi	a5,a5,1024 # 40019400 <STACK_SIZE+0x3ff19400>
    80002db2:	c0f714e3          	bne	a4,a5,800029ba <two_stage_translation_1+0x1fe>
    80002db6:	00055717          	auipc	a4,0x55
    80002dba:	25e72703          	lw	a4,606(a4) # 80058014 <excpt+0x4>
    80002dbe:	478d                	li	a5,3
    80002dc0:	bef71de3          	bne	a4,a5,800029ba <two_stage_translation_1+0x1fe>
    80002dc4:	03045703          	lhu	a4,48(s0)
    80002dc8:	10100793          	li	a5,257
    80002dcc:	0002b597          	auipc	a1,0x2b
    80002dd0:	3dc58593          	addi	a1,a1,988 # 8002e1a8 <__func__.0+0x2c0>
    80002dd4:	bef703e3          	beq	a4,a5,800029ba <two_stage_translation_1+0x1fe>
    80002dd8:	0002b597          	auipc	a1,0x2b
    80002ddc:	3e058593          	addi	a1,a1,992 # 8002e1b8 <__func__.0+0x2d0>
    80002de0:	bee9                	j	800029ba <two_stage_translation_1+0x1fe>
    TEST_ASSERT(
    80002de2:	00055717          	auipc	a4,0x55
    80002de6:	23272703          	lw	a4,562(a4) # 80058014 <excpt+0x4>
    80002dea:	4789                	li	a5,2
    80002dec:	d0f71ee3          	bne	a4,a5,80002b08 <two_stage_translation_1+0x34c>
    80002df0:	00055797          	auipc	a5,0x55
    80002df4:	2507c783          	lbu	a5,592(a5) # 80058040 <excpt+0x30>
    80002df8:	0002b597          	auipc	a1,0x2b
    80002dfc:	3b058593          	addi	a1,a1,944 # 8002e1a8 <__func__.0+0x2c0>
    80002e00:	d00784e3          	beqz	a5,80002b08 <two_stage_translation_1+0x34c>
    80002e04:	0002b597          	auipc	a1,0x2b
    80002e08:	3b458593          	addi	a1,a1,948 # 8002e1b8 <__func__.0+0x2d0>
    80002e0c:	b9f5                	j	80002b08 <two_stage_translation_1+0x34c>
    TEST_ASSERT(
    80002e0e:	7418                	ld	a4,40(s0)
    80002e10:	400197b7          	lui	a5,0x40019
    80002e14:	40078793          	addi	a5,a5,1024 # 40019400 <STACK_SIZE+0x3ff19400>
    80002e18:	c2f71fe3          	bne	a4,a5,80002a56 <two_stage_translation_1+0x29a>
    80002e1c:	00055717          	auipc	a4,0x55
    80002e20:	1f872703          	lw	a4,504(a4) # 80058014 <excpt+0x4>
    80002e24:	4791                	li	a5,4
    80002e26:	c2f718e3          	bne	a4,a5,80002a56 <two_stage_translation_1+0x29a>
    80002e2a:	03045703          	lhu	a4,48(s0)
    80002e2e:	10100793          	li	a5,257
    80002e32:	0002b597          	auipc	a1,0x2b
    80002e36:	37658593          	addi	a1,a1,886 # 8002e1a8 <__func__.0+0x2c0>
    80002e3a:	c0f70ee3          	beq	a4,a5,80002a56 <two_stage_translation_1+0x29a>
    80002e3e:	0002b597          	auipc	a1,0x2b
    80002e42:	37a58593          	addi	a1,a1,890 # 8002e1b8 <__func__.0+0x2d0>
    80002e46:	b901                	j	80002a56 <two_stage_translation_1+0x29a>

0000000080002e48 <two_stage_translation_2>:

bool two_stage_translation_2(){
    80002e48:	7179                	addi	sp,sp,-48
    
    TEST_START();
    80002e4a:	00029597          	auipc	a1,0x29
    80002e4e:	39e58593          	addi	a1,a1,926 # 8002c1e8 <__func__.17>
    80002e52:	0002b517          	auipc	a0,0x2b
    80002e56:	37650513          	addi	a0,a0,886 # 8002e1c8 <__func__.0+0x2e0>
bool two_stage_translation_2(){
    80002e5a:	f406                	sd	ra,40(sp)
    80002e5c:	f022                	sd	s0,32(sp)
    80002e5e:	ec26                	sd	s1,24(sp)
    80002e60:	e84a                	sd	s2,16(sp)
    80002e62:	e44e                	sd	s3,8(sp)
    TEST_START();
    80002e64:	5c6280ef          	jal	8002b42a <printf>
    80002e68:	4529                	li	a0,10
    80002e6a:	2ae270ef          	jal	8002a118 <putchar>
    goto_priv(PRIV_M);
    80002e6e:	4511                	li	a0,4
    80002e70:	898fe0ef          	jal	80000f08 <goto_priv>
    *((volatile uint64_t*) addr) = val;
    80002e74:	2201b737          	lui	a4,0x2201b
    80002e78:	000887b7          	lui	a5,0x88
    80002e7c:	070a                	slli	a4,a4,0x2
    80002e7e:	44c5                	li	s1,17
    80002e80:	06d78793          	addi	a5,a5,109 # 8806d <_test_table_size+0x8806c>
    80002e84:	e304                	sd	s1,0(a4)
    80002e86:	07b2                	slli	a5,a5,0xc
    80002e88:	02200913          	li	s2,34
    80002e8c:	0127b023          	sd	s2,0(a5)
    write64(addr2, 0x22);

    /**
     * Setup hyp page_tables.
     */
    goto_priv(PRIV_HS);
    80002e90:	450d                	li	a0,3
    80002e92:	876fe0ef          	jal	80000f08 <goto_priv>
    hspt_init();
    80002e96:	f4afd0ef          	jal	800005e0 <hspt_init>
    hpt_init();
    80002e9a:	b2bfd0ef          	jal	800009c4 <hpt_init>

    /**
     * Setup guest page tables.
     */
    vspt_init();
    80002e9e:	8dffd0ef          	jal	8000077c <vspt_init>

    goto_priv(PRIV_VS);
    80002ea2:	4509                	li	a0,2
    80002ea4:	864fe0ef          	jal	80000f08 <goto_priv>
    return *((volatile uint64_t*) addr);
    80002ea8:	4001b737          	lui	a4,0x4001b
    80002eac:	070a                	slli	a4,a4,0x2
    80002eae:	00073983          	ld	s3,0(a4) # 4001b000 <STACK_SIZE+0x3ff1b000>
    80002eb2:	001007b7          	lui	a5,0x100
    80002eb6:	06d78793          	addi	a5,a5,109 # 10006d <STACK_SIZE+0x6d>
    80002eba:	07b2                	slli	a5,a5,0xc
    bool check1 = read64(vaddr1) == 0x11;
    bool check2 = read64(vaddr2) == 0x22;
    TEST_ASSERT("vs gets right values", check1 && check2);
    80002ebc:	0002c617          	auipc	a2,0x2c
    80002ec0:	86c60613          	addi	a2,a2,-1940 # 8002e728 <__func__.0+0x840>
    80002ec4:	08200593          	li	a1,130
    80002ec8:	0002b517          	auipc	a0,0x2b
    80002ecc:	31850513          	addi	a0,a0,792 # 8002e1e0 <__func__.0+0x2f8>
    80002ed0:	6380                	ld	s0,0(a5)
    80002ed2:	558280ef          	jal	8002b42a <printf>
    80002ed6:	0c998b63          	beq	s3,s1,80002fac <two_stage_translation_2+0x164>
    80002eda:	0002b597          	auipc	a1,0x2b
    80002ede:	2de58593          	addi	a1,a1,734 # 8002e1b8 <__func__.0+0x2d0>
    80002ee2:	0002b517          	auipc	a0,0x2b
    80002ee6:	31650513          	addi	a0,a0,790 # 8002e1f8 <__func__.0+0x310>
    80002eea:	540280ef          	jal	8002b42a <printf>
    80002eee:	0002b517          	auipc	a0,0x2b
    80002ef2:	31250513          	addi	a0,a0,786 # 8002e200 <__func__.0+0x318>
    80002ef6:	534280ef          	jal	8002b42a <printf>
    80002efa:	02900513          	li	a0,41
    80002efe:	21a270ef          	jal	8002a118 <putchar>
    80002f02:	4529                	li	a0,10
    80002f04:	214270ef          	jal	8002a118 <putchar>
    80002f08:	4401                	li	s0,0
    
    goto_priv(PRIV_HS);
    80002f0a:	450d                	li	a0,3
    80002f0c:	ffdfd0ef          	jal	80000f08 <goto_priv>
    hpt_switch();
    80002f10:	ec7fd0ef          	jal	80000dd6 <hpt_switch>
    goto_priv(PRIV_VS);
    80002f14:	4509                	li	a0,2
    80002f16:	ff3fd0ef          	jal	80000f08 <goto_priv>
    80002f1a:	001007b7          	lui	a5,0x100
    80002f1e:	4001b737          	lui	a4,0x4001b
    80002f22:	070a                	slli	a4,a4,0x2
    80002f24:	06d78793          	addi	a5,a5,109 # 10006d <STACK_SIZE+0x6d>
    80002f28:	07b2                	slli	a5,a5,0xc
    80002f2a:	6304                	ld	s1,0(a4)
    check1 = read64(vaddr1) == 0x11;
    check2 = read64(vaddr2) == 0x22;   
    // INFO("0%lx 0x%lx", read64(vaddr1), read64(vaddr2));
    TEST_ASSERT("vs do not change values after changing 2nd stage pt when not execute hfence", check1 && check2);
    80002f2c:	0002c617          	auipc	a2,0x2c
    80002f30:	92c60613          	addi	a2,a2,-1748 # 8002e858 <__func__.0+0x970>
    80002f34:	08200593          	li	a1,130
    80002f38:	0002b517          	auipc	a0,0x2b
    80002f3c:	2a850513          	addi	a0,a0,680 # 8002e1e0 <__func__.0+0x2f8>
    80002f40:	0007b903          	ld	s2,0(a5)
    80002f44:	4e6280ef          	jal	8002b42a <printf>
    80002f48:	47c5                	li	a5,17
    80002f4a:	0af48d63          	beq	s1,a5,80003004 <two_stage_translation_2+0x1bc>
    80002f4e:	0002b597          	auipc	a1,0x2b
    80002f52:	26a58593          	addi	a1,a1,618 # 8002e1b8 <__func__.0+0x2d0>
    80002f56:	0002b517          	auipc	a0,0x2b
    80002f5a:	2a250513          	addi	a0,a0,674 # 8002e1f8 <__func__.0+0x310>
    80002f5e:	4cc280ef          	jal	8002b42a <printf>
    80002f62:	0002b517          	auipc	a0,0x2b
    80002f66:	29e50513          	addi	a0,a0,670 # 8002e200 <__func__.0+0x318>
    80002f6a:	4c0280ef          	jal	8002b42a <printf>
    80002f6e:	02900513          	li	a0,41
    80002f72:	1a6270ef          	jal	8002a118 <putchar>
    80002f76:	4529                	li	a0,10
    80002f78:	1a0270ef          	jal	8002a118 <putchar>
    80002f7c:	4401                	li	s0,0


    TEST_END();
    80002f7e:	0002b597          	auipc	a1,0x2b
    80002f82:	23a58593          	addi	a1,a1,570 # 8002e1b8 <__func__.0+0x2d0>
    80002f86:	0002b517          	auipc	a0,0x2b
    80002f8a:	2da50513          	addi	a0,a0,730 # 8002e260 <__func__.0+0x378>
    80002f8e:	49c280ef          	jal	8002b42a <printf>
    80002f92:	4511                	li	a0,4
    80002f94:	f75fd0ef          	jal	80000f08 <goto_priv>
    80002f98:	88dfe0ef          	jal	80001824 <reset_state>
}
    80002f9c:	70a2                	ld	ra,40(sp)
    80002f9e:	8522                	mv	a0,s0
    80002fa0:	7402                	ld	s0,32(sp)
    80002fa2:	64e2                	ld	s1,24(sp)
    80002fa4:	6942                	ld	s2,16(sp)
    80002fa6:	69a2                	ld	s3,8(sp)
    80002fa8:	6145                	addi	sp,sp,48
    80002faa:	8082                	ret
    TEST_ASSERT("vs gets right values", check1 && check2);
    80002fac:	03240e63          	beq	s0,s2,80002fe8 <two_stage_translation_2+0x1a0>
    80002fb0:	0002b597          	auipc	a1,0x2b
    80002fb4:	20858593          	addi	a1,a1,520 # 8002e1b8 <__func__.0+0x2d0>
    80002fb8:	0002b517          	auipc	a0,0x2b
    80002fbc:	24050513          	addi	a0,a0,576 # 8002e1f8 <__func__.0+0x310>
    80002fc0:	46a280ef          	jal	8002b42a <printf>
    80002fc4:	0002b517          	auipc	a0,0x2b
    80002fc8:	23c50513          	addi	a0,a0,572 # 8002e200 <__func__.0+0x318>
    80002fcc:	45e280ef          	jal	8002b42a <printf>
    80002fd0:	02900513          	li	a0,41
    80002fd4:	144270ef          	jal	8002a118 <putchar>
    80002fd8:	4529                	li	a0,10
    80002fda:	13e270ef          	jal	8002a118 <putchar>
    80002fde:	fde40413          	addi	s0,s0,-34
    80002fe2:	00143413          	seqz	s0,s0
    80002fe6:	b715                	j	80002f0a <two_stage_translation_2+0xc2>
    80002fe8:	0002b597          	auipc	a1,0x2b
    80002fec:	1c058593          	addi	a1,a1,448 # 8002e1a8 <__func__.0+0x2c0>
    80002ff0:	0002b517          	auipc	a0,0x2b
    80002ff4:	20850513          	addi	a0,a0,520 # 8002e1f8 <__func__.0+0x310>
    80002ff8:	432280ef          	jal	8002b42a <printf>
    80002ffc:	4529                	li	a0,10
    80002ffe:	11a270ef          	jal	8002a118 <putchar>
    80003002:	bff1                	j	80002fde <two_stage_translation_2+0x196>
    TEST_ASSERT("vs do not change values after changing 2nd stage pt when not execute hfence", check1 && check2);
    80003004:	02200793          	li	a5,34
    80003008:	f4f913e3          	bne	s2,a5,80002f4e <two_stage_translation_2+0x106>
    8000300c:	0002b597          	auipc	a1,0x2b
    80003010:	19c58593          	addi	a1,a1,412 # 8002e1a8 <__func__.0+0x2c0>
    80003014:	0002b517          	auipc	a0,0x2b
    80003018:	1e450513          	addi	a0,a0,484 # 8002e1f8 <__func__.0+0x310>
    8000301c:	40e280ef          	jal	8002b42a <printf>
    80003020:	4529                	li	a0,10
    80003022:	0f6270ef          	jal	8002a118 <putchar>
    80003026:	d839                	beqz	s0,80002f7c <two_stage_translation_2+0x134>
    80003028:	4405                	li	s0,1
    TEST_END();
    8000302a:	0002b597          	auipc	a1,0x2b
    8000302e:	17e58593          	addi	a1,a1,382 # 8002e1a8 <__func__.0+0x2c0>
    80003032:	bf91                	j	80002f86 <two_stage_translation_2+0x13e>

0000000080003034 <two_stage_translation_3>:

bool two_stage_translation_3(){
    80003034:	7179                	addi	sp,sp,-48
    
    TEST_START();
    80003036:	00029597          	auipc	a1,0x29
    8000303a:	1ca58593          	addi	a1,a1,458 # 8002c200 <__func__.16>
    8000303e:	0002b517          	auipc	a0,0x2b
    80003042:	18a50513          	addi	a0,a0,394 # 8002e1c8 <__func__.0+0x2e0>
bool two_stage_translation_3(){
    80003046:	f406                	sd	ra,40(sp)
    80003048:	f022                	sd	s0,32(sp)
    8000304a:	ec26                	sd	s1,24(sp)
    8000304c:	e84a                	sd	s2,16(sp)
    8000304e:	e44e                	sd	s3,8(sp)
    TEST_START();
    80003050:	3da280ef          	jal	8002b42a <printf>
    80003054:	4529                	li	a0,10
    80003056:	0c2270ef          	jal	8002a118 <putchar>
    *((volatile uint64_t*) addr) = val;
    8000305a:	2201b737          	lui	a4,0x2201b
    8000305e:	000887b7          	lui	a5,0x88
    80003062:	070a                	slli	a4,a4,0x2
    80003064:	44c5                	li	s1,17
    80003066:	06d78793          	addi	a5,a5,109 # 8806d <_test_table_size+0x8806c>
    8000306a:	e304                	sd	s1,0(a4)
    8000306c:	07b2                	slli	a5,a5,0xc
    8000306e:	02200913          	li	s2,34
    80003072:	0127b023          	sd	s2,0(a5)
    write64(addr2, 0x22);

    /**
     * Setup hyp page_tables.
     */
    goto_priv(PRIV_HS);
    80003076:	450d                	li	a0,3
    80003078:	e91fd0ef          	jal	80000f08 <goto_priv>
    hspt_init();
    8000307c:	d64fd0ef          	jal	800005e0 <hspt_init>
    hpt_init();
    80003080:	945fd0ef          	jal	800009c4 <hpt_init>

    /**
     * Setup guest page tables.
     */
    vspt_init();
    80003084:	ef8fd0ef          	jal	8000077c <vspt_init>

    goto_priv(PRIV_VS);
    80003088:	4509                	li	a0,2
    8000308a:	e7ffd0ef          	jal	80000f08 <goto_priv>
    return *((volatile uint64_t*) addr);
    8000308e:	4001b737          	lui	a4,0x4001b
    80003092:	070a                	slli	a4,a4,0x2
    80003094:	00073983          	ld	s3,0(a4) # 4001b000 <STACK_SIZE+0x3ff1b000>
    80003098:	001007b7          	lui	a5,0x100
    8000309c:	06d78793          	addi	a5,a5,109 # 10006d <STACK_SIZE+0x6d>
    800030a0:	07b2                	slli	a5,a5,0xc
    bool check1 = read64(vaddr1) == 0x11;
    bool check2 = read64(vaddr2) == 0x22;
    TEST_ASSERT("vs gets right values", check1 && check2);
    800030a2:	0002b617          	auipc	a2,0x2b
    800030a6:	68660613          	addi	a2,a2,1670 # 8002e728 <__func__.0+0x840>
    800030aa:	08200593          	li	a1,130
    800030ae:	0002b517          	auipc	a0,0x2b
    800030b2:	13250513          	addi	a0,a0,306 # 8002e1e0 <__func__.0+0x2f8>
    800030b6:	6380                	ld	s0,0(a5)
    800030b8:	372280ef          	jal	8002b42a <printf>
    800030bc:	0c998863          	beq	s3,s1,8000318c <two_stage_translation_3+0x158>
    800030c0:	0002b597          	auipc	a1,0x2b
    800030c4:	0f858593          	addi	a1,a1,248 # 8002e1b8 <__func__.0+0x2d0>
    800030c8:	0002b517          	auipc	a0,0x2b
    800030cc:	13050513          	addi	a0,a0,304 # 8002e1f8 <__func__.0+0x310>
    800030d0:	35a280ef          	jal	8002b42a <printf>
    800030d4:	0002b517          	auipc	a0,0x2b
    800030d8:	12c50513          	addi	a0,a0,300 # 8002e200 <__func__.0+0x318>
    800030dc:	34e280ef          	jal	8002b42a <printf>
    800030e0:	02900513          	li	a0,41
    800030e4:	034270ef          	jal	8002a118 <putchar>
    800030e8:	4529                	li	a0,10
    800030ea:	02e270ef          	jal	8002a118 <putchar>
    800030ee:	4401                	li	s0,0
    
    goto_priv(PRIV_VS);
    800030f0:	4509                	li	a0,2
    800030f2:	e17fd0ef          	jal	80000f08 <goto_priv>

    vspt_switch();
    800030f6:	cbffd0ef          	jal	80000db4 <vspt_switch>
    800030fa:	001007b7          	lui	a5,0x100
    800030fe:	4001b737          	lui	a4,0x4001b
    80003102:	070a                	slli	a4,a4,0x2
    80003104:	06d78793          	addi	a5,a5,109 # 10006d <STACK_SIZE+0x6d>
    80003108:	07b2                	slli	a5,a5,0xc
    8000310a:	6304                	ld	s1,0(a4)
    check1 = read64(vaddr1) == 0x11;
    check2 = read64(vaddr2) == 0x22;   
    TEST_ASSERT("vs do not change values after changing 1st stage pt when not execute sfence", check1 && check2);
    8000310c:	0002b617          	auipc	a2,0x2b
    80003110:	79c60613          	addi	a2,a2,1948 # 8002e8a8 <__func__.0+0x9c0>
    80003114:	08200593          	li	a1,130
    80003118:	0002b517          	auipc	a0,0x2b
    8000311c:	0c850513          	addi	a0,a0,200 # 8002e1e0 <__func__.0+0x2f8>
    80003120:	0007b903          	ld	s2,0(a5)
    80003124:	306280ef          	jal	8002b42a <printf>
    80003128:	47c5                	li	a5,17
    8000312a:	0af48d63          	beq	s1,a5,800031e4 <two_stage_translation_3+0x1b0>
    8000312e:	0002b597          	auipc	a1,0x2b
    80003132:	08a58593          	addi	a1,a1,138 # 8002e1b8 <__func__.0+0x2d0>
    80003136:	0002b517          	auipc	a0,0x2b
    8000313a:	0c250513          	addi	a0,a0,194 # 8002e1f8 <__func__.0+0x310>
    8000313e:	2ec280ef          	jal	8002b42a <printf>
    80003142:	0002b517          	auipc	a0,0x2b
    80003146:	0be50513          	addi	a0,a0,190 # 8002e200 <__func__.0+0x318>
    8000314a:	2e0280ef          	jal	8002b42a <printf>
    8000314e:	02900513          	li	a0,41
    80003152:	7c7260ef          	jal	8002a118 <putchar>
    80003156:	4529                	li	a0,10
    80003158:	7c1260ef          	jal	8002a118 <putchar>
    8000315c:	4401                	li	s0,0

    TEST_END();
    8000315e:	0002b597          	auipc	a1,0x2b
    80003162:	05a58593          	addi	a1,a1,90 # 8002e1b8 <__func__.0+0x2d0>
    80003166:	0002b517          	auipc	a0,0x2b
    8000316a:	0fa50513          	addi	a0,a0,250 # 8002e260 <__func__.0+0x378>
    8000316e:	2bc280ef          	jal	8002b42a <printf>
    80003172:	4511                	li	a0,4
    80003174:	d95fd0ef          	jal	80000f08 <goto_priv>
    80003178:	eacfe0ef          	jal	80001824 <reset_state>
}
